
/decoder/build/max78000.elf:     file format elf32-littlearm


Disassembly of section .text:

1000e000 <__isr_vector>:
1000e000:	20020000 	.word	0x20020000
1000e004:	100101b9 	.word	0x100101b9
1000e008:	1000ffed 	.word	0x1000ffed
1000e00c:	100101f7 	.word	0x100101f7
1000e010:	100101f9 	.word	0x100101f9
1000e014:	100101fb 	.word	0x100101fb
1000e018:	100101fd 	.word	0x100101fd
	...
1000e02c:	100101ff 	.word	0x100101ff
1000e030:	10010201 	.word	0x10010201
1000e034:	00000000 	.word	0x00000000
1000e038:	10010203 	.word	0x10010203
1000e03c:	10010205 	.word	0x10010205
1000e040:	10010209 	.word	0x10010209
1000e044:	1001020b 	.word	0x1001020b
1000e048:	1001020d 	.word	0x1001020d
1000e04c:	1001020f 	.word	0x1001020f
1000e050:	10010211 	.word	0x10010211
1000e054:	10010213 	.word	0x10010213
1000e058:	10010215 	.word	0x10010215
1000e05c:	10010217 	.word	0x10010217
1000e060:	10010219 	.word	0x10010219
1000e064:	1001021b 	.word	0x1001021b
1000e068:	1001021d 	.word	0x1001021d
1000e06c:	1001021f 	.word	0x1001021f
1000e070:	10010221 	.word	0x10010221
1000e074:	10010223 	.word	0x10010223
1000e078:	10010225 	.word	0x10010225
1000e07c:	10010227 	.word	0x10010227
1000e080:	10010229 	.word	0x10010229
1000e084:	1001022b 	.word	0x1001022b
1000e088:	1001022d 	.word	0x1001022d
1000e08c:	1001022f 	.word	0x1001022f
1000e090:	10010231 	.word	0x10010231
1000e094:	10010233 	.word	0x10010233
1000e098:	10010235 	.word	0x10010235
1000e09c:	10010237 	.word	0x10010237
1000e0a0:	1000ff71 	.word	0x1000ff71
1000e0a4:	1000ff79 	.word	0x1000ff79
1000e0a8:	1001023d 	.word	0x1001023d
1000e0ac:	1001023f 	.word	0x1001023f
1000e0b0:	10010241 	.word	0x10010241
1000e0b4:	10010243 	.word	0x10010243
1000e0b8:	10010245 	.word	0x10010245
1000e0bc:	10010247 	.word	0x10010247
1000e0c0:	10010249 	.word	0x10010249
1000e0c4:	1001024b 	.word	0x1001024b
1000e0c8:	1001024d 	.word	0x1001024d
1000e0cc:	1001024f 	.word	0x1001024f
1000e0d0:	10010251 	.word	0x10010251
1000e0d4:	10010253 	.word	0x10010253
1000e0d8:	10010255 	.word	0x10010255
1000e0dc:	10010257 	.word	0x10010257
1000e0e0:	10010259 	.word	0x10010259
1000e0e4:	1001025b 	.word	0x1001025b
1000e0e8:	1001025d 	.word	0x1001025d
1000e0ec:	1001025f 	.word	0x1001025f
1000e0f0:	10010261 	.word	0x10010261
1000e0f4:	10010263 	.word	0x10010263
1000e0f8:	10010265 	.word	0x10010265
1000e0fc:	10010267 	.word	0x10010267
1000e100:	10010269 	.word	0x10010269
1000e104:	1001026b 	.word	0x1001026b
1000e108:	1001026d 	.word	0x1001026d
1000e10c:	1001026f 	.word	0x1001026f
1000e110:	10010271 	.word	0x10010271
1000e114:	10010273 	.word	0x10010273
1000e118:	10010275 	.word	0x10010275
1000e11c:	10010277 	.word	0x10010277
1000e120:	10010279 	.word	0x10010279
1000e124:	1001027b 	.word	0x1001027b
1000e128:	1001027d 	.word	0x1001027d
1000e12c:	1001027f 	.word	0x1001027f
1000e130:	10010281 	.word	0x10010281
1000e134:	10010283 	.word	0x10010283
1000e138:	10010285 	.word	0x10010285
1000e13c:	10010287 	.word	0x10010287
1000e140:	10010289 	.word	0x10010289
1000e144:	1001028b 	.word	0x1001028b
1000e148:	1001028d 	.word	0x1001028d
1000e14c:	1001028f 	.word	0x1001028f
1000e150:	10010291 	.word	0x10010291
1000e154:	10010293 	.word	0x10010293
1000e158:	10010295 	.word	0x10010295
1000e15c:	10010297 	.word	0x10010297
1000e160:	10010299 	.word	0x10010299
1000e164:	1001029b 	.word	0x1001029b
1000e168:	1001029d 	.word	0x1001029d
1000e16c:	1001029f 	.word	0x1001029f
1000e170:	100102a1 	.word	0x100102a1
1000e174:	100102a3 	.word	0x100102a3
1000e178:	100102a5 	.word	0x100102a5
1000e17c:	100102a7 	.word	0x100102a7
1000e180:	100102a9 	.word	0x100102a9
1000e184:	100102ab 	.word	0x100102ab
1000e188:	100102ad 	.word	0x100102ad
1000e18c:	100102af 	.word	0x100102af
1000e190:	100102b1 	.word	0x100102b1
1000e194:	100102b3 	.word	0x100102b3
1000e198:	100102b5 	.word	0x100102b5
1000e19c:	100102b7 	.word	0x100102b7
1000e1a0:	100102b9 	.word	0x100102b9
1000e1a4:	100102bb 	.word	0x100102bb
1000e1a8:	100102bd 	.word	0x100102bd
1000e1ac:	100102bf 	.word	0x100102bf
1000e1b0:	100102c1 	.word	0x100102c1
1000e1b4:	100102c3 	.word	0x100102c3
1000e1b8:	100102c5 	.word	0x100102c5
1000e1bc:	100102c7 	.word	0x100102c7
1000e1c0:	100102c9 	.word	0x100102c9
1000e1c4:	100102cb 	.word	0x100102cb
1000e1c8:	100102cd 	.word	0x100102cd
1000e1cc:	100102cf 	.word	0x100102cf
1000e1d0:	100102d1 	.word	0x100102d1
1000e1d4:	100102d3 	.word	0x100102d3
1000e1d8:	100102d5 	.word	0x100102d5
1000e1dc:	100102d7 	.word	0x100102d7
	...

1000e200 <firmware_startup>:
1000e200:	4800      	ldr	r0, [pc, #0]	@ (1000e204 <firmware_startup+0x4>)
1000e202:	4780      	blx	r0
1000e204:	100101b9 	.word	0x100101b9

1000e208 <deregister_tm_clones>:
1000e208:	4803      	ldr	r0, [pc, #12]	@ (1000e218 <deregister_tm_clones+0x10>)
1000e20a:	4b04      	ldr	r3, [pc, #16]	@ (1000e21c <deregister_tm_clones+0x14>)
1000e20c:	4283      	cmp	r3, r0
1000e20e:	d002      	beq.n	1000e216 <deregister_tm_clones+0xe>
1000e210:	4b03      	ldr	r3, [pc, #12]	@ (1000e220 <deregister_tm_clones+0x18>)
1000e212:	b103      	cbz	r3, 1000e216 <deregister_tm_clones+0xe>
1000e214:	4718      	bx	r3
1000e216:	4770      	bx	lr
1000e218:	20000bc4 	.word	0x20000bc4
1000e21c:	20000bc4 	.word	0x20000bc4
1000e220:	00000000 	.word	0x00000000

1000e224 <register_tm_clones>:
1000e224:	4805      	ldr	r0, [pc, #20]	@ (1000e23c <register_tm_clones+0x18>)
1000e226:	4b06      	ldr	r3, [pc, #24]	@ (1000e240 <register_tm_clones+0x1c>)
1000e228:	1a1b      	subs	r3, r3, r0
1000e22a:	0fd9      	lsrs	r1, r3, #31
1000e22c:	eb01 01a3 	add.w	r1, r1, r3, asr #2
1000e230:	1049      	asrs	r1, r1, #1
1000e232:	d002      	beq.n	1000e23a <register_tm_clones+0x16>
1000e234:	4b03      	ldr	r3, [pc, #12]	@ (1000e244 <register_tm_clones+0x20>)
1000e236:	b103      	cbz	r3, 1000e23a <register_tm_clones+0x16>
1000e238:	4718      	bx	r3
1000e23a:	4770      	bx	lr
1000e23c:	20000bc4 	.word	0x20000bc4
1000e240:	20000bc4 	.word	0x20000bc4
1000e244:	00000000 	.word	0x00000000

1000e248 <__do_global_dtors_aux>:
1000e248:	b510      	push	{r4, lr}
1000e24a:	4c06      	ldr	r4, [pc, #24]	@ (1000e264 <__do_global_dtors_aux+0x1c>)
1000e24c:	7823      	ldrb	r3, [r4, #0]
1000e24e:	b943      	cbnz	r3, 1000e262 <__do_global_dtors_aux+0x1a>
1000e250:	f7ff ffda 	bl	1000e208 <deregister_tm_clones>
1000e254:	4b04      	ldr	r3, [pc, #16]	@ (1000e268 <__do_global_dtors_aux+0x20>)
1000e256:	b113      	cbz	r3, 1000e25e <__do_global_dtors_aux+0x16>
1000e258:	4804      	ldr	r0, [pc, #16]	@ (1000e26c <__do_global_dtors_aux+0x24>)
1000e25a:	f3af 8000 	nop.w
1000e25e:	2301      	movs	r3, #1
1000e260:	7023      	strb	r3, [r4, #0]
1000e262:	bd10      	pop	{r4, pc}
1000e264:	20000c00 	.word	0x20000c00
1000e268:	00000000 	.word	0x00000000
1000e26c:	1001a510 	.word	0x1001a510

1000e270 <frame_dummy>:
1000e270:	b508      	push	{r3, lr}
1000e272:	4b04      	ldr	r3, [pc, #16]	@ (1000e284 <frame_dummy+0x14>)
1000e274:	b11b      	cbz	r3, 1000e27e <frame_dummy+0xe>
1000e276:	4904      	ldr	r1, [pc, #16]	@ (1000e288 <frame_dummy+0x18>)
1000e278:	4804      	ldr	r0, [pc, #16]	@ (1000e28c <frame_dummy+0x1c>)
1000e27a:	f3af 8000 	nop.w
1000e27e:	e8bd 4008 	ldmia.w	sp!, {r3, lr}
1000e282:	e7cf      	b.n	1000e224 <register_tm_clones>
1000e284:	00000000 	.word	0x00000000
1000e288:	20000c04 	.word	0x20000c04
1000e28c:	1001a510 	.word	0x1001a510

1000e290 <aes_ctr_xcrypt.constprop.0>:
1000e290:	b5f0      	push	{r4, r5, r6, r7, lr}
1000e292:	f2ad 4d74 	subw	sp, sp, #1140	@ 0x474
1000e296:	f10d 0637 	add.w	r6, sp, #55	@ 0x37
1000e29a:	2300      	movs	r3, #0
1000e29c:	f026 060f 	bic.w	r6, r6, #15
1000e2a0:	460f      	mov	r7, r1
1000e2a2:	4615      	mov	r5, r2
1000e2a4:	4601      	mov	r1, r0
1000e2a6:	9300      	str	r3, [sp, #0]
1000e2a8:	2210      	movs	r2, #16
1000e2aa:	4630      	mov	r0, r6
1000e2ac:	f001 fe32 	bl	1000ff14 <wc_AesSetKey>
1000e2b0:	bb78      	cbnz	r0, 1000e312 <aes_ctr_xcrypt.constprop.0+0x82>
1000e2b2:	6838      	ldr	r0, [r7, #0]
1000e2b4:	6879      	ldr	r1, [r7, #4]
1000e2b6:	68ba      	ldr	r2, [r7, #8]
1000e2b8:	68fb      	ldr	r3, [r7, #12]
1000e2ba:	ac06      	add	r4, sp, #24
1000e2bc:	46a4      	mov	ip, r4
1000e2be:	e8ac 000f 	stmia.w	ip!, {r0, r1, r2, r3}
1000e2c2:	a902      	add	r1, sp, #8
1000e2c4:	4622      	mov	r2, r4
1000e2c6:	4630      	mov	r0, r6
1000e2c8:	f001 fe32 	bl	1000ff30 <wc_AesEncryptDirect>
1000e2cc:	f105 070c 	add.w	r7, r5, #12
1000e2d0:	1f2b      	subs	r3, r5, #4
1000e2d2:	a902      	add	r1, sp, #8
1000e2d4:	f853 0f04 	ldr.w	r0, [r3, #4]!
1000e2d8:	f851 2b04 	ldr.w	r2, [r1], #4
1000e2dc:	429f      	cmp	r7, r3
1000e2de:	ea82 0200 	eor.w	r2, r2, r0
1000e2e2:	601a      	str	r2, [r3, #0]
1000e2e4:	d1f6      	bne.n	1000e2d4 <aes_ctr_xcrypt.constprop.0+0x44>
1000e2e6:	a90a      	add	r1, sp, #40	@ 0x28
1000e2e8:	f811 3d01 	ldrb.w	r3, [r1, #-1]!
1000e2ec:	3301      	adds	r3, #1
1000e2ee:	b2db      	uxtb	r3, r3
1000e2f0:	700b      	strb	r3, [r1, #0]
1000e2f2:	b90b      	cbnz	r3, 1000e2f8 <aes_ctr_xcrypt.constprop.0+0x68>
1000e2f4:	428c      	cmp	r4, r1
1000e2f6:	d1f7      	bne.n	1000e2e8 <aes_ctr_xcrypt.constprop.0+0x58>
1000e2f8:	4622      	mov	r2, r4
1000e2fa:	a902      	add	r1, sp, #8
1000e2fc:	4630      	mov	r0, r6
1000e2fe:	f001 fe17 	bl	1000ff30 <wc_AesEncryptDirect>
1000e302:	e9d5 2304 	ldrd	r2, r3, [r5, #16]
1000e306:	e9dd 0102 	ldrd	r0, r1, [sp, #8]
1000e30a:	4042      	eors	r2, r0
1000e30c:	404b      	eors	r3, r1
1000e30e:	e9c5 2304 	strd	r2, r3, [r5, #16]
1000e312:	f20d 4d74 	addw	sp, sp, #1140	@ 0x474
1000e316:	bdf0      	pop	{r4, r5, r6, r7, pc}

1000e318 <aes_cmac.constprop.0>:
1000e318:	e92d 4ff0 	stmdb	sp!, {r4, r5, r6, r7, r8, r9, sl, fp, lr}
1000e31c:	f2ad 4dc4 	subw	sp, sp, #1220	@ 0x4c4
1000e320:	f10d 0787 	add.w	r7, sp, #135	@ 0x87
1000e324:	2300      	movs	r3, #0
1000e326:	f027 070f 	bic.w	r7, r7, #15
1000e32a:	4683      	mov	fp, r0
1000e32c:	460d      	mov	r5, r1
1000e32e:	4690      	mov	r8, r2
1000e330:	496f      	ldr	r1, [pc, #444]	@ (1000e4f0 <aes_cmac.constprop.0+0x1d8>)
1000e332:	9300      	str	r3, [sp, #0]
1000e334:	2210      	movs	r2, #16
1000e336:	4638      	mov	r0, r7
1000e338:	e9cd 3302 	strd	r3, r3, [sp, #8]
1000e33c:	e9cd 3304 	strd	r3, r3, [sp, #16]
1000e340:	f001 fde8 	bl	1000ff14 <wc_AesSetKey>
1000e344:	b130      	cbz	r0, 1000e354 <aes_cmac.constprop.0+0x3c>
1000e346:	f04f 39ff 	mov.w	r9, #4294967295	@ 0xffffffff
1000e34a:	4648      	mov	r0, r9
1000e34c:	f20d 4dc4 	addw	sp, sp, #1220	@ 0x4c4
1000e350:	e8bd 8ff0 	ldmia.w	sp!, {r4, r5, r6, r7, r8, r9, sl, fp, pc}
1000e354:	ae06      	add	r6, sp, #24
1000e356:	4681      	mov	r9, r0
1000e358:	aa02      	add	r2, sp, #8
1000e35a:	4631      	mov	r1, r6
1000e35c:	4638      	mov	r0, r7
1000e35e:	f001 fde7 	bl	1000ff30 <wc_AesEncryptDirect>
1000e362:	ac0e      	add	r4, sp, #56	@ 0x38
1000e364:	a80a      	add	r0, sp, #40	@ 0x28
1000e366:	4602      	mov	r2, r0
1000e368:	4621      	mov	r1, r4
1000e36a:	46a6      	mov	lr, r4
1000e36c:	464b      	mov	r3, r9
1000e36e:	f812 cd01 	ldrb.w	ip, [r2, #-1]!
1000e372:	ea43 034c 	orr.w	r3, r3, ip, lsl #1
1000e376:	42b2      	cmp	r2, r6
1000e378:	f80e 3d01 	strb.w	r3, [lr, #-1]!
1000e37c:	ea4f 13dc 	mov.w	r3, ip, lsr #7
1000e380:	d1f5      	bne.n	1000e36e <aes_cmac.constprop.0+0x56>
1000e382:	f992 3000 	ldrsb.w	r3, [r2]
1000e386:	2b00      	cmp	r3, #0
1000e388:	da03      	bge.n	1000e392 <aes_cmac.constprop.0+0x7a>
1000e38a:	7bc3      	ldrb	r3, [r0, #15]
1000e38c:	f083 0387 	eor.w	r3, r3, #135	@ 0x87
1000e390:	73c3      	strb	r3, [r0, #15]
1000e392:	ae12      	add	r6, sp, #72	@ 0x48
1000e394:	2300      	movs	r3, #0
1000e396:	f811 2d01 	ldrb.w	r2, [r1, #-1]!
1000e39a:	ea43 0342 	orr.w	r3, r3, r2, lsl #1
1000e39e:	4281      	cmp	r1, r0
1000e3a0:	f806 3d01 	strb.w	r3, [r6, #-1]!
1000e3a4:	ea4f 13d2 	mov.w	r3, r2, lsr #7
1000e3a8:	d1f5      	bne.n	1000e396 <aes_cmac.constprop.0+0x7e>
1000e3aa:	f990 3000 	ldrsb.w	r3, [r0]
1000e3ae:	2b00      	cmp	r3, #0
1000e3b0:	da03      	bge.n	1000e3ba <aes_cmac.constprop.0+0xa2>
1000e3b2:	7be3      	ldrb	r3, [r4, #15]
1000e3b4:	f083 0387 	eor.w	r3, r3, #135	@ 0x87
1000e3b8:	73e3      	strb	r3, [r4, #15]
1000e3ba:	f015 0a0f 	ands.w	sl, r5, #15
1000e3be:	d06e      	beq.n	1000e49e <aes_cmac.constprop.0+0x186>
1000e3c0:	350f      	adds	r5, #15
1000e3c2:	092e      	lsrs	r6, r5, #4
1000e3c4:	2300      	movs	r3, #0
1000e3c6:	ad1a      	add	r5, sp, #104	@ 0x68
1000e3c8:	1e71      	subs	r1, r6, #1
1000e3ca:	e9c5 3300 	strd	r3, r3, [r5]
1000e3ce:	e9c5 3302 	strd	r3, r3, [r5, #8]
1000e3d2:	eb0b 1101 	add.w	r1, fp, r1, lsl #4
1000e3d6:	4652      	mov	r2, sl
1000e3d8:	4628      	mov	r0, r5
1000e3da:	e9cd 3312 	strd	r3, r3, [sp, #72]	@ 0x48
1000e3de:	e9cd 3314 	strd	r3, r3, [sp, #80]	@ 0x50
1000e3e2:	f003 fb7d 	bl	10011ae0 <memcpy>
1000e3e6:	2380      	movs	r3, #128	@ 0x80
1000e3e8:	f805 300a 	strb.w	r3, [r5, sl]
1000e3ec:	4620      	mov	r0, r4
1000e3ee:	4629      	mov	r1, r5
1000e3f0:	aa12      	add	r2, sp, #72	@ 0x48
1000e3f2:	ac16      	add	r4, sp, #88	@ 0x58
1000e3f4:	f851 3b04 	ldr.w	r3, [r1], #4
1000e3f8:	f850 cb04 	ldr.w	ip, [r0], #4
1000e3fc:	ea83 030c 	eor.w	r3, r3, ip
1000e400:	f842 3b04 	str.w	r3, [r2], #4
1000e404:	42a2      	cmp	r2, r4
1000e406:	d1f5      	bne.n	1000e3f4 <aes_cmac.constprop.0+0xdc>
1000e408:	2300      	movs	r3, #0
1000e40a:	4939      	ldr	r1, [pc, #228]	@ (1000e4f0 <aes_cmac.constprop.0+0x1d8>)
1000e40c:	9300      	str	r3, [sp, #0]
1000e40e:	2210      	movs	r2, #16
1000e410:	4638      	mov	r0, r7
1000e412:	f001 fd7f 	bl	1000ff14 <wc_AesSetKey>
1000e416:	2800      	cmp	r0, #0
1000e418:	d195      	bne.n	1000e346 <aes_cmac.constprop.0+0x2e>
1000e41a:	2e01      	cmp	r6, #1
1000e41c:	e9c4 0000 	strd	r0, r0, [r4]
1000e420:	e9c4 0002 	strd	r0, r0, [r4, #8]
1000e424:	d01a      	beq.n	1000e45c <aes_cmac.constprop.0+0x144>
1000e426:	f10b 0a10 	add.w	sl, fp, #16
1000e42a:	eb0b 1606 	add.w	r6, fp, r6, lsl #4
1000e42e:	f1aa 0210 	sub.w	r2, sl, #16
1000e432:	4620      	mov	r0, r4
1000e434:	4629      	mov	r1, r5
1000e436:	f852 3b04 	ldr.w	r3, [r2], #4
1000e43a:	f850 cb04 	ldr.w	ip, [r0], #4
1000e43e:	4552      	cmp	r2, sl
1000e440:	ea83 030c 	eor.w	r3, r3, ip
1000e444:	f841 3b04 	str.w	r3, [r1], #4
1000e448:	d1f5      	bne.n	1000e436 <aes_cmac.constprop.0+0x11e>
1000e44a:	462a      	mov	r2, r5
1000e44c:	4621      	mov	r1, r4
1000e44e:	4638      	mov	r0, r7
1000e450:	f10a 0a10 	add.w	sl, sl, #16
1000e454:	f001 fd6c 	bl	1000ff30 <wc_AesEncryptDirect>
1000e458:	4556      	cmp	r6, sl
1000e45a:	d1e8      	bne.n	1000e42e <aes_cmac.constprop.0+0x116>
1000e45c:	a812      	add	r0, sp, #72	@ 0x48
1000e45e:	4621      	mov	r1, r4
1000e460:	462a      	mov	r2, r5
1000e462:	f10d 0c78 	add.w	ip, sp, #120	@ 0x78
1000e466:	f851 3b04 	ldr.w	r3, [r1], #4
1000e46a:	f850 6b04 	ldr.w	r6, [r0], #4
1000e46e:	4073      	eors	r3, r6
1000e470:	f842 3b04 	str.w	r3, [r2], #4
1000e474:	4562      	cmp	r2, ip
1000e476:	d1f6      	bne.n	1000e466 <aes_cmac.constprop.0+0x14e>
1000e478:	462a      	mov	r2, r5
1000e47a:	4638      	mov	r0, r7
1000e47c:	4621      	mov	r1, r4
1000e47e:	f001 fd57 	bl	1000ff30 <wc_AesEncryptDirect>
1000e482:	cc0f      	ldmia	r4!, {r0, r1, r2, r3}
1000e484:	f8c8 0000 	str.w	r0, [r8]
1000e488:	4648      	mov	r0, r9
1000e48a:	f8c8 1004 	str.w	r1, [r8, #4]
1000e48e:	f8c8 2008 	str.w	r2, [r8, #8]
1000e492:	f8c8 300c 	str.w	r3, [r8, #12]
1000e496:	f20d 4dc4 	addw	sp, sp, #1220	@ 0x4c4
1000e49a:	e8bd 8ff0 	ldmia.w	sp!, {r4, r5, r6, r7, r8, r9, sl, fp, pc}
1000e49e:	f8db 2018 	ldr.w	r2, [fp, #24]
1000e4a2:	f8db 1014 	ldr.w	r1, [fp, #20]
1000e4a6:	f8db 301c 	ldr.w	r3, [fp, #28]
1000e4aa:	4605      	mov	r5, r0
1000e4ac:	f8db 0010 	ldr.w	r0, [fp, #16]
1000e4b0:	ae12      	add	r6, sp, #72	@ 0x48
1000e4b2:	c60f      	stmia	r6!, {r0, r1, r2, r3}
1000e4b4:	f10b 0a10 	add.w	sl, fp, #16
1000e4b8:	aa12      	add	r2, sp, #72	@ 0x48
1000e4ba:	f855 1b04 	ldr.w	r1, [r5], #4
1000e4be:	6813      	ldr	r3, [r2, #0]
1000e4c0:	42a5      	cmp	r5, r4
1000e4c2:	ea83 0301 	eor.w	r3, r3, r1
1000e4c6:	f842 3b04 	str.w	r3, [r2], #4
1000e4ca:	d1f6      	bne.n	1000e4ba <aes_cmac.constprop.0+0x1a2>
1000e4cc:	2300      	movs	r3, #0
1000e4ce:	4908      	ldr	r1, [pc, #32]	@ (1000e4f0 <aes_cmac.constprop.0+0x1d8>)
1000e4d0:	9300      	str	r3, [sp, #0]
1000e4d2:	2210      	movs	r2, #16
1000e4d4:	4638      	mov	r0, r7
1000e4d6:	f001 fd1d 	bl	1000ff14 <wc_AesSetKey>
1000e4da:	2800      	cmp	r0, #0
1000e4dc:	f47f af33 	bne.w	1000e346 <aes_cmac.constprop.0+0x2e>
1000e4e0:	ac16      	add	r4, sp, #88	@ 0x58
1000e4e2:	e9c4 0000 	strd	r0, r0, [r4]
1000e4e6:	e9c4 0002 	strd	r0, r0, [r4, #8]
1000e4ea:	2602      	movs	r6, #2
1000e4ec:	ad1a      	add	r5, sp, #104	@ 0x68
1000e4ee:	e79c      	b.n	1000e42a <aes_cmac.constprop.0+0x112>
1000e4f0:	20000c2c 	.word	0x20000c2c

1000e4f4 <decode>:
1000e4f4:	e92d 43f0 	stmdb	sp!, {r4, r5, r6, r7, r8, r9, lr}
1000e4f8:	4605      	mov	r5, r0
1000e4fa:	4f5b      	ldr	r7, [pc, #364]	@ (1000e668 <decode+0x174>)
1000e4fc:	485b      	ldr	r0, [pc, #364]	@ (1000e66c <decode+0x178>)
1000e4fe:	b091      	sub	sp, #68	@ 0x44
1000e500:	460c      	mov	r4, r1
1000e502:	4629      	mov	r1, r5
1000e504:	f004 f936 	bl	10012774 <printf>
1000e508:	683b      	ldr	r3, [r7, #0]
1000e50a:	6898      	ldr	r0, [r3, #8]
1000e50c:	f003 f860 	bl	100115d0 <fflush>
1000e510:	2d5f      	cmp	r5, #95	@ 0x5f
1000e512:	d975      	bls.n	1000e600 <decode+0x10c>
1000e514:	68e3      	ldr	r3, [r4, #12]
1000e516:	6825      	ldr	r5, [r4, #0]
1000e518:	6866      	ldr	r6, [r4, #4]
1000e51a:	9300      	str	r3, [sp, #0]
1000e51c:	6922      	ldr	r2, [r4, #16]
1000e51e:	68a3      	ldr	r3, [r4, #8]
1000e520:	4853      	ldr	r0, [pc, #332]	@ (1000e670 <decode+0x17c>)
1000e522:	9201      	str	r2, [sp, #4]
1000e524:	4629      	mov	r1, r5
1000e526:	4632      	mov	r2, r6
1000e528:	f004 f924 	bl	10012774 <printf>
1000e52c:	683b      	ldr	r3, [r7, #0]
1000e52e:	6898      	ldr	r0, [r3, #8]
1000e530:	f003 f84e 	bl	100115d0 <fflush>
1000e534:	2124      	movs	r1, #36	@ 0x24
1000e536:	aa04      	add	r2, sp, #16
1000e538:	f104 0014 	add.w	r0, r4, #20
1000e53c:	fa95 f885 	rev.w	r8, r5
1000e540:	f104 0938 	add.w	r9, r4, #56	@ 0x38
1000e544:	f7ff fee8 	bl	1000e318 <aes_cmac.constprop.0>
1000e548:	2800      	cmp	r0, #0
1000e54a:	f040 8084 	bne.w	1000e656 <decode+0x162>
1000e54e:	4649      	mov	r1, r9
1000e550:	a804      	add	r0, sp, #16
1000e552:	2210      	movs	r2, #16
1000e554:	f003 fa3e 	bl	100119d4 <memcmp>
1000e558:	2800      	cmp	r0, #0
1000e55a:	d16c      	bne.n	1000e636 <decode+0x142>
1000e55c:	4845      	ldr	r0, [pc, #276]	@ (1000e674 <decode+0x180>)
1000e55e:	f003 ff6f 	bl	10012440 <puts>
1000e562:	683b      	ldr	r3, [r7, #0]
1000e564:	6898      	ldr	r0, [r3, #8]
1000e566:	f003 f833 	bl	100115d0 <fflush>
1000e56a:	2108      	movs	r1, #8
1000e56c:	aa08      	add	r2, sp, #32
1000e56e:	eb0d 0001 	add.w	r0, sp, r1
1000e572:	e9cd 5602 	strd	r5, r6, [sp, #8]
1000e576:	f7ff fecf 	bl	1000e318 <aes_cmac.constprop.0>
1000e57a:	4606      	mov	r6, r0
1000e57c:	2800      	cmp	r0, #0
1000e57e:	d162      	bne.n	1000e646 <decode+0x152>
1000e580:	483d      	ldr	r0, [pc, #244]	@ (1000e678 <decode+0x184>)
1000e582:	f003 ff5d 	bl	10012440 <puts>
1000e586:	683b      	ldr	r3, [r7, #0]
1000e588:	6898      	ldr	r0, [r3, #8]
1000e58a:	f003 f821 	bl	100115d0 <fflush>
1000e58e:	2018      	movs	r0, #24
1000e590:	f003 fa96 	bl	10011ac0 <malloc>
1000e594:	4605      	mov	r5, r0
1000e596:	2800      	cmp	r0, #0
1000e598:	d039      	beq.n	1000e60e <decode+0x11a>
1000e59a:	6d63      	ldr	r3, [r4, #84]	@ 0x54
1000e59c:	6ca0      	ldr	r0, [r4, #72]	@ 0x48
1000e59e:	6ce1      	ldr	r1, [r4, #76]	@ 0x4c
1000e5a0:	6d22      	ldr	r2, [r4, #80]	@ 0x50
1000e5a2:	f8cd 803c 	str.w	r8, [sp, #60]	@ 0x3c
1000e5a6:	46ac      	mov	ip, r5
1000e5a8:	e8ac 000f 	stmia.w	ip!, {r0, r1, r2, r3}
1000e5ac:	6da0      	ldr	r0, [r4, #88]	@ 0x58
1000e5ae:	6de1      	ldr	r1, [r4, #92]	@ 0x5c
1000e5b0:	960e      	str	r6, [sp, #56]	@ 0x38
1000e5b2:	e8ac 0003 	stmia.w	ip!, {r0, r1}
1000e5b6:	462a      	mov	r2, r5
1000e5b8:	a90c      	add	r1, sp, #48	@ 0x30
1000e5ba:	a808      	add	r0, sp, #32
1000e5bc:	e9cd 660c 	strd	r6, r6, [sp, #48]	@ 0x30
1000e5c0:	f7ff fe66 	bl	1000e290 <aes_ctr_xcrypt.constprop.0>
1000e5c4:	2008      	movs	r0, #8
1000e5c6:	f003 fa7b 	bl	10011ac0 <malloc>
1000e5ca:	4604      	mov	r4, r0
1000e5cc:	e895 0003 	ldmia.w	r5, {r0, r1}
1000e5d0:	e884 0003 	stmia.w	r4, {r0, r1}
1000e5d4:	4628      	mov	r0, r5
1000e5d6:	f003 fa7b 	bl	10011ad0 <free>
1000e5da:	4828      	ldr	r0, [pc, #160]	@ (1000e67c <decode+0x188>)
1000e5dc:	f003 ff30 	bl	10012440 <puts>
1000e5e0:	683b      	ldr	r3, [r7, #0]
1000e5e2:	6898      	ldr	r0, [r3, #8]
1000e5e4:	f002 fff4 	bl	100115d0 <fflush>
1000e5e8:	2208      	movs	r2, #8
1000e5ea:	2044      	movs	r0, #68	@ 0x44
1000e5ec:	4621      	mov	r1, r4
1000e5ee:	f000 fa5d 	bl	1000eaac <write_packet>
1000e5f2:	4620      	mov	r0, r4
1000e5f4:	f003 fa6c 	bl	10011ad0 <free>
1000e5f8:	4630      	mov	r0, r6
1000e5fa:	b011      	add	sp, #68	@ 0x44
1000e5fc:	e8bd 83f0 	ldmia.w	sp!, {r4, r5, r6, r7, r8, r9, pc}
1000e600:	683b      	ldr	r3, [r7, #0]
1000e602:	481f      	ldr	r0, [pc, #124]	@ (1000e680 <decode+0x18c>)
1000e604:	68db      	ldr	r3, [r3, #12]
1000e606:	222d      	movs	r2, #45	@ 0x2d
1000e608:	2101      	movs	r1, #1
1000e60a:	f003 fd8d 	bl	10012128 <fwrite>
1000e60e:	2000      	movs	r0, #0
1000e610:	f001 fd96 	bl	10010140 <LED_Off>
1000e614:	2001      	movs	r0, #1
1000e616:	f001 fd93 	bl	10010140 <LED_Off>
1000e61a:	2002      	movs	r0, #2
1000e61c:	f001 fd90 	bl	10010140 <LED_Off>
1000e620:	2000      	movs	r0, #0
1000e622:	f001 fd6d 	bl	10010100 <LED_On>
1000e626:	4917      	ldr	r1, [pc, #92]	@ (1000e684 <decode+0x190>)
1000e628:	2217      	movs	r2, #23
1000e62a:	2045      	movs	r0, #69	@ 0x45
1000e62c:	f000 fa3e 	bl	1000eaac <write_packet>
1000e630:	f04f 36ff 	mov.w	r6, #4294967295	@ 0xffffffff
1000e634:	e7e0      	b.n	1000e5f8 <decode+0x104>
1000e636:	683b      	ldr	r3, [r7, #0]
1000e638:	4813      	ldr	r0, [pc, #76]	@ (1000e688 <decode+0x194>)
1000e63a:	68db      	ldr	r3, [r3, #12]
1000e63c:	223b      	movs	r2, #59	@ 0x3b
1000e63e:	2101      	movs	r1, #1
1000e640:	f003 fd72 	bl	10012128 <fwrite>
1000e644:	e7e3      	b.n	1000e60e <decode+0x11a>
1000e646:	683b      	ldr	r3, [r7, #0]
1000e648:	4810      	ldr	r0, [pc, #64]	@ (1000e68c <decode+0x198>)
1000e64a:	68db      	ldr	r3, [r3, #12]
1000e64c:	2234      	movs	r2, #52	@ 0x34
1000e64e:	2101      	movs	r1, #1
1000e650:	f003 fd6a 	bl	10012128 <fwrite>
1000e654:	e7db      	b.n	1000e60e <decode+0x11a>
1000e656:	683b      	ldr	r3, [r7, #0]
1000e658:	480d      	ldr	r0, [pc, #52]	@ (1000e690 <decode+0x19c>)
1000e65a:	68db      	ldr	r3, [r3, #12]
1000e65c:	2231      	movs	r2, #49	@ 0x31
1000e65e:	2101      	movs	r1, #1
1000e660:	f003 fd62 	bl	10012128 <fwrite>
1000e664:	e7d3      	b.n	1000e60e <decode+0x11a>
1000e666:	bf00      	nop
1000e668:	20000010 	.word	0x20000010
1000e66c:	10017bec 	.word	0x10017bec
1000e670:	10017c5c 	.word	0x10017c5c
1000e674:	10017d14 	.word	0x10017d14
1000e678:	10017d78 	.word	0x10017d78
1000e67c:	10017da4 	.word	0x10017da4
1000e680:	10017c2c 	.word	0x10017c2c
1000e684:	10017dc8 	.word	0x10017dc8
1000e688:	10017cd8 	.word	0x10017cd8
1000e68c:	10017d40 	.word	0x10017d40
1000e690:	10017ca4 	.word	0x10017ca4

1000e694 <list_channels>:
1000e694:	b530      	push	{r4, r5, lr}
1000e696:	4b1b      	ldr	r3, [pc, #108]	@ (1000e704 <list_channels+0x70>)
1000e698:	b0ab      	sub	sp, #172	@ 0xac
1000e69a:	2200      	movs	r2, #0
1000e69c:	4615      	mov	r5, r2
1000e69e:	9201      	str	r2, [sp, #4]
1000e6a0:	f103 04c0 	add.w	r4, r3, #192	@ 0xc0
1000e6a4:	4611      	mov	r1, r2
1000e6a6:	7a18      	ldrb	r0, [r3, #8]
1000e6a8:	eb01 0281 	add.w	r2, r1, r1, lsl #2
1000e6ac:	f10d 0ca8 	add.w	ip, sp, #168	@ 0xa8
1000e6b0:	eb0c 0282 	add.w	r2, ip, r2, lsl #2
1000e6b4:	b190      	cbz	r0, 1000e6dc <list_channels+0x48>
1000e6b6:	f1a2 0ea4 	sub.w	lr, r2, #164	@ 0xa4
1000e6ba:	68dd      	ldr	r5, [r3, #12]
1000e6bc:	f842 5ca0 	str.w	r5, [r2, #-160]
1000e6c0:	f1a2 0c9c 	sub.w	ip, r2, #156	@ 0x9c
1000e6c4:	695d      	ldr	r5, [r3, #20]
1000e6c6:	691a      	ldr	r2, [r3, #16]
1000e6c8:	f8ce 2008 	str.w	r2, [lr, #8]
1000e6cc:	f8ce 500c 	str.w	r5, [lr, #12]
1000e6d0:	69da      	ldr	r2, [r3, #28]
1000e6d2:	699d      	ldr	r5, [r3, #24]
1000e6d4:	3101      	adds	r1, #1
1000e6d6:	e9cc 5202 	strd	r5, r2, [ip, #8]
1000e6da:	4605      	mov	r5, r0
1000e6dc:	3318      	adds	r3, #24
1000e6de:	429c      	cmp	r4, r3
1000e6e0:	d1e1      	bne.n	1000e6a6 <list_channels+0x12>
1000e6e2:	b165      	cbz	r5, 1000e6fe <list_channels+0x6a>
1000e6e4:	eb01 0281 	add.w	r2, r1, r1, lsl #2
1000e6e8:	0092      	lsls	r2, r2, #2
1000e6ea:	3204      	adds	r2, #4
1000e6ec:	9101      	str	r1, [sp, #4]
1000e6ee:	b292      	uxth	r2, r2
1000e6f0:	a901      	add	r1, sp, #4
1000e6f2:	204c      	movs	r0, #76	@ 0x4c
1000e6f4:	f000 f9da 	bl	1000eaac <write_packet>
1000e6f8:	2000      	movs	r0, #0
1000e6fa:	b02b      	add	sp, #172	@ 0xac
1000e6fc:	bd30      	pop	{r4, r5, pc}
1000e6fe:	2204      	movs	r2, #4
1000e700:	e7f6      	b.n	1000e6f0 <list_channels+0x5c>
1000e702:	bf00      	nop
1000e704:	20000c50 	.word	0x20000c50

1000e708 <update_subscription>:
1000e708:	b538      	push	{r3, r4, r5, lr}
1000e70a:	694c      	ldr	r4, [r1, #20]
1000e70c:	2c00      	cmp	r4, #0
1000e70e:	d044      	beq.n	1000e79a <update_subscription+0x92>
1000e710:	4d2b      	ldr	r5, [pc, #172]	@ (1000e7c0 <update_subscription+0xb8>)
1000e712:	2300      	movs	r3, #0
1000e714:	462a      	mov	r2, r5
1000e716:	7a10      	ldrb	r0, [r2, #8]
1000e718:	b1d8      	cbz	r0, 1000e752 <update_subscription+0x4a>
1000e71a:	68d0      	ldr	r0, [r2, #12]
1000e71c:	4284      	cmp	r4, r0
1000e71e:	f102 0218 	add.w	r2, r2, #24
1000e722:	d016      	beq.n	1000e752 <update_subscription+0x4a>
1000e724:	3301      	adds	r3, #1
1000e726:	2b08      	cmp	r3, #8
1000e728:	d1f5      	bne.n	1000e716 <update_subscription+0xe>
1000e72a:	2000      	movs	r0, #0
1000e72c:	f001 fd08 	bl	10010140 <LED_Off>
1000e730:	2001      	movs	r0, #1
1000e732:	f001 fd05 	bl	10010140 <LED_Off>
1000e736:	2002      	movs	r0, #2
1000e738:	f001 fd02 	bl	10010140 <LED_Off>
1000e73c:	2000      	movs	r0, #0
1000e73e:	f001 fcdf 	bl	10010100 <LED_On>
1000e742:	4920      	ldr	r1, [pc, #128]	@ (1000e7c4 <update_subscription+0xbc>)
1000e744:	221a      	movs	r2, #26
1000e746:	2045      	movs	r0, #69	@ 0x45
1000e748:	f000 f9b0 	bl	1000eaac <write_packet>
1000e74c:	f04f 30ff 	mov.w	r0, #4294967295	@ 0xffffffff
1000e750:	bd38      	pop	{r3, r4, r5, pc}
1000e752:	eb03 0243 	add.w	r2, r3, r3, lsl #1
1000e756:	eb05 02c2 	add.w	r2, r5, r2, lsl #3
1000e75a:	6848      	ldr	r0, [r1, #4]
1000e75c:	60d4      	str	r4, [r2, #12]
1000e75e:	2401      	movs	r4, #1
1000e760:	7214      	strb	r4, [r2, #8]
1000e762:	688c      	ldr	r4, [r1, #8]
1000e764:	e9c2 0404 	strd	r0, r4, [r2, #16]
1000e768:	3301      	adds	r3, #1
1000e76a:	eb03 0343 	add.w	r3, r3, r3, lsl #1
1000e76e:	eb05 02c3 	add.w	r2, r5, r3, lsl #3
1000e772:	68c8      	ldr	r0, [r1, #12]
1000e774:	6909      	ldr	r1, [r1, #16]
1000e776:	f845 0033 	str.w	r0, [r5, r3, lsl #3]
1000e77a:	4813      	ldr	r0, [pc, #76]	@ (1000e7c8 <update_subscription+0xc0>)
1000e77c:	6051      	str	r1, [r2, #4]
1000e77e:	f000 fa57 	bl	1000ec30 <flash_simple_erase_page>
1000e782:	490f      	ldr	r1, [pc, #60]	@ (1000e7c0 <update_subscription+0xb8>)
1000e784:	4810      	ldr	r0, [pc, #64]	@ (1000e7c8 <update_subscription+0xc0>)
1000e786:	22c8      	movs	r2, #200	@ 0xc8
1000e788:	f000 fa56 	bl	1000ec38 <flash_simple_write>
1000e78c:	2200      	movs	r2, #0
1000e78e:	4611      	mov	r1, r2
1000e790:	2053      	movs	r0, #83	@ 0x53
1000e792:	f000 f98b 	bl	1000eaac <write_packet>
1000e796:	2000      	movs	r0, #0
1000e798:	bd38      	pop	{r3, r4, r5, pc}
1000e79a:	4620      	mov	r0, r4
1000e79c:	f001 fcd0 	bl	10010140 <LED_Off>
1000e7a0:	2001      	movs	r0, #1
1000e7a2:	f001 fccd 	bl	10010140 <LED_Off>
1000e7a6:	2002      	movs	r0, #2
1000e7a8:	f001 fcca 	bl	10010140 <LED_Off>
1000e7ac:	4620      	mov	r0, r4
1000e7ae:	f001 fca7 	bl	10010100 <LED_On>
1000e7b2:	4906      	ldr	r1, [pc, #24]	@ (1000e7cc <update_subscription+0xc4>)
1000e7b4:	2226      	movs	r2, #38	@ 0x26
1000e7b6:	2045      	movs	r0, #69	@ 0x45
1000e7b8:	f000 f978 	bl	1000eaac <write_packet>
1000e7bc:	e7c6      	b.n	1000e74c <update_subscription+0x44>
1000e7be:	bf00      	nop
1000e7c0:	20000c50 	.word	0x20000c50
1000e7c4:	10017e2c 	.word	0x10017e2c
1000e7c8:	1007c000 	.word	0x1007c000
1000e7cc:	10017e04 	.word	0x10017e04

1000e7d0 <init>:
1000e7d0:	b538      	push	{r3, r4, r5, lr}
1000e7d2:	4c27      	ldr	r4, [pc, #156]	@ (1000e870 <init+0xa0>)
1000e7d4:	4d27      	ldr	r5, [pc, #156]	@ (1000e874 <init+0xa4>)
1000e7d6:	f000 fa13 	bl	1000ec00 <flash_simple_init>
1000e7da:	4827      	ldr	r0, [pc, #156]	@ (1000e878 <init+0xa8>)
1000e7dc:	22c8      	movs	r2, #200	@ 0xc8
1000e7de:	4621      	mov	r1, r4
1000e7e0:	f000 fa28 	bl	1000ec34 <flash_simple_read>
1000e7e4:	6823      	ldr	r3, [r4, #0]
1000e7e6:	42ab      	cmp	r3, r5
1000e7e8:	d111      	bne.n	1000e80e <init+0x3e>
1000e7ea:	f000 fa2b 	bl	1000ec44 <uart_init>
1000e7ee:	2800      	cmp	r0, #0
1000e7f0:	db30      	blt.n	1000e854 <init+0x84>
1000e7f2:	4b22      	ldr	r3, [pc, #136]	@ (1000e87c <init+0xac>)
1000e7f4:	4822      	ldr	r0, [pc, #136]	@ (1000e880 <init+0xb0>)
1000e7f6:	f04f 34ab 	mov.w	r4, #2880154539	@ 0xabababab
1000e7fa:	e9c3 4400 	strd	r4, r4, [r3]
1000e7fe:	e9c3 4402 	strd	r4, r4, [r3, #8]
1000e802:	2220      	movs	r2, #32
1000e804:	e8bd 4038 	ldmia.w	sp!, {r3, r4, r5, lr}
1000e808:	21cd      	movs	r1, #205	@ 0xcd
1000e80a:	f002 bde5 	b.w	100113d8 <memset>
1000e80e:	491d      	ldr	r1, [pc, #116]	@ (1000e884 <init+0xb4>)
1000e810:	221d      	movs	r2, #29
1000e812:	2047      	movs	r0, #71	@ 0x47
1000e814:	f000 f94a 	bl	1000eaac <write_packet>
1000e818:	f04f 0c00 	mov.w	ip, #0
1000e81c:	f04f 30ff 	mov.w	r0, #4294967295	@ 0xffffffff
1000e820:	f04f 31ff 	mov.w	r1, #4294967295	@ 0xffffffff
1000e824:	4623      	mov	r3, r4
1000e826:	6025      	str	r5, [r4, #0]
1000e828:	f104 02c0 	add.w	r2, r4, #192	@ 0xc0
1000e82c:	e9c3 0104 	strd	r0, r1, [r3, #16]
1000e830:	f883 c008 	strb.w	ip, [r3, #8]
1000e834:	e9e3 0106 	strd	r0, r1, [r3, #24]!
1000e838:	4293      	cmp	r3, r2
1000e83a:	d1f7      	bne.n	1000e82c <init+0x5c>
1000e83c:	480e      	ldr	r0, [pc, #56]	@ (1000e878 <init+0xa8>)
1000e83e:	f000 f9f7 	bl	1000ec30 <flash_simple_erase_page>
1000e842:	490b      	ldr	r1, [pc, #44]	@ (1000e870 <init+0xa0>)
1000e844:	480c      	ldr	r0, [pc, #48]	@ (1000e878 <init+0xa8>)
1000e846:	22c8      	movs	r2, #200	@ 0xc8
1000e848:	f000 f9f6 	bl	1000ec38 <flash_simple_write>
1000e84c:	f000 f9fa 	bl	1000ec44 <uart_init>
1000e850:	2800      	cmp	r0, #0
1000e852:	dace      	bge.n	1000e7f2 <init+0x22>
1000e854:	2000      	movs	r0, #0
1000e856:	f001 fc73 	bl	10010140 <LED_Off>
1000e85a:	2001      	movs	r0, #1
1000e85c:	f001 fc70 	bl	10010140 <LED_Off>
1000e860:	2002      	movs	r0, #2
1000e862:	f001 fc6d 	bl	10010140 <LED_Off>
1000e866:	2000      	movs	r0, #0
1000e868:	f001 fc4a 	bl	10010100 <LED_On>
1000e86c:	e7fe      	b.n	1000e86c <init+0x9c>
1000e86e:	bf00      	nop
1000e870:	20000c50 	.word	0x20000c50
1000e874:	deadbeef 	.word	0xdeadbeef
1000e878:	1007c000 	.word	0x1007c000
1000e87c:	20000c1c 	.word	0x20000c1c
1000e880:	20000c2c 	.word	0x20000c2c
1000e884:	10017e48 	.word	0x10017e48

1000e888 <main>:
1000e888:	b530      	push	{r4, r5, lr}
1000e88a:	f2ad 4d0c 	subw	sp, sp, #1036	@ 0x40c
1000e88e:	f7ff ff9f 	bl	1000e7d0 <init>
1000e892:	4947      	ldr	r1, [pc, #284]	@ (1000e9b0 <main+0x128>)
1000e894:	4c47      	ldr	r4, [pc, #284]	@ (1000e9b4 <main+0x12c>)
1000e896:	4d48      	ldr	r5, [pc, #288]	@ (1000e9b8 <main+0x130>)
1000e898:	2210      	movs	r2, #16
1000e89a:	2047      	movs	r0, #71	@ 0x47
1000e89c:	f000 f906 	bl	1000eaac <write_packet>
1000e8a0:	2206      	movs	r2, #6
1000e8a2:	4621      	mov	r1, r4
1000e8a4:	2047      	movs	r0, #71	@ 0x47
1000e8a6:	f000 f901 	bl	1000eaac <write_packet>
1000e8aa:	2000      	movs	r0, #0
1000e8ac:	f001 fc48 	bl	10010140 <LED_Off>
1000e8b0:	2001      	movs	r0, #1
1000e8b2:	f001 fc45 	bl	10010140 <LED_Off>
1000e8b6:	2002      	movs	r0, #2
1000e8b8:	f001 fc42 	bl	10010140 <LED_Off>
1000e8bc:	2001      	movs	r0, #1
1000e8be:	f001 fc1f 	bl	10010100 <LED_On>
1000e8c2:	f10d 0206 	add.w	r2, sp, #6
1000e8c6:	a902      	add	r1, sp, #8
1000e8c8:	f10d 0005 	add.w	r0, sp, #5
1000e8cc:	f000 f92c 	bl	1000eb28 <read_packet>
1000e8d0:	4603      	mov	r3, r0
1000e8d2:	2000      	movs	r0, #0
1000e8d4:	4283      	cmp	r3, r0
1000e8d6:	db1b      	blt.n	1000e910 <main+0x88>
1000e8d8:	f89d 3005 	ldrb.w	r3, [sp, #5]
1000e8dc:	2b4c      	cmp	r3, #76	@ 0x4c
1000e8de:	f04f 0000 	mov.w	r0, #0
1000e8e2:	d04e      	beq.n	1000e982 <main+0xfa>
1000e8e4:	2b53      	cmp	r3, #83	@ 0x53
1000e8e6:	d038      	beq.n	1000e95a <main+0xd2>
1000e8e8:	2b44      	cmp	r3, #68	@ 0x44
1000e8ea:	d022      	beq.n	1000e932 <main+0xaa>
1000e8ec:	2000      	movs	r0, #0
1000e8ee:	f001 fc27 	bl	10010140 <LED_Off>
1000e8f2:	2001      	movs	r0, #1
1000e8f4:	f001 fc24 	bl	10010140 <LED_Off>
1000e8f8:	2002      	movs	r0, #2
1000e8fa:	f001 fc21 	bl	10010140 <LED_Off>
1000e8fe:	2000      	movs	r0, #0
1000e900:	f001 fbfe 	bl	10010100 <LED_On>
1000e904:	492d      	ldr	r1, [pc, #180]	@ (1000e9bc <main+0x134>)
1000e906:	2210      	movs	r2, #16
1000e908:	2045      	movs	r0, #69	@ 0x45
1000e90a:	f000 f8cf 	bl	1000eaac <write_packet>
1000e90e:	e7c7      	b.n	1000e8a0 <main+0x18>
1000e910:	f001 fc16 	bl	10010140 <LED_Off>
1000e914:	2001      	movs	r0, #1
1000e916:	f001 fc13 	bl	10010140 <LED_Off>
1000e91a:	2002      	movs	r0, #2
1000e91c:	f001 fc10 	bl	10010140 <LED_Off>
1000e920:	2000      	movs	r0, #0
1000e922:	f001 fbed 	bl	10010100 <LED_On>
1000e926:	4926      	ldr	r1, [pc, #152]	@ (1000e9c0 <main+0x138>)
1000e928:	2220      	movs	r2, #32
1000e92a:	2045      	movs	r0, #69	@ 0x45
1000e92c:	f000 f8be 	bl	1000eaac <write_packet>
1000e930:	e7b6      	b.n	1000e8a0 <main+0x18>
1000e932:	f001 fc05 	bl	10010140 <LED_Off>
1000e936:	2001      	movs	r0, #1
1000e938:	f001 fc02 	bl	10010140 <LED_Off>
1000e93c:	2002      	movs	r0, #2
1000e93e:	f001 fbff 	bl	10010140 <LED_Off>
1000e942:	2000      	movs	r0, #0
1000e944:	f001 fbdc 	bl	10010100 <LED_On>
1000e948:	2002      	movs	r0, #2
1000e94a:	f001 fbd9 	bl	10010100 <LED_On>
1000e94e:	f8bd 0006 	ldrh.w	r0, [sp, #6]
1000e952:	a902      	add	r1, sp, #8
1000e954:	f7ff fdce 	bl	1000e4f4 <decode>
1000e958:	e7a2      	b.n	1000e8a0 <main+0x18>
1000e95a:	f001 fbf1 	bl	10010140 <LED_Off>
1000e95e:	2001      	movs	r0, #1
1000e960:	f001 fbee 	bl	10010140 <LED_Off>
1000e964:	2002      	movs	r0, #2
1000e966:	f001 fbeb 	bl	10010140 <LED_Off>
1000e96a:	2000      	movs	r0, #0
1000e96c:	f001 fbc8 	bl	10010100 <LED_On>
1000e970:	2001      	movs	r0, #1
1000e972:	f001 fbc5 	bl	10010100 <LED_On>
1000e976:	f8bd 0006 	ldrh.w	r0, [sp, #6]
1000e97a:	a902      	add	r1, sp, #8
1000e97c:	f7ff fec4 	bl	1000e708 <update_subscription>
1000e980:	e78e      	b.n	1000e8a0 <main+0x18>
1000e982:	f001 fbdd 	bl	10010140 <LED_Off>
1000e986:	2001      	movs	r0, #1
1000e988:	f001 fbda 	bl	10010140 <LED_Off>
1000e98c:	2002      	movs	r0, #2
1000e98e:	f001 fbd7 	bl	10010140 <LED_Off>
1000e992:	2001      	movs	r0, #1
1000e994:	f001 fbb4 	bl	10010100 <LED_On>
1000e998:	2002      	movs	r0, #2
1000e99a:	f001 fbb1 	bl	10010100 <LED_On>
1000e99e:	2223      	movs	r2, #35	@ 0x23
1000e9a0:	4629      	mov	r1, r5
1000e9a2:	2047      	movs	r0, #71	@ 0x47
1000e9a4:	f000 f882 	bl	1000eaac <write_packet>
1000e9a8:	f7ff fe74 	bl	1000e694 <list_channels>
1000e9ac:	e778      	b.n	1000e8a0 <main+0x18>
1000e9ae:	bf00      	nop
1000e9b0:	10017e68 	.word	0x10017e68
1000e9b4:	10017e7c 	.word	0x10017e7c
1000e9b8:	10017de0 	.word	0x10017de0
1000e9bc:	10017ea8 	.word	0x10017ea8
1000e9c0:	10017e84 	.word	0x10017e84

1000e9c4 <read_bytes>:
1000e9c4:	b381      	cbz	r1, 1000ea28 <read_bytes+0x64>
1000e9c6:	e92d 47f0 	stmdb	sp!, {r4, r5, r6, r7, r8, r9, sl, lr}
1000e9ca:	f8df 8060 	ldr.w	r8, [pc, #96]	@ 1000ea2c <read_bytes+0x68>
1000e9ce:	b082      	sub	sp, #8
1000e9d0:	460f      	mov	r7, r1
1000e9d2:	1e45      	subs	r5, r0, #1
1000e9d4:	2400      	movs	r4, #0
1000e9d6:	f244 1925 	movw	r9, #16677	@ 0x4125
1000e9da:	ae02      	add	r6, sp, #8
1000e9dc:	f000 f948 	bl	1000ec70 <uart_readbyte>
1000e9e0:	2800      	cmp	r0, #0
1000e9e2:	db1a      	blt.n	1000ea1a <read_bytes+0x56>
1000e9e4:	3401      	adds	r4, #1
1000e9e6:	42bc      	cmp	r4, r7
1000e9e8:	f805 0f01 	strb.w	r0, [r5, #1]!
1000e9ec:	d018      	beq.n	1000ea20 <read_bytes+0x5c>
1000e9ee:	b2e3      	uxtb	r3, r4
1000e9f0:	2b00      	cmp	r3, #0
1000e9f2:	d1f3      	bne.n	1000e9dc <read_bytes+0x18>
1000e9f4:	f8cd 9004 	str.w	r9, [sp, #4]
1000e9f8:	f10d 0a04 	add.w	sl, sp, #4
1000e9fc:	f81a 0b01 	ldrb.w	r0, [sl], #1
1000ea00:	f000 f93c 	bl	1000ec7c <uart_writebyte>
1000ea04:	45b2      	cmp	sl, r6
1000ea06:	d1f9      	bne.n	1000e9fc <read_bytes+0x38>
1000ea08:	f8d8 3000 	ldr.w	r3, [r8]
1000ea0c:	6898      	ldr	r0, [r3, #8]
1000ea0e:	f002 fddf 	bl	100115d0 <fflush>
1000ea12:	f000 f92d 	bl	1000ec70 <uart_readbyte>
1000ea16:	2800      	cmp	r0, #0
1000ea18:	dae4      	bge.n	1000e9e4 <read_bytes+0x20>
1000ea1a:	b002      	add	sp, #8
1000ea1c:	e8bd 87f0 	ldmia.w	sp!, {r4, r5, r6, r7, r8, r9, sl, pc}
1000ea20:	2000      	movs	r0, #0
1000ea22:	b002      	add	sp, #8
1000ea24:	e8bd 87f0 	ldmia.w	sp!, {r4, r5, r6, r7, r8, r9, sl, pc}
1000ea28:	2000      	movs	r0, #0
1000ea2a:	4770      	bx	lr
1000ea2c:	20000010 	.word	0x20000010

1000ea30 <read_ack>:
1000ea30:	b500      	push	{lr}
1000ea32:	b083      	sub	sp, #12
1000ea34:	2300      	movs	r3, #0
1000ea36:	9301      	str	r3, [sp, #4]
1000ea38:	f000 f91a 	bl	1000ec70 <uart_readbyte>
1000ea3c:	b2c0      	uxtb	r0, r0
1000ea3e:	2825      	cmp	r0, #37	@ 0x25
1000ea40:	f88d 0004 	strb.w	r0, [sp, #4]
1000ea44:	d1f8      	bne.n	1000ea38 <read_ack+0x8>
1000ea46:	f000 f913 	bl	1000ec70 <uart_readbyte>
1000ea4a:	2102      	movs	r1, #2
1000ea4c:	4603      	mov	r3, r0
1000ea4e:	f10d 0006 	add.w	r0, sp, #6
1000ea52:	f88d 3005 	strb.w	r3, [sp, #5]
1000ea56:	f7ff ffb5 	bl	1000e9c4 <read_bytes>
1000ea5a:	f89d 0005 	ldrb.w	r0, [sp, #5]
1000ea5e:	3841      	subs	r0, #65	@ 0x41
1000ea60:	bf18      	it	ne
1000ea62:	f04f 30ff 	movne.w	r0, #4294967295	@ 0xffffffff
1000ea66:	b2c0      	uxtb	r0, r0
1000ea68:	b003      	add	sp, #12
1000ea6a:	f85d fb04 	ldr.w	pc, [sp], #4
1000ea6e:	bf00      	nop

1000ea70 <write_bytes>:
1000ea70:	b5f8      	push	{r3, r4, r5, r6, r7, lr}
1000ea72:	b191      	cbz	r1, 1000ea9a <write_bytes+0x2a>
1000ea74:	4617      	mov	r7, r2
1000ea76:	460e      	mov	r6, r1
1000ea78:	1e45      	subs	r5, r0, #1
1000ea7a:	2400      	movs	r4, #0
1000ea7c:	3401      	adds	r4, #1
1000ea7e:	f815 0f01 	ldrb.w	r0, [r5, #1]!
1000ea82:	f000 f8fb 	bl	1000ec7c <uart_writebyte>
1000ea86:	42b4      	cmp	r4, r6
1000ea88:	b2e3      	uxtb	r3, r4
1000ea8a:	d006      	beq.n	1000ea9a <write_bytes+0x2a>
1000ea8c:	2b00      	cmp	r3, #0
1000ea8e:	d1f5      	bne.n	1000ea7c <write_bytes+0xc>
1000ea90:	2f00      	cmp	r7, #0
1000ea92:	d0f3      	beq.n	1000ea7c <write_bytes+0xc>
1000ea94:	f7ff ffcc 	bl	1000ea30 <read_ack>
1000ea98:	e7f0      	b.n	1000ea7c <write_bytes+0xc>
1000ea9a:	4b03      	ldr	r3, [pc, #12]	@ (1000eaa8 <write_bytes+0x38>)
1000ea9c:	681b      	ldr	r3, [r3, #0]
1000ea9e:	6898      	ldr	r0, [r3, #8]
1000eaa0:	f002 fd96 	bl	100115d0 <fflush>
1000eaa4:	2000      	movs	r0, #0
1000eaa6:	bdf8      	pop	{r3, r4, r5, r6, r7, pc}
1000eaa8:	20000010 	.word	0x20000010

1000eaac <write_packet>:
1000eaac:	e92d 41f0 	stmdb	sp!, {r4, r5, r6, r7, r8, lr}
1000eab0:	b082      	sub	sp, #8
1000eab2:	2325      	movs	r3, #37	@ 0x25
1000eab4:	4606      	mov	r6, r0
1000eab6:	4617      	mov	r7, r2
1000eab8:	4688      	mov	r8, r1
1000eaba:	f88d 3004 	strb.w	r3, [sp, #4]
1000eabe:	f88d 0005 	strb.w	r0, [sp, #5]
1000eac2:	f8ad 2006 	strh.w	r2, [sp, #6]
1000eac6:	ac01      	add	r4, sp, #4
1000eac8:	ad02      	add	r5, sp, #8
1000eaca:	f814 0b01 	ldrb.w	r0, [r4], #1
1000eace:	f000 f8d5 	bl	1000ec7c <uart_writebyte>
1000ead2:	42ac      	cmp	r4, r5
1000ead4:	d1f9      	bne.n	1000eaca <write_packet+0x1e>
1000ead6:	4b13      	ldr	r3, [pc, #76]	@ (1000eb24 <write_packet+0x78>)
1000ead8:	681b      	ldr	r3, [r3, #0]
1000eada:	6898      	ldr	r0, [r3, #8]
1000eadc:	f002 fd78 	bl	100115d0 <fflush>
1000eae0:	2e41      	cmp	r6, #65	@ 0x41
1000eae2:	d002      	beq.n	1000eaea <write_packet+0x3e>
1000eae4:	2e47      	cmp	r6, #71	@ 0x47
1000eae6:	d104      	bne.n	1000eaf2 <write_packet+0x46>
1000eae8:	b997      	cbnz	r7, 1000eb10 <write_packet+0x64>
1000eaea:	2000      	movs	r0, #0
1000eaec:	b002      	add	sp, #8
1000eaee:	e8bd 81f0 	ldmia.w	sp!, {r4, r5, r6, r7, r8, pc}
1000eaf2:	f7ff ff9d 	bl	1000ea30 <read_ack>
1000eaf6:	2f00      	cmp	r7, #0
1000eaf8:	d0f7      	beq.n	1000eaea <write_packet+0x3e>
1000eafa:	2201      	movs	r2, #1
1000eafc:	4639      	mov	r1, r7
1000eafe:	4640      	mov	r0, r8
1000eb00:	f7ff ffb6 	bl	1000ea70 <write_bytes>
1000eb04:	f7ff ff94 	bl	1000ea30 <read_ack>
1000eb08:	2000      	movs	r0, #0
1000eb0a:	b002      	add	sp, #8
1000eb0c:	e8bd 81f0 	ldmia.w	sp!, {r4, r5, r6, r7, r8, pc}
1000eb10:	2200      	movs	r2, #0
1000eb12:	4639      	mov	r1, r7
1000eb14:	4640      	mov	r0, r8
1000eb16:	f7ff ffab 	bl	1000ea70 <write_bytes>
1000eb1a:	2000      	movs	r0, #0
1000eb1c:	b002      	add	sp, #8
1000eb1e:	e8bd 81f0 	ldmia.w	sp!, {r4, r5, r6, r7, r8, pc}
1000eb22:	bf00      	nop
1000eb24:	20000010 	.word	0x20000010

1000eb28 <read_packet>:
1000eb28:	b5f0      	push	{r4, r5, r6, r7, lr}
1000eb2a:	b083      	sub	sp, #12
1000eb2c:	2300      	movs	r3, #0
1000eb2e:	9300      	str	r3, [sp, #0]
1000eb30:	2800      	cmp	r0, #0
1000eb32:	d048      	beq.n	1000ebc6 <read_packet+0x9e>
1000eb34:	460e      	mov	r6, r1
1000eb36:	4615      	mov	r5, r2
1000eb38:	4604      	mov	r4, r0
1000eb3a:	f000 f899 	bl	1000ec70 <uart_readbyte>
1000eb3e:	b2c0      	uxtb	r0, r0
1000eb40:	2825      	cmp	r0, #37	@ 0x25
1000eb42:	f88d 0000 	strb.w	r0, [sp]
1000eb46:	d1f8      	bne.n	1000eb3a <read_packet+0x12>
1000eb48:	f000 f892 	bl	1000ec70 <uart_readbyte>
1000eb4c:	2102      	movs	r1, #2
1000eb4e:	f88d 0001 	strb.w	r0, [sp, #1]
1000eb52:	eb0d 0001 	add.w	r0, sp, r1
1000eb56:	f7ff ff35 	bl	1000e9c4 <read_bytes>
1000eb5a:	f89d 3001 	ldrb.w	r3, [sp, #1]
1000eb5e:	7023      	strb	r3, [r4, #0]
1000eb60:	b115      	cbz	r5, 1000eb68 <read_packet+0x40>
1000eb62:	f8bd 2002 	ldrh.w	r2, [sp, #2]
1000eb66:	802a      	strh	r2, [r5, #0]
1000eb68:	2b41      	cmp	r3, #65	@ 0x41
1000eb6a:	d102      	bne.n	1000eb72 <read_packet+0x4a>
1000eb6c:	2000      	movs	r0, #0
1000eb6e:	b003      	add	sp, #12
1000eb70:	bdf0      	pop	{r4, r5, r6, r7, pc}
1000eb72:	f244 1325 	movw	r3, #16677	@ 0x4125
1000eb76:	9301      	str	r3, [sp, #4]
1000eb78:	ac01      	add	r4, sp, #4
1000eb7a:	ad02      	add	r5, sp, #8
1000eb7c:	f814 0b01 	ldrb.w	r0, [r4], #1
1000eb80:	f000 f87c 	bl	1000ec7c <uart_writebyte>
1000eb84:	42a5      	cmp	r5, r4
1000eb86:	d1f9      	bne.n	1000eb7c <read_packet+0x54>
1000eb88:	4f10      	ldr	r7, [pc, #64]	@ (1000ebcc <read_packet+0xa4>)
1000eb8a:	683b      	ldr	r3, [r7, #0]
1000eb8c:	6898      	ldr	r0, [r3, #8]
1000eb8e:	f002 fd1f 	bl	100115d0 <fflush>
1000eb92:	f8bd 1002 	ldrh.w	r1, [sp, #2]
1000eb96:	2900      	cmp	r1, #0
1000eb98:	d0e8      	beq.n	1000eb6c <read_packet+0x44>
1000eb9a:	b126      	cbz	r6, 1000eba6 <read_packet+0x7e>
1000eb9c:	4630      	mov	r0, r6
1000eb9e:	f7ff ff11 	bl	1000e9c4 <read_bytes>
1000eba2:	2800      	cmp	r0, #0
1000eba4:	db0f      	blt.n	1000ebc6 <read_packet+0x9e>
1000eba6:	f244 1325 	movw	r3, #16677	@ 0x4125
1000ebaa:	9301      	str	r3, [sp, #4]
1000ebac:	ac01      	add	r4, sp, #4
1000ebae:	ad02      	add	r5, sp, #8
1000ebb0:	f814 0b01 	ldrb.w	r0, [r4], #1
1000ebb4:	f000 f862 	bl	1000ec7c <uart_writebyte>
1000ebb8:	42a5      	cmp	r5, r4
1000ebba:	d1f9      	bne.n	1000ebb0 <read_packet+0x88>
1000ebbc:	683b      	ldr	r3, [r7, #0]
1000ebbe:	6898      	ldr	r0, [r3, #8]
1000ebc0:	f002 fd06 	bl	100115d0 <fflush>
1000ebc4:	e7d2      	b.n	1000eb6c <read_packet+0x44>
1000ebc6:	f04f 30ff 	mov.w	r0, #4294967295	@ 0xffffffff
1000ebca:	e7d0      	b.n	1000eb6e <read_packet+0x46>
1000ebcc:	20000010 	.word	0x20000010

1000ebd0 <flash_simple_irq>:
1000ebd0:	4a09      	ldr	r2, [pc, #36]	@ (1000ebf8 <flash_simple_irq+0x28>)
1000ebd2:	6a53      	ldr	r3, [r2, #36]	@ 0x24
1000ebd4:	07d9      	lsls	r1, r3, #31
1000ebd6:	d503      	bpl.n	1000ebe0 <flash_simple_irq+0x10>
1000ebd8:	6a51      	ldr	r1, [r2, #36]	@ 0x24
1000ebda:	f021 0101 	bic.w	r1, r1, #1
1000ebde:	6251      	str	r1, [r2, #36]	@ 0x24
1000ebe0:	079b      	lsls	r3, r3, #30
1000ebe2:	d400      	bmi.n	1000ebe6 <flash_simple_irq+0x16>
1000ebe4:	4770      	bx	lr
1000ebe6:	4a04      	ldr	r2, [pc, #16]	@ (1000ebf8 <flash_simple_irq+0x28>)
1000ebe8:	4804      	ldr	r0, [pc, #16]	@ (1000ebfc <flash_simple_irq+0x2c>)
1000ebea:	6a53      	ldr	r3, [r2, #36]	@ 0x24
1000ebec:	f023 0302 	bic.w	r3, r3, #2
1000ebf0:	6253      	str	r3, [r2, #36]	@ 0x24
1000ebf2:	f003 bc25 	b.w	10012440 <puts>
1000ebf6:	bf00      	nop
1000ebf8:	40029000 	.word	0x40029000
1000ebfc:	10017ebc 	.word	0x10017ebc

1000ec00 <flash_simple_init>:
1000ec00:	b508      	push	{r3, lr}
1000ec02:	4908      	ldr	r1, [pc, #32]	@ (1000ec24 <flash_simple_init+0x24>)
1000ec04:	2017      	movs	r0, #23
1000ec06:	f001 fcdd 	bl	100105c4 <MXC_NVIC_SetVector>
1000ec0a:	4b07      	ldr	r3, [pc, #28]	@ (1000ec28 <flash_simple_init+0x28>)
1000ec0c:	f44f 0200 	mov.w	r2, #8388608	@ 0x800000
1000ec10:	601a      	str	r2, [r3, #0]
1000ec12:	f44f 7040 	mov.w	r0, #768	@ 0x300
1000ec16:	f001 fe19 	bl	1001084c <MXC_FLC_EnableInt>
1000ec1a:	e8bd 4008 	ldmia.w	sp!, {r3, lr}
1000ec1e:	4803      	ldr	r0, [pc, #12]	@ (1000ec2c <flash_simple_init+0x2c>)
1000ec20:	f002 b840 	b.w	10010ca4 <MXC_ICC_Disable>
1000ec24:	1000ebd1 	.word	0x1000ebd1
1000ec28:	e000e100 	.word	0xe000e100
1000ec2c:	4002a000 	.word	0x4002a000

1000ec30 <flash_simple_erase_page>:
1000ec30:	f00b bc62 	b.w	1001a4f8 <__MXC_FLC_PageErase_veneer>

1000ec34 <flash_simple_read>:
1000ec34:	f001 be08 	b.w	10010848 <MXC_FLC_Read>

1000ec38 <flash_simple_write>:
1000ec38:	460b      	mov	r3, r1
1000ec3a:	4611      	mov	r1, r2
1000ec3c:	461a      	mov	r2, r3
1000ec3e:	f001 be01 	b.w	10010844 <MXC_FLC_Write>
1000ec42:	bf00      	nop

1000ec44 <uart_init>:
1000ec44:	b510      	push	{r4, lr}
1000ec46:	4808      	ldr	r0, [pc, #32]	@ (1000ec68 <uart_init+0x24>)
1000ec48:	2202      	movs	r2, #2
1000ec4a:	f44f 31e1 	mov.w	r1, #115200	@ 0x1c200
1000ec4e:	f002 f881 	bl	10010d54 <MXC_UART_Init>
1000ec52:	4604      	mov	r4, r0
1000ec54:	b908      	cbnz	r0, 1000ec5a <uart_init+0x16>
1000ec56:	4620      	mov	r0, r4
1000ec58:	bd10      	pop	{r4, pc}
1000ec5a:	4621      	mov	r1, r4
1000ec5c:	4803      	ldr	r0, [pc, #12]	@ (1000ec6c <uart_init+0x28>)
1000ec5e:	f003 fd89 	bl	10012774 <printf>
1000ec62:	4620      	mov	r0, r4
1000ec64:	bd10      	pop	{r4, pc}
1000ec66:	bf00      	nop
1000ec68:	40042000 	.word	0x40042000
1000ec6c:	10017ee4 	.word	0x10017ee4

1000ec70 <uart_readbyte>:
1000ec70:	4801      	ldr	r0, [pc, #4]	@ (1000ec78 <uart_readbyte+0x8>)
1000ec72:	f002 b967 	b.w	10010f44 <MXC_UART_ReadCharacter>
1000ec76:	bf00      	nop
1000ec78:	40042000 	.word	0x40042000

1000ec7c <uart_writebyte>:
1000ec7c:	4a02      	ldr	r2, [pc, #8]	@ (1000ec88 <uart_writebyte+0xc>)
1000ec7e:	6853      	ldr	r3, [r2, #4]
1000ec80:	061b      	lsls	r3, r3, #24
1000ec82:	d4fc      	bmi.n	1000ec7e <uart_writebyte+0x2>
1000ec84:	6210      	str	r0, [r2, #32]
1000ec86:	4770      	bx	lr
1000ec88:	40042000 	.word	0x40042000

1000ec8c <AesEncrypt_C>:
1000ec8c:	e92d 4ff0 	stmdb	sp!, {r4, r5, r6, r7, r8, r9, sl, fp, lr}
1000ec90:	b087      	sub	sp, #28
1000ec92:	680d      	ldr	r5, [r1, #0]
1000ec94:	684f      	ldr	r7, [r1, #4]
1000ec96:	688e      	ldr	r6, [r1, #8]
1000ec98:	68cc      	ldr	r4, [r1, #12]
1000ec9a:	e9cd 3200 	strd	r3, r2, [sp]
1000ec9e:	6803      	ldr	r3, [r0, #0]
1000eca0:	ba2d      	rev	r5, r5
1000eca2:	405d      	eors	r5, r3
1000eca4:	6843      	ldr	r3, [r0, #4]
1000eca6:	ba3f      	rev	r7, r7
1000eca8:	405f      	eors	r7, r3
1000ecaa:	6883      	ldr	r3, [r0, #8]
1000ecac:	ba36      	rev	r6, r6
1000ecae:	405e      	eors	r6, r3
1000ecb0:	68c3      	ldr	r3, [r0, #12]
1000ecb2:	b2f9      	uxtb	r1, r7
1000ecb4:	b2f2      	uxtb	r2, r6
1000ecb6:	ba24      	rev	r4, r4
1000ecb8:	405c      	eors	r4, r3
1000ecba:	f501 7140 	add.w	r1, r1, #768	@ 0x300
1000ecbe:	4bea      	ldr	r3, [pc, #936]	@ (1000f068 <AesEncrypt_C+0x3dc>)
1000ecc0:	f502 7240 	add.w	r2, r2, #768	@ 0x300
1000ecc4:	fa5f fe84 	uxtb.w	lr, r4
1000ecc8:	f853 8021 	ldr.w	r8, [r3, r1, lsl #2]
1000eccc:	f853 1022 	ldr.w	r1, [r3, r2, lsl #2]
1000ecd0:	f50e 7e40 	add.w	lr, lr, #768	@ 0x300
1000ecd4:	0e2a      	lsrs	r2, r5, #24
1000ecd6:	f853 e02e 	ldr.w	lr, [r3, lr, lsl #2]
1000ecda:	f853 2022 	ldr.w	r2, [r3, r2, lsl #2]
1000ecde:	fa5f fc85 	uxtb.w	ip, r5
1000ece2:	ea82 020e 	eor.w	r2, r2, lr
1000ece6:	f50c 7c40 	add.w	ip, ip, #768	@ 0x300
1000ecea:	ea4f 6e17 	mov.w	lr, r7, lsr #24
1000ecee:	f853 c02c 	ldr.w	ip, [r3, ip, lsl #2]
1000ecf2:	f853 e02e 	ldr.w	lr, [r3, lr, lsl #2]
1000ecf6:	ea8e 0e0c 	eor.w	lr, lr, ip
1000ecfa:	ea4f 6c16 	mov.w	ip, r6, lsr #24
1000ecfe:	f853 c02c 	ldr.w	ip, [r3, ip, lsl #2]
1000ed02:	ea8c 0c08 	eor.w	ip, ip, r8
1000ed06:	ea4f 6814 	mov.w	r8, r4, lsr #24
1000ed0a:	f853 8028 	ldr.w	r8, [r3, r8, lsl #2]
1000ed0e:	ea88 0101 	eor.w	r1, r8, r1
1000ed12:	f3c7 4807 	ubfx	r8, r7, #16, #8
1000ed16:	f3c7 2707 	ubfx	r7, r7, #8, #8
1000ed1a:	f507 7700 	add.w	r7, r7, #512	@ 0x200
1000ed1e:	9102      	str	r1, [sp, #8]
1000ed20:	f853 b027 	ldr.w	fp, [r3, r7, lsl #2]
1000ed24:	6901      	ldr	r1, [r0, #16]
1000ed26:	f3c6 4707 	ubfx	r7, r6, #16, #8
1000ed2a:	f3c6 2607 	ubfx	r6, r6, #8, #8
1000ed2e:	f506 7600 	add.w	r6, r6, #512	@ 0x200
1000ed32:	f508 7880 	add.w	r8, r8, #256	@ 0x100
1000ed36:	f853 9026 	ldr.w	r9, [r3, r6, lsl #2]
1000ed3a:	f853 a028 	ldr.w	sl, [r3, r8, lsl #2]
1000ed3e:	f3c4 4607 	ubfx	r6, r4, #16, #8
1000ed42:	f3c4 2407 	ubfx	r4, r4, #8, #8
1000ed46:	f507 7780 	add.w	r7, r7, #256	@ 0x100
1000ed4a:	f504 7400 	add.w	r4, r4, #512	@ 0x200
1000ed4e:	404a      	eors	r2, r1
1000ed50:	6941      	ldr	r1, [r0, #20]
1000ed52:	f853 8027 	ldr.w	r8, [r3, r7, lsl #2]
1000ed56:	f853 7024 	ldr.w	r7, [r3, r4, lsl #2]
1000ed5a:	f506 7680 	add.w	r6, r6, #256	@ 0x100
1000ed5e:	f3c5 4407 	ubfx	r4, r5, #16, #8
1000ed62:	f3c5 2507 	ubfx	r5, r5, #8, #8
1000ed66:	ea8e 0e01 	eor.w	lr, lr, r1
1000ed6a:	f505 7500 	add.w	r5, r5, #512	@ 0x200
1000ed6e:	6981      	ldr	r1, [r0, #24]
1000ed70:	f853 6026 	ldr.w	r6, [r3, r6, lsl #2]
1000ed74:	f853 5025 	ldr.w	r5, [r3, r5, lsl #2]
1000ed78:	ea8c 0c01 	eor.w	ip, ip, r1
1000ed7c:	f504 7480 	add.w	r4, r4, #256	@ 0x100
1000ed80:	ea8c 0c06 	eor.w	ip, ip, r6
1000ed84:	ea8c 0c05 	eor.w	ip, ip, r5
1000ed88:	f853 4024 	ldr.w	r4, [r3, r4, lsl #2]
1000ed8c:	69c5      	ldr	r5, [r0, #28]
1000ed8e:	9902      	ldr	r1, [sp, #8]
1000ed90:	4069      	eors	r1, r5
1000ed92:	4061      	eors	r1, r4
1000ed94:	ea81 010b 	eor.w	r1, r1, fp
1000ed98:	b2cc      	uxtb	r4, r1
1000ed9a:	ea8e 0e08 	eor.w	lr, lr, r8
1000ed9e:	f504 7440 	add.w	r4, r4, #768	@ 0x300
1000eda2:	ea8e 0e07 	eor.w	lr, lr, r7
1000eda6:	f853 5024 	ldr.w	r5, [r3, r4, lsl #2]
1000edaa:	f3ce 4407 	ubfx	r4, lr, #16, #8
1000edae:	f504 7480 	add.w	r4, r4, #256	@ 0x100
1000edb2:	ea82 020a 	eor.w	r2, r2, sl
1000edb6:	f853 7024 	ldr.w	r7, [r3, r4, lsl #2]
1000edba:	fa5f f48e 	uxtb.w	r4, lr
1000edbe:	f504 7440 	add.w	r4, r4, #768	@ 0x300
1000edc2:	ea82 0209 	eor.w	r2, r2, r9
1000edc6:	9403      	str	r4, [sp, #12]
1000edc8:	fa5f f48c 	uxtb.w	r4, ip
1000edcc:	f504 7940 	add.w	r9, r4, #768	@ 0x300
1000edd0:	0e14      	lsrs	r4, r2, #24
1000edd2:	b2d6      	uxtb	r6, r2
1000edd4:	f3c2 4b07 	ubfx	fp, r2, #16, #8
1000edd8:	f3c2 2207 	ubfx	r2, r2, #8, #8
1000eddc:	f853 4024 	ldr.w	r4, [r3, r4, lsl #2]
1000ede0:	f8cd 9014 	str.w	r9, [sp, #20]
1000ede4:	f502 7200 	add.w	r2, r2, #512	@ 0x200
1000ede8:	9204      	str	r2, [sp, #16]
1000edea:	f3cc 2807 	ubfx	r8, ip, #8, #8
1000edee:	6a02      	ldr	r2, [r0, #32]
1000edf0:	f508 7800 	add.w	r8, r8, #512	@ 0x200
1000edf4:	406c      	eors	r4, r5
1000edf6:	4054      	eors	r4, r2
1000edf8:	ea4f 691e 	mov.w	r9, lr, lsr #24
1000edfc:	407c      	eors	r4, r7
1000edfe:	f506 7640 	add.w	r6, r6, #768	@ 0x300
1000ee02:	f853 7028 	ldr.w	r7, [r3, r8, lsl #2]
1000ee06:	f853 6026 	ldr.w	r6, [r3, r6, lsl #2]
1000ee0a:	9a03      	ldr	r2, [sp, #12]
1000ee0c:	f3ce 2e07 	ubfx	lr, lr, #8, #8
1000ee10:	4067      	eors	r7, r4
1000ee12:	f50e 7a00 	add.w	sl, lr, #512	@ 0x200
1000ee16:	f853 4029 	ldr.w	r4, [r3, r9, lsl #2]
1000ee1a:	f8dd 9014 	ldr.w	r9, [sp, #20]
1000ee1e:	f853 a02a 	ldr.w	sl, [r3, sl, lsl #2]
1000ee22:	ea4f 6e1c 	mov.w	lr, ip, lsr #24
1000ee26:	f3cc 4c07 	ubfx	ip, ip, #16, #8
1000ee2a:	f50c 7580 	add.w	r5, ip, #256	@ 0x100
1000ee2e:	4074      	eors	r4, r6
1000ee30:	ea4f 6c11 	mov.w	ip, r1, lsr #24
1000ee34:	f853 602e 	ldr.w	r6, [r3, lr, lsl #2]
1000ee38:	f853 e022 	ldr.w	lr, [r3, r2, lsl #2]
1000ee3c:	9502      	str	r5, [sp, #8]
1000ee3e:	9a02      	ldr	r2, [sp, #8]
1000ee40:	f853 c02c 	ldr.w	ip, [r3, ip, lsl #2]
1000ee44:	ea86 060e 	eor.w	r6, r6, lr
1000ee48:	f853 e029 	ldr.w	lr, [r3, r9, lsl #2]
1000ee4c:	f3c1 4507 	ubfx	r5, r1, #16, #8
1000ee50:	f3c1 2107 	ubfx	r1, r1, #8, #8
1000ee54:	f501 7100 	add.w	r1, r1, #512	@ 0x200
1000ee58:	ea8c 0c0e 	eor.w	ip, ip, lr
1000ee5c:	f853 e022 	ldr.w	lr, [r3, r2, lsl #2]
1000ee60:	9a04      	ldr	r2, [sp, #16]
1000ee62:	f853 9021 	ldr.w	r9, [r3, r1, lsl #2]
1000ee66:	f853 1022 	ldr.w	r1, [r3, r2, lsl #2]
1000ee6a:	6a42      	ldr	r2, [r0, #36]	@ 0x24
1000ee6c:	f505 7580 	add.w	r5, r5, #256	@ 0x100
1000ee70:	4054      	eors	r4, r2
1000ee72:	6a82      	ldr	r2, [r0, #40]	@ 0x28
1000ee74:	f853 8025 	ldr.w	r8, [r3, r5, lsl #2]
1000ee78:	4056      	eors	r6, r2
1000ee7a:	f50b 7b80 	add.w	fp, fp, #256	@ 0x100
1000ee7e:	ea86 0608 	eor.w	r6, r6, r8
1000ee82:	404e      	eors	r6, r1
1000ee84:	6ac1      	ldr	r1, [r0, #44]	@ 0x2c
1000ee86:	f853 502b 	ldr.w	r5, [r3, fp, lsl #2]
1000ee8a:	ea8c 0c01 	eor.w	ip, ip, r1
1000ee8e:	ea8c 0c05 	eor.w	ip, ip, r5
1000ee92:	ea8c 0c0a 	eor.w	ip, ip, sl
1000ee96:	fa5f f28c 	uxtb.w	r2, ip
1000ee9a:	ea84 040e 	eor.w	r4, r4, lr
1000ee9e:	f502 7240 	add.w	r2, r2, #768	@ 0x300
1000eea2:	ea84 0409 	eor.w	r4, r4, r9
1000eea6:	f853 1022 	ldr.w	r1, [r3, r2, lsl #2]
1000eeaa:	f3c4 4207 	ubfx	r2, r4, #16, #8
1000eeae:	f502 7280 	add.w	r2, r2, #256	@ 0x100
1000eeb2:	f853 a022 	ldr.w	sl, [r3, r2, lsl #2]
1000eeb6:	f3c6 2207 	ubfx	r2, r6, #8, #8
1000eeba:	f502 7200 	add.w	r2, r2, #512	@ 0x200
1000eebe:	f853 5022 	ldr.w	r5, [r3, r2, lsl #2]
1000eec2:	9502      	str	r5, [sp, #8]
1000eec4:	b2fa      	uxtb	r2, r7
1000eec6:	f502 7240 	add.w	r2, r2, #768	@ 0x300
1000eeca:	f853 5022 	ldr.w	r5, [r3, r2, lsl #2]
1000eece:	f3c6 4207 	ubfx	r2, r6, #16, #8
1000eed2:	f502 7280 	add.w	r2, r2, #256	@ 0x100
1000eed6:	f853 2022 	ldr.w	r2, [r3, r2, lsl #2]
1000eeda:	9203      	str	r2, [sp, #12]
1000eedc:	f3cc 2207 	ubfx	r2, ip, #8, #8
1000eee0:	f502 7200 	add.w	r2, r2, #512	@ 0x200
1000eee4:	f853 e022 	ldr.w	lr, [r3, r2, lsl #2]
1000eee8:	f8cd e010 	str.w	lr, [sp, #16]
1000eeec:	b2e2      	uxtb	r2, r4
1000eeee:	f502 7240 	add.w	r2, r2, #768	@ 0x300
1000eef2:	fa5f fe86 	uxtb.w	lr, r6
1000eef6:	f853 b022 	ldr.w	fp, [r3, r2, lsl #2]
1000eefa:	f3cc 4207 	ubfx	r2, ip, #16, #8
1000eefe:	f502 7280 	add.w	r2, r2, #256	@ 0x100
1000ef02:	ea4f 6c1c 	mov.w	ip, ip, lsr #24
1000ef06:	f853 9022 	ldr.w	r9, [r3, r2, lsl #2]
1000ef0a:	f853 202c 	ldr.w	r2, [r3, ip, lsl #2]
1000ef0e:	f3c7 2c07 	ubfx	ip, r7, #8, #8
1000ef12:	f50c 7c00 	add.w	ip, ip, #512	@ 0x200
1000ef16:	0e36      	lsrs	r6, r6, #24
1000ef18:	f853 802c 	ldr.w	r8, [r3, ip, lsl #2]
1000ef1c:	f853 6026 	ldr.w	r6, [r3, r6, lsl #2]
1000ef20:	ea4f 6c17 	mov.w	ip, r7, lsr #24
1000ef24:	ea86 060b 	eor.w	r6, r6, fp
1000ef28:	f853 b02c 	ldr.w	fp, [r3, ip, lsl #2]
1000ef2c:	f3c7 4707 	ubfx	r7, r7, #16, #8
1000ef30:	ea8b 0b01 	eor.w	fp, fp, r1
1000ef34:	f507 7180 	add.w	r1, r7, #256	@ 0x100
1000ef38:	0e27      	lsrs	r7, r4, #24
1000ef3a:	f50e 7e40 	add.w	lr, lr, #768	@ 0x300
1000ef3e:	f853 7027 	ldr.w	r7, [r3, r7, lsl #2]
1000ef42:	ea87 0c05 	eor.w	ip, r7, r5
1000ef46:	6b05      	ldr	r5, [r0, #48]	@ 0x30
1000ef48:	ea8b 0b05 	eor.w	fp, fp, r5
1000ef4c:	9d02      	ldr	r5, [sp, #8]
1000ef4e:	ea8b 070a 	eor.w	r7, fp, sl
1000ef52:	406f      	eors	r7, r5
1000ef54:	6b45      	ldr	r5, [r0, #52]	@ 0x34
1000ef56:	ea8c 0c05 	eor.w	ip, ip, r5
1000ef5a:	9d03      	ldr	r5, [sp, #12]
1000ef5c:	ea8c 0c05 	eor.w	ip, ip, r5
1000ef60:	9d04      	ldr	r5, [sp, #16]
1000ef62:	ea8c 0c05 	eor.w	ip, ip, r5
1000ef66:	6b85      	ldr	r5, [r0, #56]	@ 0x38
1000ef68:	406e      	eors	r6, r5
1000ef6a:	f853 502e 	ldr.w	r5, [r3, lr, lsl #2]
1000ef6e:	f3c4 2407 	ubfx	r4, r4, #8, #8
1000ef72:	ea82 0e05 	eor.w	lr, r2, r5
1000ef76:	f504 7400 	add.w	r4, r4, #512	@ 0x200
1000ef7a:	f853 5021 	ldr.w	r5, [r3, r1, lsl #2]
1000ef7e:	6bc1      	ldr	r1, [r0, #60]	@ 0x3c
1000ef80:	f853 2024 	ldr.w	r2, [r3, r4, lsl #2]
1000ef84:	ea8e 0e01 	eor.w	lr, lr, r1
1000ef88:	ea8e 0e05 	eor.w	lr, lr, r5
1000ef8c:	ea8e 0e02 	eor.w	lr, lr, r2
1000ef90:	fa5f f28e 	uxtb.w	r2, lr
1000ef94:	f502 7240 	add.w	r2, r2, #768	@ 0x300
1000ef98:	ea86 0609 	eor.w	r6, r6, r9
1000ef9c:	f853 1022 	ldr.w	r1, [r3, r2, lsl #2]
1000efa0:	b2fa      	uxtb	r2, r7
1000efa2:	f502 7240 	add.w	r2, r2, #768	@ 0x300
1000efa6:	ea86 0608 	eor.w	r6, r6, r8
1000efaa:	f853 8022 	ldr.w	r8, [r3, r2, lsl #2]
1000efae:	fa5f f28c 	uxtb.w	r2, ip
1000efb2:	f502 7240 	add.w	r2, r2, #768	@ 0x300
1000efb6:	f853 5022 	ldr.w	r5, [r3, r2, lsl #2]
1000efba:	b2f2      	uxtb	r2, r6
1000efbc:	f502 7240 	add.w	r2, r2, #768	@ 0x300
1000efc0:	f853 4022 	ldr.w	r4, [r3, r2, lsl #2]
1000efc4:	0e3a      	lsrs	r2, r7, #24
1000efc6:	f853 2022 	ldr.w	r2, [r3, r2, lsl #2]
1000efca:	4051      	eors	r1, r2
1000efcc:	ea4f 621c 	mov.w	r2, ip, lsr #24
1000efd0:	f853 2022 	ldr.w	r2, [r3, r2, lsl #2]
1000efd4:	ea82 0208 	eor.w	r2, r2, r8
1000efd8:	ea4f 6816 	mov.w	r8, r6, lsr #24
1000efdc:	f853 8028 	ldr.w	r8, [r3, r8, lsl #2]
1000efe0:	ea88 0505 	eor.w	r5, r8, r5
1000efe4:	ea4f 681e 	mov.w	r8, lr, lsr #24
1000efe8:	f853 8028 	ldr.w	r8, [r3, r8, lsl #2]
1000efec:	ea88 0404 	eor.w	r4, r8, r4
1000eff0:	f3cc 4807 	ubfx	r8, ip, #16, #8
1000eff4:	f3cc 2c07 	ubfx	ip, ip, #8, #8
1000eff8:	f508 7880 	add.w	r8, r8, #256	@ 0x100
1000effc:	f50c 7c00 	add.w	ip, ip, #512	@ 0x200
1000f000:	f853 b028 	ldr.w	fp, [r3, r8, lsl #2]
1000f004:	9402      	str	r4, [sp, #8]
1000f006:	f853 402c 	ldr.w	r4, [r3, ip, lsl #2]
1000f00a:	9403      	str	r4, [sp, #12]
1000f00c:	f3c6 4c07 	ubfx	ip, r6, #16, #8
1000f010:	f50c 7c80 	add.w	ip, ip, #256	@ 0x100
1000f014:	f3c6 2607 	ubfx	r6, r6, #8, #8
1000f018:	f506 7600 	add.w	r6, r6, #512	@ 0x200
1000f01c:	f853 902c 	ldr.w	r9, [r3, ip, lsl #2]
1000f020:	6c04      	ldr	r4, [r0, #64]	@ 0x40
1000f022:	f853 a026 	ldr.w	sl, [r3, r6, lsl #2]
1000f026:	f3ce 4c07 	ubfx	ip, lr, #16, #8
1000f02a:	f3ce 2e07 	ubfx	lr, lr, #8, #8
1000f02e:	f50e 7600 	add.w	r6, lr, #512	@ 0x200
1000f032:	4061      	eors	r1, r4
1000f034:	6c44      	ldr	r4, [r0, #68]	@ 0x44
1000f036:	f853 8026 	ldr.w	r8, [r3, r6, lsl #2]
1000f03a:	f50c 7c80 	add.w	ip, ip, #256	@ 0x100
1000f03e:	f3c7 4607 	ubfx	r6, r7, #16, #8
1000f042:	f3c7 2707 	ubfx	r7, r7, #8, #8
1000f046:	4062      	eors	r2, r4
1000f048:	f507 7700 	add.w	r7, r7, #512	@ 0x200
1000f04c:	6c84      	ldr	r4, [r0, #72]	@ 0x48
1000f04e:	f853 e02c 	ldr.w	lr, [r3, ip, lsl #2]
1000f052:	f853 7027 	ldr.w	r7, [r3, r7, lsl #2]
1000f056:	4065      	eors	r5, r4
1000f058:	ea85 050e 	eor.w	r5, r5, lr
1000f05c:	f506 7680 	add.w	r6, r6, #256	@ 0x100
1000f060:	407d      	eors	r5, r7
1000f062:	9c02      	ldr	r4, [sp, #8]
1000f064:	6cc7      	ldr	r7, [r0, #76]	@ 0x4c
1000f066:	e001      	b.n	1000f06c <AesEncrypt_C+0x3e0>
1000f068:	100191b4 	.word	0x100191b4
1000f06c:	f853 6026 	ldr.w	r6, [r3, r6, lsl #2]
1000f070:	407c      	eors	r4, r7
1000f072:	9f03      	ldr	r7, [sp, #12]
1000f074:	4074      	eors	r4, r6
1000f076:	407c      	eors	r4, r7
1000f078:	b2e6      	uxtb	r6, r4
1000f07a:	ea82 0209 	eor.w	r2, r2, r9
1000f07e:	f506 7640 	add.w	r6, r6, #768	@ 0x300
1000f082:	ea82 0208 	eor.w	r2, r2, r8
1000f086:	f853 7026 	ldr.w	r7, [r3, r6, lsl #2]
1000f08a:	f3c2 4607 	ubfx	r6, r2, #16, #8
1000f08e:	f506 7680 	add.w	r6, r6, #256	@ 0x100
1000f092:	ea81 010b 	eor.w	r1, r1, fp
1000f096:	f853 c026 	ldr.w	ip, [r3, r6, lsl #2]
1000f09a:	f8cd c008 	str.w	ip, [sp, #8]
1000f09e:	f3c5 4c07 	ubfx	ip, r5, #16, #8
1000f0a2:	f50c 7b80 	add.w	fp, ip, #256	@ 0x100
1000f0a6:	fa5f fc82 	uxtb.w	ip, r2
1000f0aa:	ea81 010a 	eor.w	r1, r1, sl
1000f0ae:	f3c5 2607 	ubfx	r6, r5, #8, #8
1000f0b2:	f50c 7940 	add.w	r9, ip, #768	@ 0x300
1000f0b6:	fa5f fc85 	uxtb.w	ip, r5
1000f0ba:	0e2d      	lsrs	r5, r5, #24
1000f0bc:	9504      	str	r5, [sp, #16]
1000f0be:	0e0d      	lsrs	r5, r1, #24
1000f0c0:	f506 7600 	add.w	r6, r6, #512	@ 0x200
1000f0c4:	f853 5025 	ldr.w	r5, [r3, r5, lsl #2]
1000f0c8:	f853 e026 	ldr.w	lr, [r3, r6, lsl #2]
1000f0cc:	f8cd e00c 	str.w	lr, [sp, #12]
1000f0d0:	b2ce      	uxtb	r6, r1
1000f0d2:	406f      	eors	r7, r5
1000f0d4:	f506 7640 	add.w	r6, r6, #768	@ 0x300
1000f0d8:	0e15      	lsrs	r5, r2, #24
1000f0da:	f853 6026 	ldr.w	r6, [r3, r6, lsl #2]
1000f0de:	f853 5025 	ldr.w	r5, [r3, r5, lsl #2]
1000f0e2:	f853 9029 	ldr.w	r9, [r3, r9, lsl #2]
1000f0e6:	4075      	eors	r5, r6
1000f0e8:	6d06      	ldr	r6, [r0, #80]	@ 0x50
1000f0ea:	4077      	eors	r7, r6
1000f0ec:	9e02      	ldr	r6, [sp, #8]
1000f0ee:	4077      	eors	r7, r6
1000f0f0:	9e03      	ldr	r6, [sp, #12]
1000f0f2:	4077      	eors	r7, r6
1000f0f4:	6d46      	ldr	r6, [r0, #84]	@ 0x54
1000f0f6:	4075      	eors	r5, r6
1000f0f8:	f853 602b 	ldr.w	r6, [r3, fp, lsl #2]
1000f0fc:	f8dd b010 	ldr.w	fp, [sp, #16]
1000f100:	ea4f 6814 	mov.w	r8, r4, lsr #24
1000f104:	f3c4 4e07 	ubfx	lr, r4, #16, #8
1000f108:	f3c4 2407 	ubfx	r4, r4, #8, #8
1000f10c:	f50c 7a40 	add.w	sl, ip, #768	@ 0x300
1000f110:	4075      	eors	r5, r6
1000f112:	f504 7400 	add.w	r4, r4, #512	@ 0x200
1000f116:	f853 602b 	ldr.w	r6, [r3, fp, lsl #2]
1000f11a:	f3c1 4c07 	ubfx	ip, r1, #16, #8
1000f11e:	f3c2 2207 	ubfx	r2, r2, #8, #8
1000f122:	f3c1 2107 	ubfx	r1, r1, #8, #8
1000f126:	ea86 0909 	eor.w	r9, r6, r9
1000f12a:	f502 7200 	add.w	r2, r2, #512	@ 0x200
1000f12e:	f853 6028 	ldr.w	r6, [r3, r8, lsl #2]
1000f132:	f853 802a 	ldr.w	r8, [r3, sl, lsl #2]
1000f136:	f853 4024 	ldr.w	r4, [r3, r4, lsl #2]
1000f13a:	f50e 7e80 	add.w	lr, lr, #256	@ 0x100
1000f13e:	f501 7100 	add.w	r1, r1, #512	@ 0x200
1000f142:	f853 a02e 	ldr.w	sl, [r3, lr, lsl #2]
1000f146:	f50c 7c80 	add.w	ip, ip, #256	@ 0x100
1000f14a:	ea85 0e04 	eor.w	lr, r5, r4
1000f14e:	f853 4021 	ldr.w	r4, [r3, r1, lsl #2]
1000f152:	f853 1022 	ldr.w	r1, [r3, r2, lsl #2]
1000f156:	6d82      	ldr	r2, [r0, #88]	@ 0x58
1000f158:	ea86 0608 	eor.w	r6, r6, r8
1000f15c:	f853 802c 	ldr.w	r8, [r3, ip, lsl #2]
1000f160:	ea89 0c02 	eor.w	ip, r9, r2
1000f164:	6dc2      	ldr	r2, [r0, #92]	@ 0x5c
1000f166:	4056      	eors	r6, r2
1000f168:	ea86 0608 	eor.w	r6, r6, r8
1000f16c:	404e      	eors	r6, r1
1000f16e:	b2f2      	uxtb	r2, r6
1000f170:	f502 7240 	add.w	r2, r2, #768	@ 0x300
1000f174:	ea8c 0c0a 	eor.w	ip, ip, sl
1000f178:	f853 8022 	ldr.w	r8, [r3, r2, lsl #2]
1000f17c:	b2fa      	uxtb	r2, r7
1000f17e:	f502 7240 	add.w	r2, r2, #768	@ 0x300
1000f182:	ea8c 0c04 	eor.w	ip, ip, r4
1000f186:	f853 5022 	ldr.w	r5, [r3, r2, lsl #2]
1000f18a:	fa5f f28e 	uxtb.w	r2, lr
1000f18e:	f502 7240 	add.w	r2, r2, #768	@ 0x300
1000f192:	f853 4022 	ldr.w	r4, [r3, r2, lsl #2]
1000f196:	fa5f f28c 	uxtb.w	r2, ip
1000f19a:	f502 7240 	add.w	r2, r2, #768	@ 0x300
1000f19e:	f853 1022 	ldr.w	r1, [r3, r2, lsl #2]
1000f1a2:	0e3a      	lsrs	r2, r7, #24
1000f1a4:	f853 2022 	ldr.w	r2, [r3, r2, lsl #2]
1000f1a8:	ea82 0208 	eor.w	r2, r2, r8
1000f1ac:	ea4f 681e 	mov.w	r8, lr, lsr #24
1000f1b0:	f853 8028 	ldr.w	r8, [r3, r8, lsl #2]
1000f1b4:	ea88 0505 	eor.w	r5, r8, r5
1000f1b8:	ea4f 681c 	mov.w	r8, ip, lsr #24
1000f1bc:	f853 8028 	ldr.w	r8, [r3, r8, lsl #2]
1000f1c0:	ea88 0404 	eor.w	r4, r8, r4
1000f1c4:	ea4f 6816 	mov.w	r8, r6, lsr #24
1000f1c8:	f853 8028 	ldr.w	r8, [r3, r8, lsl #2]
1000f1cc:	ea88 0101 	eor.w	r1, r8, r1
1000f1d0:	f3ce 4807 	ubfx	r8, lr, #16, #8
1000f1d4:	f3ce 2e07 	ubfx	lr, lr, #8, #8
1000f1d8:	f50e 7e00 	add.w	lr, lr, #512	@ 0x200
1000f1dc:	9102      	str	r1, [sp, #8]
1000f1de:	f853 102e 	ldr.w	r1, [r3, lr, lsl #2]
1000f1e2:	9103      	str	r1, [sp, #12]
1000f1e4:	f3cc 4e07 	ubfx	lr, ip, #16, #8
1000f1e8:	f3cc 2c07 	ubfx	ip, ip, #8, #8
1000f1ec:	f50c 7c00 	add.w	ip, ip, #512	@ 0x200
1000f1f0:	6e01      	ldr	r1, [r0, #96]	@ 0x60
1000f1f2:	f853 a02c 	ldr.w	sl, [r3, ip, lsl #2]
1000f1f6:	f3c6 4c07 	ubfx	ip, r6, #16, #8
1000f1fa:	f3c6 2607 	ubfx	r6, r6, #8, #8
1000f1fe:	f508 7880 	add.w	r8, r8, #256	@ 0x100
1000f202:	f506 7600 	add.w	r6, r6, #512	@ 0x200
1000f206:	404a      	eors	r2, r1
1000f208:	6e41      	ldr	r1, [r0, #100]	@ 0x64
1000f20a:	f853 b028 	ldr.w	fp, [r3, r8, lsl #2]
1000f20e:	f853 8026 	ldr.w	r8, [r3, r6, lsl #2]
1000f212:	f50e 7e80 	add.w	lr, lr, #256	@ 0x100
1000f216:	f50c 7c80 	add.w	ip, ip, #256	@ 0x100
1000f21a:	f3c7 4607 	ubfx	r6, r7, #16, #8
1000f21e:	f3c7 2707 	ubfx	r7, r7, #8, #8
1000f222:	404d      	eors	r5, r1
1000f224:	f507 7700 	add.w	r7, r7, #512	@ 0x200
1000f228:	6e81      	ldr	r1, [r0, #104]	@ 0x68
1000f22a:	f853 902e 	ldr.w	r9, [r3, lr, lsl #2]
1000f22e:	f853 e02c 	ldr.w	lr, [r3, ip, lsl #2]
1000f232:	f853 7027 	ldr.w	r7, [r3, r7, lsl #2]
1000f236:	404c      	eors	r4, r1
1000f238:	ea84 040e 	eor.w	r4, r4, lr
1000f23c:	f506 7680 	add.w	r6, r6, #256	@ 0x100
1000f240:	407c      	eors	r4, r7
1000f242:	9902      	ldr	r1, [sp, #8]
1000f244:	6ec7      	ldr	r7, [r0, #108]	@ 0x6c
1000f246:	f853 6026 	ldr.w	r6, [r3, r6, lsl #2]
1000f24a:	4079      	eors	r1, r7
1000f24c:	9f03      	ldr	r7, [sp, #12]
1000f24e:	4071      	eors	r1, r6
1000f250:	4079      	eors	r1, r7
1000f252:	ea82 020b 	eor.w	r2, r2, fp
1000f256:	ea85 0509 	eor.w	r5, r5, r9
1000f25a:	ea82 020a 	eor.w	r2, r2, sl
1000f25e:	ea85 0508 	eor.w	r5, r5, r8
1000f262:	fa5f f881 	uxtb.w	r8, r1
1000f266:	0e17      	lsrs	r7, r2, #24
1000f268:	f508 7840 	add.w	r8, r8, #768	@ 0x300
1000f26c:	fa5f fe82 	uxtb.w	lr, r2
1000f270:	b2e6      	uxtb	r6, r4
1000f272:	f853 9027 	ldr.w	r9, [r3, r7, lsl #2]
1000f276:	f853 7028 	ldr.w	r7, [r3, r8, lsl #2]
1000f27a:	f50e 7e40 	add.w	lr, lr, #768	@ 0x300
1000f27e:	fa5f fc85 	uxtb.w	ip, r5
1000f282:	f506 7640 	add.w	r6, r6, #768	@ 0x300
1000f286:	f50c 7c40 	add.w	ip, ip, #768	@ 0x300
1000f28a:	f853 b026 	ldr.w	fp, [r3, r6, lsl #2]
1000f28e:	f853 802c 	ldr.w	r8, [r3, ip, lsl #2]
1000f292:	ea89 0707 	eor.w	r7, r9, r7
1000f296:	0e2e      	lsrs	r6, r5, #24
1000f298:	f853 902e 	ldr.w	r9, [r3, lr, lsl #2]
1000f29c:	f853 6026 	ldr.w	r6, [r3, r6, lsl #2]
1000f2a0:	f3c5 4e07 	ubfx	lr, r5, #16, #8
1000f2a4:	f3c5 2507 	ubfx	r5, r5, #8, #8
1000f2a8:	ea4f 6c14 	mov.w	ip, r4, lsr #24
1000f2ac:	f50e 7e80 	add.w	lr, lr, #256	@ 0x100
1000f2b0:	f505 7500 	add.w	r5, r5, #512	@ 0x200
1000f2b4:	f853 a02e 	ldr.w	sl, [r3, lr, lsl #2]
1000f2b8:	f853 c02c 	ldr.w	ip, [r3, ip, lsl #2]
1000f2bc:	f853 e025 	ldr.w	lr, [r3, r5, lsl #2]
1000f2c0:	f3c4 4507 	ubfx	r5, r4, #16, #8
1000f2c4:	f3c4 2407 	ubfx	r4, r4, #8, #8
1000f2c8:	f504 7400 	add.w	r4, r4, #512	@ 0x200
1000f2cc:	ea8c 0c08 	eor.w	ip, ip, r8
1000f2d0:	ea4f 6811 	mov.w	r8, r1, lsr #24
1000f2d4:	ea86 0609 	eor.w	r6, r6, r9
1000f2d8:	f853 9024 	ldr.w	r9, [r3, r4, lsl #2]
1000f2dc:	f853 8028 	ldr.w	r8, [r3, r8, lsl #2]
1000f2e0:	f3c1 4407 	ubfx	r4, r1, #16, #8
1000f2e4:	f3c1 2107 	ubfx	r1, r1, #8, #8
1000f2e8:	f505 7580 	add.w	r5, r5, #256	@ 0x100
1000f2ec:	f504 7480 	add.w	r4, r4, #256	@ 0x100
1000f2f0:	f501 7100 	add.w	r1, r1, #512	@ 0x200
1000f2f4:	ea88 0b0b 	eor.w	fp, r8, fp
1000f2f8:	f853 8025 	ldr.w	r8, [r3, r5, lsl #2]
1000f2fc:	f853 5024 	ldr.w	r5, [r3, r4, lsl #2]
1000f300:	f853 4021 	ldr.w	r4, [r3, r1, lsl #2]
1000f304:	f3c2 4107 	ubfx	r1, r2, #16, #8
1000f308:	f3c2 2207 	ubfx	r2, r2, #8, #8
1000f30c:	f502 7200 	add.w	r2, r2, #512	@ 0x200
1000f310:	f501 7180 	add.w	r1, r1, #256	@ 0x100
1000f314:	f853 2022 	ldr.w	r2, [r3, r2, lsl #2]
1000f318:	9202      	str	r2, [sp, #8]
1000f31a:	6f02      	ldr	r2, [r0, #112]	@ 0x70
1000f31c:	f853 1021 	ldr.w	r1, [r3, r1, lsl #2]
1000f320:	4057      	eors	r7, r2
1000f322:	6f42      	ldr	r2, [r0, #116]	@ 0x74
1000f324:	4056      	eors	r6, r2
1000f326:	ea86 0608 	eor.w	r6, r6, r8
1000f32a:	4066      	eors	r6, r4
1000f32c:	6f84      	ldr	r4, [r0, #120]	@ 0x78
1000f32e:	9a02      	ldr	r2, [sp, #8]
1000f330:	ea8c 0c04 	eor.w	ip, ip, r4
1000f334:	6fc4      	ldr	r4, [r0, #124]	@ 0x7c
1000f336:	ea8c 0c05 	eor.w	ip, ip, r5
1000f33a:	ea8b 0404 	eor.w	r4, fp, r4
1000f33e:	ea8c 0c02 	eor.w	ip, ip, r2
1000f342:	404c      	eors	r4, r1
1000f344:	4672      	mov	r2, lr
1000f346:	4054      	eors	r4, r2
1000f348:	b2e2      	uxtb	r2, r4
1000f34a:	f502 7240 	add.w	r2, r2, #768	@ 0x300
1000f34e:	ea87 070a 	eor.w	r7, r7, sl
1000f352:	f853 5022 	ldr.w	r5, [r3, r2, lsl #2]
1000f356:	f3c6 4207 	ubfx	r2, r6, #16, #8
1000f35a:	f502 7280 	add.w	r2, r2, #256	@ 0x100
1000f35e:	ea87 0709 	eor.w	r7, r7, r9
1000f362:	f853 2022 	ldr.w	r2, [r3, r2, lsl #2]
1000f366:	9202      	str	r2, [sp, #8]
1000f368:	f3cc 2207 	ubfx	r2, ip, #8, #8
1000f36c:	f502 7200 	add.w	r2, r2, #512	@ 0x200
1000f370:	f3c7 4907 	ubfx	r9, r7, #16, #8
1000f374:	f853 1022 	ldr.w	r1, [r3, r2, lsl #2]
1000f378:	9103      	str	r1, [sp, #12]
1000f37a:	b2fa      	uxtb	r2, r7
1000f37c:	f502 7240 	add.w	r2, r2, #768	@ 0x300
1000f380:	f509 7980 	add.w	r9, r9, #256	@ 0x100
1000f384:	f853 1022 	ldr.w	r1, [r3, r2, lsl #2]
1000f388:	f3cc 4207 	ubfx	r2, ip, #16, #8
1000f38c:	f502 7280 	add.w	r2, r2, #256	@ 0x100
1000f390:	f853 e022 	ldr.w	lr, [r3, r2, lsl #2]
1000f394:	f8cd e010 	str.w	lr, [sp, #16]
1000f398:	f3c4 2207 	ubfx	r2, r4, #8, #8
1000f39c:	f502 7200 	add.w	r2, r2, #512	@ 0x200
1000f3a0:	fa5f fe8c 	uxtb.w	lr, ip
1000f3a4:	f853 8022 	ldr.w	r8, [r3, r2, lsl #2]
1000f3a8:	f8cd 8014 	str.w	r8, [sp, #20]
1000f3ac:	b2f2      	uxtb	r2, r6
1000f3ae:	f502 7240 	add.w	r2, r2, #768	@ 0x300
1000f3b2:	ea4f 6c1c 	mov.w	ip, ip, lsr #24
1000f3b6:	f853 2022 	ldr.w	r2, [r3, r2, lsl #2]
1000f3ba:	f853 c02c 	ldr.w	ip, [r3, ip, lsl #2]
1000f3be:	ea8c 0202 	eor.w	r2, ip, r2
1000f3c2:	ea4f 6c17 	mov.w	ip, r7, lsr #24
1000f3c6:	f3c7 2707 	ubfx	r7, r7, #8, #8
1000f3ca:	f853 b02c 	ldr.w	fp, [r3, ip, lsl #2]
1000f3ce:	ea8b 0b05 	eor.w	fp, fp, r5
1000f3d2:	0e35      	lsrs	r5, r6, #24
1000f3d4:	f507 7c00 	add.w	ip, r7, #512	@ 0x200
1000f3d8:	f853 5025 	ldr.w	r5, [r3, r5, lsl #2]
1000f3dc:	9f02      	ldr	r7, [sp, #8]
1000f3de:	ea85 0a01 	eor.w	sl, r5, r1
1000f3e2:	f8d0 5080 	ldr.w	r5, [r0, #128]	@ 0x80
1000f3e6:	ea8b 0b05 	eor.w	fp, fp, r5
1000f3ea:	9d03      	ldr	r5, [sp, #12]
1000f3ec:	ea8b 0707 	eor.w	r7, fp, r7
1000f3f0:	406f      	eors	r7, r5
1000f3f2:	f8d0 5084 	ldr.w	r5, [r0, #132]	@ 0x84
1000f3f6:	ea8a 0a05 	eor.w	sl, sl, r5
1000f3fa:	9d04      	ldr	r5, [sp, #16]
1000f3fc:	ea4f 6814 	mov.w	r8, r4, lsr #24
1000f400:	ea8a 0a05 	eor.w	sl, sl, r5
1000f404:	f3c4 4407 	ubfx	r4, r4, #16, #8
1000f408:	9d05      	ldr	r5, [sp, #20]
1000f40a:	f853 8028 	ldr.w	r8, [r3, r8, lsl #2]
1000f40e:	f3c6 2607 	ubfx	r6, r6, #8, #8
1000f412:	f504 7480 	add.w	r4, r4, #256	@ 0x100
1000f416:	f506 7100 	add.w	r1, r6, #512	@ 0x200
1000f41a:	ea8a 0605 	eor.w	r6, sl, r5
1000f41e:	f8d0 5088 	ldr.w	r5, [r0, #136]	@ 0x88
1000f422:	f853 4024 	ldr.w	r4, [r3, r4, lsl #2]
1000f426:	f853 1021 	ldr.w	r1, [r3, r1, lsl #2]
1000f42a:	f50e 7e40 	add.w	lr, lr, #768	@ 0x300
1000f42e:	406a      	eors	r2, r5
1000f430:	f853 502e 	ldr.w	r5, [r3, lr, lsl #2]
1000f434:	ea82 0e04 	eor.w	lr, r2, r4
1000f438:	f853 202c 	ldr.w	r2, [r3, ip, lsl #2]
1000f43c:	f853 4029 	ldr.w	r4, [r3, r9, lsl #2]
1000f440:	ea8e 0e02 	eor.w	lr, lr, r2
1000f444:	f8d0 208c 	ldr.w	r2, [r0, #140]	@ 0x8c
1000f448:	ea88 0505 	eor.w	r5, r8, r5
1000f44c:	ea85 0c02 	eor.w	ip, r5, r2
1000f450:	ea8c 0c04 	eor.w	ip, ip, r4
1000f454:	ea8c 0c01 	eor.w	ip, ip, r1
1000f458:	fa5f f28c 	uxtb.w	r2, ip
1000f45c:	f502 7240 	add.w	r2, r2, #768	@ 0x300
1000f460:	ea4f 6817 	mov.w	r8, r7, lsr #24
1000f464:	f853 1022 	ldr.w	r1, [r3, r2, lsl #2]
1000f468:	f853 8028 	ldr.w	r8, [r3, r8, lsl #2]
1000f46c:	b2fa      	uxtb	r2, r7
1000f46e:	f502 7240 	add.w	r2, r2, #768	@ 0x300
1000f472:	ea88 0101 	eor.w	r1, r8, r1
1000f476:	ea4f 6816 	mov.w	r8, r6, lsr #24
1000f47a:	f853 5022 	ldr.w	r5, [r3, r2, lsl #2]
1000f47e:	f853 8028 	ldr.w	r8, [r3, r8, lsl #2]
1000f482:	b2f2      	uxtb	r2, r6
1000f484:	f502 7240 	add.w	r2, r2, #768	@ 0x300
1000f488:	ea88 0505 	eor.w	r5, r8, r5
1000f48c:	ea4f 681e 	mov.w	r8, lr, lsr #24
1000f490:	f853 4022 	ldr.w	r4, [r3, r2, lsl #2]
1000f494:	f853 8028 	ldr.w	r8, [r3, r8, lsl #2]
1000f498:	fa5f f28e 	uxtb.w	r2, lr
1000f49c:	ea88 0404 	eor.w	r4, r8, r4
1000f4a0:	f502 7240 	add.w	r2, r2, #768	@ 0x300
1000f4a4:	ea4f 681c 	mov.w	r8, ip, lsr #24
1000f4a8:	f853 2022 	ldr.w	r2, [r3, r2, lsl #2]
1000f4ac:	f853 8028 	ldr.w	r8, [r3, r8, lsl #2]
1000f4b0:	ea88 0202 	eor.w	r2, r8, r2
1000f4b4:	f3c6 4807 	ubfx	r8, r6, #16, #8
1000f4b8:	f3c6 2607 	ubfx	r6, r6, #8, #8
1000f4bc:	f506 7600 	add.w	r6, r6, #512	@ 0x200
1000f4c0:	9202      	str	r2, [sp, #8]
1000f4c2:	f853 2026 	ldr.w	r2, [r3, r6, lsl #2]
1000f4c6:	9203      	str	r2, [sp, #12]
1000f4c8:	f3ce 4607 	ubfx	r6, lr, #16, #8
1000f4cc:	f506 7680 	add.w	r6, r6, #256	@ 0x100
1000f4d0:	f3ce 2e07 	ubfx	lr, lr, #8, #8
1000f4d4:	f853 9026 	ldr.w	r9, [r3, r6, lsl #2]
1000f4d8:	f3cc 4607 	ubfx	r6, ip, #16, #8
1000f4dc:	f508 7880 	add.w	r8, r8, #256	@ 0x100
1000f4e0:	f50e 7e00 	add.w	lr, lr, #512	@ 0x200
1000f4e4:	f506 7680 	add.w	r6, r6, #256	@ 0x100
1000f4e8:	f853 b028 	ldr.w	fp, [r3, r8, lsl #2]
1000f4ec:	f853 a02e 	ldr.w	sl, [r3, lr, lsl #2]
1000f4f0:	f853 e026 	ldr.w	lr, [r3, r6, lsl #2]
1000f4f4:	f8d0 2090 	ldr.w	r2, [r0, #144]	@ 0x90
1000f4f8:	4051      	eors	r1, r2
1000f4fa:	f8d0 2094 	ldr.w	r2, [r0, #148]	@ 0x94
1000f4fe:	f3c7 4607 	ubfx	r6, r7, #16, #8
1000f502:	f3c7 2707 	ubfx	r7, r7, #8, #8
1000f506:	4055      	eors	r5, r2
1000f508:	f507 7700 	add.w	r7, r7, #512	@ 0x200
1000f50c:	f8d0 2098 	ldr.w	r2, [r0, #152]	@ 0x98
1000f510:	f853 7027 	ldr.w	r7, [r3, r7, lsl #2]
1000f514:	4054      	eors	r4, r2
1000f516:	f506 7680 	add.w	r6, r6, #256	@ 0x100
1000f51a:	ea84 040e 	eor.w	r4, r4, lr
1000f51e:	9a02      	ldr	r2, [sp, #8]
1000f520:	f853 6026 	ldr.w	r6, [r3, r6, lsl #2]
1000f524:	407c      	eors	r4, r7
1000f526:	f8d0 709c 	ldr.w	r7, [r0, #156]	@ 0x9c
1000f52a:	f3cc 2c07 	ubfx	ip, ip, #8, #8
1000f52e:	407a      	eors	r2, r7
1000f530:	f50c 7c00 	add.w	ip, ip, #512	@ 0x200
1000f534:	4072      	eors	r2, r6
1000f536:	9e00      	ldr	r6, [sp, #0]
1000f538:	f853 802c 	ldr.w	r8, [r3, ip, lsl #2]
1000f53c:	9f03      	ldr	r7, [sp, #12]
1000f53e:	ea81 010b 	eor.w	r1, r1, fp
1000f542:	ea85 0509 	eor.w	r5, r5, r9
1000f546:	2e05      	cmp	r6, #5
1000f548:	ea81 010a 	eor.w	r1, r1, sl
1000f54c:	ea85 0508 	eor.w	r5, r5, r8
1000f550:	ea82 0207 	eor.w	r2, r2, r7
1000f554:	f240 81ed 	bls.w	1000f932 <AesEncrypt_C+0xca6>
1000f558:	b2d6      	uxtb	r6, r2
1000f55a:	f506 7640 	add.w	r6, r6, #768	@ 0x300
1000f55e:	f3c5 4e07 	ubfx	lr, r5, #16, #8
1000f562:	f853 7026 	ldr.w	r7, [r3, r6, lsl #2]
1000f566:	b2ce      	uxtb	r6, r1
1000f568:	f506 7640 	add.w	r6, r6, #768	@ 0x300
1000f56c:	f50e 7e80 	add.w	lr, lr, #256	@ 0x100
1000f570:	f853 c026 	ldr.w	ip, [r3, r6, lsl #2]
1000f574:	b2ee      	uxtb	r6, r5
1000f576:	f506 7640 	add.w	r6, r6, #768	@ 0x300
1000f57a:	f853 8026 	ldr.w	r8, [r3, r6, lsl #2]
1000f57e:	b2e6      	uxtb	r6, r4
1000f580:	f506 7640 	add.w	r6, r6, #768	@ 0x300
1000f584:	f853 b026 	ldr.w	fp, [r3, r6, lsl #2]
1000f588:	0e0e      	lsrs	r6, r1, #24
1000f58a:	f853 6026 	ldr.w	r6, [r3, r6, lsl #2]
1000f58e:	4077      	eors	r7, r6
1000f590:	0e2e      	lsrs	r6, r5, #24
1000f592:	f3c5 2507 	ubfx	r5, r5, #8, #8
1000f596:	f853 6026 	ldr.w	r6, [r3, r6, lsl #2]
1000f59a:	f505 7500 	add.w	r5, r5, #512	@ 0x200
1000f59e:	ea86 060c 	eor.w	r6, r6, ip
1000f5a2:	ea4f 6c14 	mov.w	ip, r4, lsr #24
1000f5a6:	f853 a025 	ldr.w	sl, [r3, r5, lsl #2]
1000f5aa:	f853 c02c 	ldr.w	ip, [r3, ip, lsl #2]
1000f5ae:	f3c4 4507 	ubfx	r5, r4, #16, #8
1000f5b2:	f3c4 2407 	ubfx	r4, r4, #8, #8
1000f5b6:	f504 7400 	add.w	r4, r4, #512	@ 0x200
1000f5ba:	ea8c 0c08 	eor.w	ip, ip, r8
1000f5be:	ea4f 6812 	mov.w	r8, r2, lsr #24
1000f5c2:	f853 9024 	ldr.w	r9, [r3, r4, lsl #2]
1000f5c6:	f853 8028 	ldr.w	r8, [r3, r8, lsl #2]
1000f5ca:	f3c2 4407 	ubfx	r4, r2, #16, #8
1000f5ce:	f3c2 2207 	ubfx	r2, r2, #8, #8
1000f5d2:	f505 7580 	add.w	r5, r5, #256	@ 0x100
1000f5d6:	f502 7200 	add.w	r2, r2, #512	@ 0x200
1000f5da:	ea88 0b0b 	eor.w	fp, r8, fp
1000f5de:	f853 802e 	ldr.w	r8, [r3, lr, lsl #2]
1000f5e2:	f853 e025 	ldr.w	lr, [r3, r5, lsl #2]
1000f5e6:	f853 5022 	ldr.w	r5, [r3, r2, lsl #2]
1000f5ea:	f3c1 4207 	ubfx	r2, r1, #16, #8
1000f5ee:	f502 7280 	add.w	r2, r2, #256	@ 0x100
1000f5f2:	f504 7480 	add.w	r4, r4, #256	@ 0x100
1000f5f6:	f853 2022 	ldr.w	r2, [r3, r2, lsl #2]
1000f5fa:	9202      	str	r2, [sp, #8]
1000f5fc:	f8d0 20a0 	ldr.w	r2, [r0, #160]	@ 0xa0
1000f600:	f853 4024 	ldr.w	r4, [r3, r4, lsl #2]
1000f604:	4057      	eors	r7, r2
1000f606:	f8d0 20a4 	ldr.w	r2, [r0, #164]	@ 0xa4
1000f60a:	4056      	eors	r6, r2
1000f60c:	ea86 060e 	eor.w	r6, r6, lr
1000f610:	f3c1 2107 	ubfx	r1, r1, #8, #8
1000f614:	4075      	eors	r5, r6
1000f616:	f501 7100 	add.w	r1, r1, #512	@ 0x200
1000f61a:	f8d0 60a8 	ldr.w	r6, [r0, #168]	@ 0xa8
1000f61e:	f853 1021 	ldr.w	r1, [r3, r1, lsl #2]
1000f622:	9a02      	ldr	r2, [sp, #8]
1000f624:	ea8c 0c06 	eor.w	ip, ip, r6
1000f628:	ea8c 0c04 	eor.w	ip, ip, r4
1000f62c:	ea8c 0c01 	eor.w	ip, ip, r1
1000f630:	f8d0 10ac 	ldr.w	r1, [r0, #172]	@ 0xac
1000f634:	ea8b 0601 	eor.w	r6, fp, r1
1000f638:	4056      	eors	r6, r2
1000f63a:	4652      	mov	r2, sl
1000f63c:	4056      	eors	r6, r2
1000f63e:	b2f2      	uxtb	r2, r6
1000f640:	f502 7240 	add.w	r2, r2, #768	@ 0x300
1000f644:	f3cc 4407 	ubfx	r4, ip, #16, #8
1000f648:	f853 1022 	ldr.w	r1, [r3, r2, lsl #2]
1000f64c:	f3c5 4207 	ubfx	r2, r5, #16, #8
1000f650:	f502 7280 	add.w	r2, r2, #256	@ 0x100
1000f654:	f504 7480 	add.w	r4, r4, #256	@ 0x100
1000f658:	f853 b022 	ldr.w	fp, [r3, r2, lsl #2]
1000f65c:	f853 4024 	ldr.w	r4, [r3, r4, lsl #2]
1000f660:	9403      	str	r4, [sp, #12]
1000f662:	f3cc 2207 	ubfx	r2, ip, #8, #8
1000f666:	f3c6 2407 	ubfx	r4, r6, #8, #8
1000f66a:	f502 7200 	add.w	r2, r2, #512	@ 0x200
1000f66e:	ea87 0708 	eor.w	r7, r7, r8
1000f672:	f504 7400 	add.w	r4, r4, #512	@ 0x200
1000f676:	ea87 0709 	eor.w	r7, r7, r9
1000f67a:	f853 2022 	ldr.w	r2, [r3, r2, lsl #2]
1000f67e:	f853 e024 	ldr.w	lr, [r3, r4, lsl #2]
1000f682:	9202      	str	r2, [sp, #8]
1000f684:	b2ec      	uxtb	r4, r5
1000f686:	b2fa      	uxtb	r2, r7
1000f688:	f8cd e010 	str.w	lr, [sp, #16]
1000f68c:	f502 7240 	add.w	r2, r2, #768	@ 0x300
1000f690:	fa5f fe8c 	uxtb.w	lr, ip
1000f694:	f504 7440 	add.w	r4, r4, #768	@ 0x300
1000f698:	ea4f 6c1c 	mov.w	ip, ip, lsr #24
1000f69c:	f853 2022 	ldr.w	r2, [r3, r2, lsl #2]
1000f6a0:	f853 4024 	ldr.w	r4, [r3, r4, lsl #2]
1000f6a4:	f853 c02c 	ldr.w	ip, [r3, ip, lsl #2]
1000f6a8:	ea8c 0404 	eor.w	r4, ip, r4
1000f6ac:	ea4f 6c17 	mov.w	ip, r7, lsr #24
1000f6b0:	ea4f 6816 	mov.w	r8, r6, lsr #24
1000f6b4:	f853 c02c 	ldr.w	ip, [r3, ip, lsl #2]
1000f6b8:	f853 8028 	ldr.w	r8, [r3, r8, lsl #2]
1000f6bc:	ea8c 0101 	eor.w	r1, ip, r1
1000f6c0:	ea4f 6c15 	mov.w	ip, r5, lsr #24
1000f6c4:	f3c6 4607 	ubfx	r6, r6, #16, #8
1000f6c8:	f853 a02c 	ldr.w	sl, [r3, ip, lsl #2]
1000f6cc:	ea8a 0a02 	eor.w	sl, sl, r2
1000f6d0:	f8d0 20b0 	ldr.w	r2, [r0, #176]	@ 0xb0
1000f6d4:	4051      	eors	r1, r2
1000f6d6:	9a02      	ldr	r2, [sp, #8]
1000f6d8:	ea81 010b 	eor.w	r1, r1, fp
1000f6dc:	4051      	eors	r1, r2
1000f6de:	f8d0 20b4 	ldr.w	r2, [r0, #180]	@ 0xb4
1000f6e2:	ea8a 0a02 	eor.w	sl, sl, r2
1000f6e6:	9a03      	ldr	r2, [sp, #12]
1000f6e8:	ea8a 0a02 	eor.w	sl, sl, r2
1000f6ec:	9a04      	ldr	r2, [sp, #16]
1000f6ee:	f3c5 2507 	ubfx	r5, r5, #8, #8
1000f6f2:	f506 7680 	add.w	r6, r6, #256	@ 0x100
1000f6f6:	f505 7c00 	add.w	ip, r5, #512	@ 0x200
1000f6fa:	f3c7 4907 	ubfx	r9, r7, #16, #8
1000f6fe:	ea8a 0502 	eor.w	r5, sl, r2
1000f702:	f3c7 2707 	ubfx	r7, r7, #8, #8
1000f706:	f8d0 20b8 	ldr.w	r2, [r0, #184]	@ 0xb8
1000f70a:	f853 6026 	ldr.w	r6, [r3, r6, lsl #2]
1000f70e:	f507 7700 	add.w	r7, r7, #512	@ 0x200
1000f712:	f50e 7e40 	add.w	lr, lr, #768	@ 0x300
1000f716:	4054      	eors	r4, r2
1000f718:	4074      	eors	r4, r6
1000f71a:	f853 6027 	ldr.w	r6, [r3, r7, lsl #2]
1000f71e:	f853 202e 	ldr.w	r2, [r3, lr, lsl #2]
1000f722:	f853 702c 	ldr.w	r7, [r3, ip, lsl #2]
1000f726:	f509 7980 	add.w	r9, r9, #256	@ 0x100
1000f72a:	4074      	eors	r4, r6
1000f72c:	f8d0 60bc 	ldr.w	r6, [r0, #188]	@ 0xbc
1000f730:	f853 e029 	ldr.w	lr, [r3, r9, lsl #2]
1000f734:	ea88 0202 	eor.w	r2, r8, r2
1000f738:	4072      	eors	r2, r6
1000f73a:	9e00      	ldr	r6, [sp, #0]
1000f73c:	ea82 020e 	eor.w	r2, r2, lr
1000f740:	2e06      	cmp	r6, #6
1000f742:	ea82 0207 	eor.w	r2, r2, r7
1000f746:	f000 80f4 	beq.w	1000f932 <AesEncrypt_C+0xca6>
1000f74a:	b2d6      	uxtb	r6, r2
1000f74c:	f506 7640 	add.w	r6, r6, #768	@ 0x300
1000f750:	f3c5 4e07 	ubfx	lr, r5, #16, #8
1000f754:	f853 7026 	ldr.w	r7, [r3, r6, lsl #2]
1000f758:	b2ce      	uxtb	r6, r1
1000f75a:	f506 7640 	add.w	r6, r6, #768	@ 0x300
1000f75e:	f50e 7e80 	add.w	lr, lr, #256	@ 0x100
1000f762:	f853 c026 	ldr.w	ip, [r3, r6, lsl #2]
1000f766:	b2ee      	uxtb	r6, r5
1000f768:	f506 7640 	add.w	r6, r6, #768	@ 0x300
1000f76c:	f853 8026 	ldr.w	r8, [r3, r6, lsl #2]
1000f770:	b2e6      	uxtb	r6, r4
1000f772:	f506 7640 	add.w	r6, r6, #768	@ 0x300
1000f776:	f853 b026 	ldr.w	fp, [r3, r6, lsl #2]
1000f77a:	0e0e      	lsrs	r6, r1, #24
1000f77c:	f853 6026 	ldr.w	r6, [r3, r6, lsl #2]
1000f780:	4077      	eors	r7, r6
1000f782:	0e2e      	lsrs	r6, r5, #24
1000f784:	f3c5 2507 	ubfx	r5, r5, #8, #8
1000f788:	f853 6026 	ldr.w	r6, [r3, r6, lsl #2]
1000f78c:	f505 7500 	add.w	r5, r5, #512	@ 0x200
1000f790:	ea86 060c 	eor.w	r6, r6, ip
1000f794:	ea4f 6c14 	mov.w	ip, r4, lsr #24
1000f798:	f853 a025 	ldr.w	sl, [r3, r5, lsl #2]
1000f79c:	f853 c02c 	ldr.w	ip, [r3, ip, lsl #2]
1000f7a0:	f3c4 4507 	ubfx	r5, r4, #16, #8
1000f7a4:	f3c4 2407 	ubfx	r4, r4, #8, #8
1000f7a8:	f504 7400 	add.w	r4, r4, #512	@ 0x200
1000f7ac:	ea8c 0c08 	eor.w	ip, ip, r8
1000f7b0:	ea4f 6812 	mov.w	r8, r2, lsr #24
1000f7b4:	f853 9024 	ldr.w	r9, [r3, r4, lsl #2]
1000f7b8:	f853 8028 	ldr.w	r8, [r3, r8, lsl #2]
1000f7bc:	f3c2 4407 	ubfx	r4, r2, #16, #8
1000f7c0:	f3c2 2207 	ubfx	r2, r2, #8, #8
1000f7c4:	f505 7580 	add.w	r5, r5, #256	@ 0x100
1000f7c8:	f502 7200 	add.w	r2, r2, #512	@ 0x200
1000f7cc:	ea88 0b0b 	eor.w	fp, r8, fp
1000f7d0:	f853 802e 	ldr.w	r8, [r3, lr, lsl #2]
1000f7d4:	f853 e025 	ldr.w	lr, [r3, r5, lsl #2]
1000f7d8:	f853 5022 	ldr.w	r5, [r3, r2, lsl #2]
1000f7dc:	f3c1 4207 	ubfx	r2, r1, #16, #8
1000f7e0:	f502 7280 	add.w	r2, r2, #256	@ 0x100
1000f7e4:	f504 7480 	add.w	r4, r4, #256	@ 0x100
1000f7e8:	f853 2022 	ldr.w	r2, [r3, r2, lsl #2]
1000f7ec:	9202      	str	r2, [sp, #8]
1000f7ee:	f8d0 20c0 	ldr.w	r2, [r0, #192]	@ 0xc0
1000f7f2:	f853 4024 	ldr.w	r4, [r3, r4, lsl #2]
1000f7f6:	4057      	eors	r7, r2
1000f7f8:	f8d0 20c4 	ldr.w	r2, [r0, #196]	@ 0xc4
1000f7fc:	4056      	eors	r6, r2
1000f7fe:	ea86 060e 	eor.w	r6, r6, lr
1000f802:	f3c1 2107 	ubfx	r1, r1, #8, #8
1000f806:	4075      	eors	r5, r6
1000f808:	f501 7100 	add.w	r1, r1, #512	@ 0x200
1000f80c:	f8d0 60c8 	ldr.w	r6, [r0, #200]	@ 0xc8
1000f810:	f853 1021 	ldr.w	r1, [r3, r1, lsl #2]
1000f814:	9a02      	ldr	r2, [sp, #8]
1000f816:	ea8c 0c06 	eor.w	ip, ip, r6
1000f81a:	ea8c 0c04 	eor.w	ip, ip, r4
1000f81e:	ea8c 0c01 	eor.w	ip, ip, r1
1000f822:	f8d0 10cc 	ldr.w	r1, [r0, #204]	@ 0xcc
1000f826:	ea8b 0601 	eor.w	r6, fp, r1
1000f82a:	4056      	eors	r6, r2
1000f82c:	4652      	mov	r2, sl
1000f82e:	4056      	eors	r6, r2
1000f830:	b2f2      	uxtb	r2, r6
1000f832:	f502 7240 	add.w	r2, r2, #768	@ 0x300
1000f836:	f3cc 4407 	ubfx	r4, ip, #16, #8
1000f83a:	f853 1022 	ldr.w	r1, [r3, r2, lsl #2]
1000f83e:	f3c5 4207 	ubfx	r2, r5, #16, #8
1000f842:	f502 7280 	add.w	r2, r2, #256	@ 0x100
1000f846:	f504 7480 	add.w	r4, r4, #256	@ 0x100
1000f84a:	f853 b022 	ldr.w	fp, [r3, r2, lsl #2]
1000f84e:	f853 4024 	ldr.w	r4, [r3, r4, lsl #2]
1000f852:	9403      	str	r4, [sp, #12]
1000f854:	f3cc 2207 	ubfx	r2, ip, #8, #8
1000f858:	f3c6 2407 	ubfx	r4, r6, #8, #8
1000f85c:	f502 7200 	add.w	r2, r2, #512	@ 0x200
1000f860:	ea87 0708 	eor.w	r7, r7, r8
1000f864:	f504 7400 	add.w	r4, r4, #512	@ 0x200
1000f868:	ea87 0709 	eor.w	r7, r7, r9
1000f86c:	f853 2022 	ldr.w	r2, [r3, r2, lsl #2]
1000f870:	f853 e024 	ldr.w	lr, [r3, r4, lsl #2]
1000f874:	9202      	str	r2, [sp, #8]
1000f876:	b2ec      	uxtb	r4, r5
1000f878:	b2fa      	uxtb	r2, r7
1000f87a:	f8cd e010 	str.w	lr, [sp, #16]
1000f87e:	f502 7240 	add.w	r2, r2, #768	@ 0x300
1000f882:	fa5f fe8c 	uxtb.w	lr, ip
1000f886:	f504 7440 	add.w	r4, r4, #768	@ 0x300
1000f88a:	ea4f 6c1c 	mov.w	ip, ip, lsr #24
1000f88e:	f853 2022 	ldr.w	r2, [r3, r2, lsl #2]
1000f892:	f853 4024 	ldr.w	r4, [r3, r4, lsl #2]
1000f896:	f853 c02c 	ldr.w	ip, [r3, ip, lsl #2]
1000f89a:	ea8c 0404 	eor.w	r4, ip, r4
1000f89e:	ea4f 6c17 	mov.w	ip, r7, lsr #24
1000f8a2:	ea4f 6816 	mov.w	r8, r6, lsr #24
1000f8a6:	f853 c02c 	ldr.w	ip, [r3, ip, lsl #2]
1000f8aa:	f853 8028 	ldr.w	r8, [r3, r8, lsl #2]
1000f8ae:	ea8c 0101 	eor.w	r1, ip, r1
1000f8b2:	ea4f 6c15 	mov.w	ip, r5, lsr #24
1000f8b6:	f3c6 4607 	ubfx	r6, r6, #16, #8
1000f8ba:	f853 a02c 	ldr.w	sl, [r3, ip, lsl #2]
1000f8be:	ea8a 0a02 	eor.w	sl, sl, r2
1000f8c2:	f8d0 20d0 	ldr.w	r2, [r0, #208]	@ 0xd0
1000f8c6:	4051      	eors	r1, r2
1000f8c8:	9a02      	ldr	r2, [sp, #8]
1000f8ca:	ea81 010b 	eor.w	r1, r1, fp
1000f8ce:	4051      	eors	r1, r2
1000f8d0:	f8d0 20d4 	ldr.w	r2, [r0, #212]	@ 0xd4
1000f8d4:	ea8a 0a02 	eor.w	sl, sl, r2
1000f8d8:	9a03      	ldr	r2, [sp, #12]
1000f8da:	ea8a 0a02 	eor.w	sl, sl, r2
1000f8de:	9a04      	ldr	r2, [sp, #16]
1000f8e0:	f3c5 2507 	ubfx	r5, r5, #8, #8
1000f8e4:	f506 7680 	add.w	r6, r6, #256	@ 0x100
1000f8e8:	f505 7c00 	add.w	ip, r5, #512	@ 0x200
1000f8ec:	f3c7 4907 	ubfx	r9, r7, #16, #8
1000f8f0:	ea8a 0502 	eor.w	r5, sl, r2
1000f8f4:	f3c7 2707 	ubfx	r7, r7, #8, #8
1000f8f8:	f8d0 20d8 	ldr.w	r2, [r0, #216]	@ 0xd8
1000f8fc:	f853 6026 	ldr.w	r6, [r3, r6, lsl #2]
1000f900:	f507 7700 	add.w	r7, r7, #512	@ 0x200
1000f904:	f50e 7e40 	add.w	lr, lr, #768	@ 0x300
1000f908:	4054      	eors	r4, r2
1000f90a:	4074      	eors	r4, r6
1000f90c:	f853 6027 	ldr.w	r6, [r3, r7, lsl #2]
1000f910:	f853 202e 	ldr.w	r2, [r3, lr, lsl #2]
1000f914:	f853 702c 	ldr.w	r7, [r3, ip, lsl #2]
1000f918:	f509 7980 	add.w	r9, r9, #256	@ 0x100
1000f91c:	4074      	eors	r4, r6
1000f91e:	f8d0 60dc 	ldr.w	r6, [r0, #220]	@ 0xdc
1000f922:	f853 e029 	ldr.w	lr, [r3, r9, lsl #2]
1000f926:	ea88 0202 	eor.w	r2, r8, r2
1000f92a:	4072      	eors	r2, r6
1000f92c:	ea82 020e 	eor.w	r2, r2, lr
1000f930:	407a      	eors	r2, r7
1000f932:	b2d6      	uxtb	r6, r2
1000f934:	f506 7680 	add.w	r6, r6, #256	@ 0x100
1000f938:	ea4f 6914 	mov.w	r9, r4, lsr #24
1000f93c:	f813 c026 	ldrb.w	ip, [r3, r6, lsl #2]
1000f940:	f3c5 4607 	ubfx	r6, r5, #16, #8
1000f944:	f506 7640 	add.w	r6, r6, #768	@ 0x300
1000f948:	f509 7900 	add.w	r9, r9, #512	@ 0x200
1000f94c:	f853 6026 	ldr.w	r6, [r3, r6, lsl #2]
1000f950:	f853 9029 	ldr.w	r9, [r3, r9, lsl #2]
1000f954:	f406 087f 	and.w	r8, r6, #16711680	@ 0xff0000
1000f958:	0e0e      	lsrs	r6, r1, #24
1000f95a:	f506 7600 	add.w	r6, r6, #512	@ 0x200
1000f95e:	fa5f fa84 	uxtb.w	sl, r4
1000f962:	f853 6026 	ldr.w	r6, [r3, r6, lsl #2]
1000f966:	f006 467f 	and.w	r6, r6, #4278190080	@ 0xff000000
1000f96a:	ea48 0806 	orr.w	r8, r8, r6
1000f96e:	b2ce      	uxtb	r6, r1
1000f970:	f506 7680 	add.w	r6, r6, #256	@ 0x100
1000f974:	f50a 7a80 	add.w	sl, sl, #256	@ 0x100
1000f978:	f813 7026 	ldrb.w	r7, [r3, r6, lsl #2]
1000f97c:	f3c4 4607 	ubfx	r6, r4, #16, #8
1000f980:	f506 7640 	add.w	r6, r6, #768	@ 0x300
1000f984:	f3c4 2407 	ubfx	r4, r4, #8, #8
1000f988:	f853 6026 	ldr.w	r6, [r3, r6, lsl #2]
1000f98c:	f406 0e7f 	and.w	lr, r6, #16711680	@ 0xff0000
1000f990:	0e2e      	lsrs	r6, r5, #24
1000f992:	f506 7600 	add.w	r6, r6, #512	@ 0x200
1000f996:	f009 497f 	and.w	r9, r9, #4278190080	@ 0xff000000
1000f99a:	f853 6026 	ldr.w	r6, [r3, r6, lsl #2]
1000f99e:	f006 467f 	and.w	r6, r6, #4278190080	@ 0xff000000
1000f9a2:	ea4e 0e06 	orr.w	lr, lr, r6
1000f9a6:	b2ee      	uxtb	r6, r5
1000f9a8:	f3c5 2507 	ubfx	r5, r5, #8, #8
1000f9ac:	ea4f 6b12 	mov.w	fp, r2, lsr #24
1000f9b0:	f853 5025 	ldr.w	r5, [r3, r5, lsl #2]
1000f9b4:	f405 457f 	and.w	r5, r5, #65280	@ 0xff00
1000f9b8:	9502      	str	r5, [sp, #8]
1000f9ba:	f3c2 4507 	ubfx	r5, r2, #16, #8
1000f9be:	f505 7540 	add.w	r5, r5, #768	@ 0x300
1000f9c2:	f3c2 2207 	ubfx	r2, r2, #8, #8
1000f9c6:	f853 5025 	ldr.w	r5, [r3, r5, lsl #2]
1000f9ca:	f853 2022 	ldr.w	r2, [r3, r2, lsl #2]
1000f9ce:	f405 057f 	and.w	r5, r5, #16711680	@ 0xff0000
1000f9d2:	ea45 0509 	orr.w	r5, r5, r9
1000f9d6:	f853 9024 	ldr.w	r9, [r3, r4, lsl #2]
1000f9da:	f813 402a 	ldrb.w	r4, [r3, sl, lsl #2]
1000f9de:	f3c1 4a07 	ubfx	sl, r1, #16, #8
1000f9e2:	f50b 7b00 	add.w	fp, fp, #512	@ 0x200
1000f9e6:	f506 7680 	add.w	r6, r6, #256	@ 0x100
1000f9ea:	f3c1 2107 	ubfx	r1, r1, #8, #8
1000f9ee:	f50a 7a40 	add.w	sl, sl, #768	@ 0x300
1000f9f2:	f813 6026 	ldrb.w	r6, [r3, r6, lsl #2]
1000f9f6:	f853 1021 	ldr.w	r1, [r3, r1, lsl #2]
1000f9fa:	f853 a02a 	ldr.w	sl, [r3, sl, lsl #2]
1000f9fe:	f853 302b 	ldr.w	r3, [r3, fp, lsl #2]
1000fa02:	f402 4b7f 	and.w	fp, r2, #65280	@ 0xff00
1000fa06:	9a00      	ldr	r2, [sp, #0]
1000fa08:	f40a 0a7f 	and.w	sl, sl, #16711680	@ 0xff0000
1000fa0c:	f003 437f 	and.w	r3, r3, #4278190080	@ 0xff000000
1000fa10:	ea4a 0303 	orr.w	r3, sl, r3
1000fa14:	eb00 1a42 	add.w	sl, r0, r2, lsl #5
1000fa18:	0152      	lsls	r2, r2, #5
1000fa1a:	f409 497f 	and.w	r9, r9, #65280	@ 0xff00
1000fa1e:	5882      	ldr	r2, [r0, r2]
1000fa20:	ea8c 0c02 	eor.w	ip, ip, r2
1000fa24:	f8da 2004 	ldr.w	r2, [sl, #4]
1000fa28:	4057      	eors	r7, r2
1000fa2a:	f8da 2008 	ldr.w	r2, [sl, #8]
1000fa2e:	4056      	eors	r6, r2
1000fa30:	f8da 200c 	ldr.w	r2, [sl, #12]
1000fa34:	4054      	eors	r4, r2
1000fa36:	9a02      	ldr	r2, [sp, #8]
1000fa38:	f401 417f 	and.w	r1, r1, #65280	@ 0xff00
1000fa3c:	ea8c 0c09 	eor.w	ip, ip, r9
1000fa40:	ea87 070b 	eor.w	r7, r7, fp
1000fa44:	404e      	eors	r6, r1
1000fa46:	4054      	eors	r4, r2
1000fa48:	9901      	ldr	r1, [sp, #4]
1000fa4a:	ea8c 0c08 	eor.w	ip, ip, r8
1000fa4e:	ea87 070e 	eor.w	r7, r7, lr
1000fa52:	406e      	eors	r6, r5
1000fa54:	405c      	eors	r4, r3
1000fa56:	fa9c fc8c 	rev.w	ip, ip
1000fa5a:	ba3f      	rev	r7, r7
1000fa5c:	ba36      	rev	r6, r6
1000fa5e:	ba24      	rev	r4, r4
1000fa60:	f8c1 c000 	str.w	ip, [r1]
1000fa64:	604f      	str	r7, [r1, #4]
1000fa66:	608e      	str	r6, [r1, #8]
1000fa68:	60cc      	str	r4, [r1, #12]
1000fa6a:	b007      	add	sp, #28
1000fa6c:	e8bd 8ff0 	ldmia.w	sp!, {r4, r5, r6, r7, r8, r9, sl, fp, pc}

1000fa70 <wc_AesSetKeyLocal.isra.0>:
1000fa70:	2800      	cmp	r0, #0
1000fa72:	f000 8248 	beq.w	1000ff06 <wc_AesSetKeyLocal.isra.0+0x496>
1000fa76:	e92d 4ff0 	stmdb	sp!, {r4, r5, r6, r7, r8, r9, sl, fp, lr}
1000fa7a:	f1a2 0610 	sub.w	r6, r2, #16
1000fa7e:	2e10      	cmp	r6, #16
1000fa80:	b085      	sub	sp, #20
1000fa82:	4617      	mov	r7, r2
1000fa84:	f200 823c 	bhi.w	1000ff00 <wc_AesSetKeyLocal.isra.0+0x490>
1000fa88:	4dc2      	ldr	r5, [pc, #776]	@ (1000fd94 <wc_AesSetKeyLocal.isra.0+0x324>)
1000fa8a:	40f5      	lsrs	r5, r6
1000fa8c:	07ec      	lsls	r4, r5, #31
1000fa8e:	f140 8237 	bpl.w	1000ff00 <wc_AesSetKeyLocal.isra.0+0x490>
1000fa92:	0896      	lsrs	r6, r2, #2
1000fa94:	1db5      	adds	r5, r6, #6
1000fa96:	4688      	mov	r8, r1
1000fa98:	4604      	mov	r4, r0
1000fa9a:	f8c0 20f4 	str.w	r2, [r0, #244]	@ 0xf4
1000fa9e:	f8c0 50f0 	str.w	r5, [r0, #240]	@ 0xf0
1000faa2:	2b00      	cmp	r3, #0
1000faa4:	d078      	beq.n	1000fb98 <wc_AesSetKeyLocal.isra.0+0x128>
1000faa6:	f8d3 e000 	ldr.w	lr, [r3]
1000faaa:	f8d3 c004 	ldr.w	ip, [r3, #4]
1000faae:	689d      	ldr	r5, [r3, #8]
1000fab0:	68db      	ldr	r3, [r3, #12]
1000fab2:	f8c0 3104 	str.w	r3, [r0, #260]	@ 0x104
1000fab6:	f8c0 e0f8 	str.w	lr, [r0, #248]	@ 0xf8
1000faba:	f8c0 c0fc 	str.w	ip, [r0, #252]	@ 0xfc
1000fabe:	f8c0 5100 	str.w	r5, [r0, #256]	@ 0x100
1000fac2:	f002 f80d 	bl	10011ae0 <memcpy>
1000fac6:	4625      	mov	r5, r4
1000fac8:	eb04 0686 	add.w	r6, r4, r6, lsl #2
1000facc:	4623      	mov	r3, r4
1000face:	6818      	ldr	r0, [r3, #0]
1000fad0:	ba00      	rev	r0, r0
1000fad2:	f843 0b04 	str.w	r0, [r3], #4
1000fad6:	429e      	cmp	r6, r3
1000fad8:	d1f9      	bne.n	1000face <wc_AesSetKeyLocal.isra.0+0x5e>
1000fada:	4641      	mov	r1, r8
1000fadc:	463a      	mov	r2, r7
1000fade:	4620      	mov	r0, r4
1000fae0:	f001 fffe 	bl	10011ae0 <memcpy>
1000fae4:	4623      	mov	r3, r4
1000fae6:	6819      	ldr	r1, [r3, #0]
1000fae8:	ba09      	rev	r1, r1
1000faea:	f843 1b04 	str.w	r1, [r3], #4
1000faee:	429e      	cmp	r6, r3
1000faf0:	d1f9      	bne.n	1000fae6 <wc_AesSetKeyLocal.isra.0+0x76>
1000faf2:	2f18      	cmp	r7, #24
1000faf4:	f000 81bc 	beq.w	1000fe70 <wc_AesSetKeyLocal.isra.0+0x400>
1000faf8:	2f20      	cmp	r7, #32
1000fafa:	f000 813f 	beq.w	1000fd7c <wc_AesSetKeyLocal.isra.0+0x30c>
1000fafe:	f8df e298 	ldr.w	lr, [pc, #664]	@ 1000fd98 <wc_AesSetKeyLocal.isra.0+0x328>
1000fb02:	6826      	ldr	r6, [r4, #0]
1000fb04:	68e1      	ldr	r1, [r4, #12]
1000fb06:	4ba5      	ldr	r3, [pc, #660]	@ (1000fd9c <wc_AesSetKeyLocal.isra.0+0x32c>)
1000fb08:	e9d4 7c01 	ldrd	r7, ip, [r4, #4]
1000fb0c:	f10e 0828 	add.w	r8, lr, #40	@ 0x28
1000fb10:	4620      	mov	r0, r4
1000fb12:	e000      	b.n	1000fb16 <wc_AesSetKeyLocal.isra.0+0xa6>
1000fb14:	3010      	adds	r0, #16
1000fb16:	b2ca      	uxtb	r2, r1
1000fb18:	ea4f 6911 	mov.w	r9, r1, lsr #24
1000fb1c:	f509 7980 	add.w	r9, r9, #256	@ 0x100
1000fb20:	f853 2022 	ldr.w	r2, [r3, r2, lsl #2]
1000fb24:	f813 9029 	ldrb.w	r9, [r3, r9, lsl #2]
1000fb28:	f402 427f 	and.w	r2, r2, #65280	@ 0xff00
1000fb2c:	ea42 0209 	orr.w	r2, r2, r9
1000fb30:	f3c1 4907 	ubfx	r9, r1, #16, #8
1000fb34:	f509 7900 	add.w	r9, r9, #512	@ 0x200
1000fb38:	f853 9029 	ldr.w	r9, [r3, r9, lsl #2]
1000fb3c:	f009 497f 	and.w	r9, r9, #4278190080	@ 0xff000000
1000fb40:	ea82 0209 	eor.w	r2, r2, r9
1000fb44:	f3c1 2907 	ubfx	r9, r1, #8, #8
1000fb48:	f509 7940 	add.w	r9, r9, #768	@ 0x300
1000fb4c:	f853 9029 	ldr.w	r9, [r3, r9, lsl #2]
1000fb50:	f409 097f 	and.w	r9, r9, #16711680	@ 0xff0000
1000fb54:	ea82 0209 	eor.w	r2, r2, r9
1000fb58:	f85e 9b04 	ldr.w	r9, [lr], #4
1000fb5c:	ea82 0209 	eor.w	r2, r2, r9
1000fb60:	4056      	eors	r6, r2
1000fb62:	4077      	eors	r7, r6
1000fb64:	ea8c 0c07 	eor.w	ip, ip, r7
1000fb68:	ea81 010c 	eor.w	r1, r1, ip
1000fb6c:	45f0      	cmp	r8, lr
1000fb6e:	e9c0 6704 	strd	r6, r7, [r0, #16]
1000fb72:	e9c0 c106 	strd	ip, r1, [r0, #24]
1000fb76:	d1cd      	bne.n	1000fb14 <wc_AesSetKeyLocal.isra.0+0xa4>
1000fb78:	9a0e      	ldr	r2, [sp, #56]	@ 0x38
1000fb7a:	2000      	movs	r0, #0
1000fb7c:	2a01      	cmp	r2, #1
1000fb7e:	f88d 000c 	strb.w	r0, [sp, #12]
1000fb82:	f88d 000d 	strb.w	r0, [sp, #13]
1000fb86:	f88d 000e 	strb.w	r0, [sp, #14]
1000fb8a:	f88d 000f 	strb.w	r0, [sp, #15]
1000fb8e:	d00e      	beq.n	1000fbae <wc_AesSetKeyLocal.isra.0+0x13e>
1000fb90:	2000      	movs	r0, #0
1000fb92:	b005      	add	sp, #20
1000fb94:	e8bd 8ff0 	ldmia.w	sp!, {r4, r5, r6, r7, r8, r9, sl, fp, pc}
1000fb98:	f8c0 30f8 	str.w	r3, [r0, #248]	@ 0xf8
1000fb9c:	f8c0 30fc 	str.w	r3, [r0, #252]	@ 0xfc
1000fba0:	f8c0 3100 	str.w	r3, [r0, #256]	@ 0x100
1000fba4:	f8c0 3104 	str.w	r3, [r0, #260]	@ 0x104
1000fba8:	f001 ff9a 	bl	10011ae0 <memcpy>
1000fbac:	e78b      	b.n	1000fac6 <wc_AesSetKeyLocal.isra.0+0x56>
1000fbae:	f8d4 20f0 	ldr.w	r2, [r4, #240]	@ 0xf0
1000fbb2:	ea5f 0c82 	movs.w	ip, r2, lsl #2
1000fbb6:	d01d      	beq.n	1000fbf4 <wc_AesSetKeyLocal.isra.0+0x184>
1000fbb8:	eb04 1202 	add.w	r2, r4, r2, lsl #4
1000fbbc:	4621      	mov	r1, r4
1000fbbe:	680f      	ldr	r7, [r1, #0]
1000fbc0:	6816      	ldr	r6, [r2, #0]
1000fbc2:	600e      	str	r6, [r1, #0]
1000fbc4:	6017      	str	r7, [r2, #0]
1000fbc6:	684f      	ldr	r7, [r1, #4]
1000fbc8:	6856      	ldr	r6, [r2, #4]
1000fbca:	604e      	str	r6, [r1, #4]
1000fbcc:	6057      	str	r7, [r2, #4]
1000fbce:	688e      	ldr	r6, [r1, #8]
1000fbd0:	6897      	ldr	r7, [r2, #8]
1000fbd2:	608f      	str	r7, [r1, #8]
1000fbd4:	6096      	str	r6, [r2, #8]
1000fbd6:	68ce      	ldr	r6, [r1, #12]
1000fbd8:	68d7      	ldr	r7, [r2, #12]
1000fbda:	60cf      	str	r7, [r1, #12]
1000fbdc:	3004      	adds	r0, #4
1000fbde:	60d6      	str	r6, [r2, #12]
1000fbe0:	ebac 0600 	sub.w	r6, ip, r0
1000fbe4:	42b0      	cmp	r0, r6
1000fbe6:	f101 0110 	add.w	r1, r1, #16
1000fbea:	f1a2 0210 	sub.w	r2, r2, #16
1000fbee:	d3e6      	bcc.n	1000fbbe <wc_AesSetKeyLocal.isra.0+0x14e>
1000fbf0:	f8d4 20f0 	ldr.w	r2, [r4, #240]	@ 0xf0
1000fbf4:	2100      	movs	r1, #0
1000fbf6:	2a01      	cmp	r2, #1
1000fbf8:	f88d 100c 	strb.w	r1, [sp, #12]
1000fbfc:	f88d 100d 	strb.w	r1, [sp, #13]
1000fc00:	f88d 100e 	strb.w	r1, [sp, #14]
1000fc04:	f88d 100f 	strb.w	r1, [sp, #15]
1000fc08:	d9c2      	bls.n	1000fb90 <wc_AesSetKeyLocal.isra.0+0x120>
1000fc0a:	4a65      	ldr	r2, [pc, #404]	@ (1000fda0 <wc_AesSetKeyLocal.isra.0+0x330>)
1000fc0c:	2701      	movs	r7, #1
1000fc0e:	692e      	ldr	r6, [r5, #16]
1000fc10:	fa5f fc86 	uxtb.w	ip, r6
1000fc14:	f3c6 4907 	ubfx	r9, r6, #16, #8
1000fc18:	f50c 7c80 	add.w	ip, ip, #256	@ 0x100
1000fc1c:	0e31      	lsrs	r1, r6, #24
1000fc1e:	f509 7980 	add.w	r9, r9, #256	@ 0x100
1000fc22:	f813 c02c 	ldrb.w	ip, [r3, ip, lsl #2]
1000fc26:	f813 a029 	ldrb.w	sl, [r3, r9, lsl #2]
1000fc2a:	f501 7180 	add.w	r1, r1, #256	@ 0x100
1000fc2e:	f3c6 2607 	ubfx	r6, r6, #8, #8
1000fc32:	f506 7680 	add.w	r6, r6, #256	@ 0x100
1000fc36:	f813 1021 	ldrb.w	r1, [r3, r1, lsl #2]
1000fc3a:	f813 9026 	ldrb.w	r9, [r3, r6, lsl #2]
1000fc3e:	f852 8021 	ldr.w	r8, [r2, r1, lsl #2]
1000fc42:	f50c 7c40 	add.w	ip, ip, #768	@ 0x300
1000fc46:	f50a 7680 	add.w	r6, sl, #256	@ 0x100
1000fc4a:	e9d5 0105 	ldrd	r0, r1, [r5, #20]
1000fc4e:	f852 c02c 	ldr.w	ip, [r2, ip, lsl #2]
1000fc52:	f852 6026 	ldr.w	r6, [r2, r6, lsl #2]
1000fc56:	f509 7900 	add.w	r9, r9, #512	@ 0x200
1000fc5a:	ea88 080c 	eor.w	r8, r8, ip
1000fc5e:	ea88 0606 	eor.w	r6, r8, r6
1000fc62:	fa5f fc80 	uxtb.w	ip, r0
1000fc66:	f852 8029 	ldr.w	r8, [r2, r9, lsl #2]
1000fc6a:	f50c 7c80 	add.w	ip, ip, #256	@ 0x100
1000fc6e:	ea86 0608 	eor.w	r6, r6, r8
1000fc72:	ea4f 6910 	mov.w	r9, r0, lsr #24
1000fc76:	612e      	str	r6, [r5, #16]
1000fc78:	f813 c02c 	ldrb.w	ip, [r3, ip, lsl #2]
1000fc7c:	f3c0 4607 	ubfx	r6, r0, #16, #8
1000fc80:	f509 7980 	add.w	r9, r9, #256	@ 0x100
1000fc84:	f506 7680 	add.w	r6, r6, #256	@ 0x100
1000fc88:	f3c0 2007 	ubfx	r0, r0, #8, #8
1000fc8c:	f813 a029 	ldrb.w	sl, [r3, r9, lsl #2]
1000fc90:	f813 6026 	ldrb.w	r6, [r3, r6, lsl #2]
1000fc94:	f50c 7c40 	add.w	ip, ip, #768	@ 0x300
1000fc98:	f500 7080 	add.w	r0, r0, #256	@ 0x100
1000fc9c:	f852 e02c 	ldr.w	lr, [r2, ip, lsl #2]
1000fca0:	f813 9020 	ldrb.w	r9, [r3, r0, lsl #2]
1000fca4:	f852 002a 	ldr.w	r0, [r2, sl, lsl #2]
1000fca8:	f506 7680 	add.w	r6, r6, #256	@ 0x100
1000fcac:	ea80 000e 	eor.w	r0, r0, lr
1000fcb0:	f509 7e00 	add.w	lr, r9, #512	@ 0x200
1000fcb4:	f852 8026 	ldr.w	r8, [r2, r6, lsl #2]
1000fcb8:	f852 e02e 	ldr.w	lr, [r2, lr, lsl #2]
1000fcbc:	fa5f fc81 	uxtb.w	ip, r1
1000fcc0:	ea80 0008 	eor.w	r0, r0, r8
1000fcc4:	f3c1 4607 	ubfx	r6, r1, #16, #8
1000fcc8:	ea80 000e 	eor.w	r0, r0, lr
1000fccc:	f50c 7c80 	add.w	ip, ip, #256	@ 0x100
1000fcd0:	6168      	str	r0, [r5, #20]
1000fcd2:	f506 7680 	add.w	r6, r6, #256	@ 0x100
1000fcd6:	0e08      	lsrs	r0, r1, #24
1000fcd8:	f813 c02c 	ldrb.w	ip, [r3, ip, lsl #2]
1000fcdc:	f813 6026 	ldrb.w	r6, [r3, r6, lsl #2]
1000fce0:	f3c1 2107 	ubfx	r1, r1, #8, #8
1000fce4:	f500 7080 	add.w	r0, r0, #256	@ 0x100
1000fce8:	f501 7180 	add.w	r1, r1, #256	@ 0x100
1000fcec:	f813 0020 	ldrb.w	r0, [r3, r0, lsl #2]
1000fcf0:	f813 1021 	ldrb.w	r1, [r3, r1, lsl #2]
1000fcf4:	f852 0020 	ldr.w	r0, [r2, r0, lsl #2]
1000fcf8:	f50c 7c40 	add.w	ip, ip, #768	@ 0x300
1000fcfc:	f506 7680 	add.w	r6, r6, #256	@ 0x100
1000fd00:	f852 c02c 	ldr.w	ip, [r2, ip, lsl #2]
1000fd04:	f852 6026 	ldr.w	r6, [r2, r6, lsl #2]
1000fd08:	f501 7100 	add.w	r1, r1, #512	@ 0x200
1000fd0c:	ea80 000c 	eor.w	r0, r0, ip
1000fd10:	f852 1021 	ldr.w	r1, [r2, r1, lsl #2]
1000fd14:	4070      	eors	r0, r6
1000fd16:	69ee      	ldr	r6, [r5, #28]
1000fd18:	4048      	eors	r0, r1
1000fd1a:	0e31      	lsrs	r1, r6, #24
1000fd1c:	f501 7180 	add.w	r1, r1, #256	@ 0x100
1000fd20:	61a8      	str	r0, [r5, #24]
1000fd22:	f813 0021 	ldrb.w	r0, [r3, r1, lsl #2]
1000fd26:	b2f1      	uxtb	r1, r6
1000fd28:	f501 7180 	add.w	r1, r1, #256	@ 0x100
1000fd2c:	3701      	adds	r7, #1
1000fd2e:	f813 c021 	ldrb.w	ip, [r3, r1, lsl #2]
1000fd32:	f852 1020 	ldr.w	r1, [r2, r0, lsl #2]
1000fd36:	f50c 7c40 	add.w	ip, ip, #768	@ 0x300
1000fd3a:	3510      	adds	r5, #16
1000fd3c:	f852 002c 	ldr.w	r0, [r2, ip, lsl #2]
1000fd40:	f3c6 4c07 	ubfx	ip, r6, #16, #8
1000fd44:	f50c 7c80 	add.w	ip, ip, #256	@ 0x100
1000fd48:	4048      	eors	r0, r1
1000fd4a:	f3c6 2107 	ubfx	r1, r6, #8, #8
1000fd4e:	f501 7180 	add.w	r1, r1, #256	@ 0x100
1000fd52:	f813 c02c 	ldrb.w	ip, [r3, ip, lsl #2]
1000fd56:	f813 6021 	ldrb.w	r6, [r3, r1, lsl #2]
1000fd5a:	f50c 7180 	add.w	r1, ip, #256	@ 0x100
1000fd5e:	f506 7600 	add.w	r6, r6, #512	@ 0x200
1000fd62:	f852 1021 	ldr.w	r1, [r2, r1, lsl #2]
1000fd66:	4041      	eors	r1, r0
1000fd68:	f852 0026 	ldr.w	r0, [r2, r6, lsl #2]
1000fd6c:	4041      	eors	r1, r0
1000fd6e:	60e9      	str	r1, [r5, #12]
1000fd70:	f8d4 10f0 	ldr.w	r1, [r4, #240]	@ 0xf0
1000fd74:	428f      	cmp	r7, r1
1000fd76:	f4ff af4a 	bcc.w	1000fc0e <wc_AesSetKeyLocal.isra.0+0x19e>
1000fd7a:	e709      	b.n	1000fb90 <wc_AesSetKeyLocal.isra.0+0x120>
1000fd7c:	f8df 8024 	ldr.w	r8, [pc, #36]	@ 1000fda4 <wc_AesSetKeyLocal.isra.0+0x334>
1000fd80:	68a3      	ldr	r3, [r4, #8]
1000fd82:	9301      	str	r3, [sp, #4]
1000fd84:	e9d4 ec00 	ldrd	lr, ip, [r4]
1000fd88:	68e0      	ldr	r0, [r4, #12]
1000fd8a:	4b04      	ldr	r3, [pc, #16]	@ (1000fd9c <wc_AesSetKeyLocal.isra.0+0x32c>)
1000fd8c:	f108 091c 	add.w	r9, r8, #28
1000fd90:	4622      	mov	r2, r4
1000fd92:	e036      	b.n	1000fe02 <wc_AesSetKeyLocal.isra.0+0x392>
1000fd94:	00010101 	.word	0x00010101
1000fd98:	1001a1b4 	.word	0x1001a1b4
1000fd9c:	100191b4 	.word	0x100191b4
1000fda0:	100181b4 	.word	0x100181b4
1000fda4:	1001a1b0 	.word	0x1001a1b0
1000fda8:	f3c0 4707 	ubfx	r7, r0, #16, #8
1000fdac:	f507 7740 	add.w	r7, r7, #768	@ 0x300
1000fdb0:	6956      	ldr	r6, [r2, #20]
1000fdb2:	f853 7027 	ldr.w	r7, [r3, r7, lsl #2]
1000fdb6:	f407 0a7f 	and.w	sl, r7, #16711680	@ 0xff0000
1000fdba:	f3c0 2707 	ubfx	r7, r0, #8, #8
1000fdbe:	f853 7027 	ldr.w	r7, [r3, r7, lsl #2]
1000fdc2:	f407 477f 	and.w	r7, r7, #65280	@ 0xff00
1000fdc6:	ea4a 0a07 	orr.w	sl, sl, r7
1000fdca:	0e07      	lsrs	r7, r0, #24
1000fdcc:	f507 7700 	add.w	r7, r7, #512	@ 0x200
1000fdd0:	f853 7027 	ldr.w	r7, [r3, r7, lsl #2]
1000fdd4:	f007 4b7f 	and.w	fp, r7, #4278190080	@ 0xff000000
1000fdd8:	b2c7      	uxtb	r7, r0
1000fdda:	f507 7780 	add.w	r7, r7, #256	@ 0x100
1000fdde:	f813 7027 	ldrb.w	r7, [r3, r7, lsl #2]
1000fde2:	ea4b 0b07 	orr.w	fp, fp, r7
1000fde6:	6917      	ldr	r7, [r2, #16]
1000fde8:	ea8a 0a07 	eor.w	sl, sl, r7
1000fdec:	ea8a 070b 	eor.w	r7, sl, fp
1000fdf0:	6317      	str	r7, [r2, #48]	@ 0x30
1000fdf2:	4077      	eors	r7, r6
1000fdf4:	6996      	ldr	r6, [r2, #24]
1000fdf6:	6357      	str	r7, [r2, #52]	@ 0x34
1000fdf8:	4077      	eors	r7, r6
1000fdfa:	4079      	eors	r1, r7
1000fdfc:	e9c2 710e 	strd	r7, r1, [r2, #56]	@ 0x38
1000fe00:	3220      	adds	r2, #32
1000fe02:	69d1      	ldr	r1, [r2, #28]
1000fe04:	f858 af04 	ldr.w	sl, [r8, #4]!
1000fe08:	9e01      	ldr	r6, [sp, #4]
1000fe0a:	b2cf      	uxtb	r7, r1
1000fe0c:	ea4f 6b11 	mov.w	fp, r1, lsr #24
1000fe10:	f50b 7b80 	add.w	fp, fp, #256	@ 0x100
1000fe14:	f853 7027 	ldr.w	r7, [r3, r7, lsl #2]
1000fe18:	f813 b02b 	ldrb.w	fp, [r3, fp, lsl #2]
1000fe1c:	f407 477f 	and.w	r7, r7, #65280	@ 0xff00
1000fe20:	ea47 070b 	orr.w	r7, r7, fp
1000fe24:	ea87 070a 	eor.w	r7, r7, sl
1000fe28:	f3c1 4a07 	ubfx	sl, r1, #16, #8
1000fe2c:	f50a 7a00 	add.w	sl, sl, #512	@ 0x200
1000fe30:	45c1      	cmp	r9, r8
1000fe32:	f853 a02a 	ldr.w	sl, [r3, sl, lsl #2]
1000fe36:	f00a 4a7f 	and.w	sl, sl, #4278190080	@ 0xff000000
1000fe3a:	ea87 070a 	eor.w	r7, r7, sl
1000fe3e:	f3c1 2a07 	ubfx	sl, r1, #8, #8
1000fe42:	f50a 7a40 	add.w	sl, sl, #768	@ 0x300
1000fe46:	f853 a02a 	ldr.w	sl, [r3, sl, lsl #2]
1000fe4a:	f40a 0a7f 	and.w	sl, sl, #16711680	@ 0xff0000
1000fe4e:	ea87 070a 	eor.w	r7, r7, sl
1000fe52:	ea8e 0e07 	eor.w	lr, lr, r7
1000fe56:	ea8c 0c0e 	eor.w	ip, ip, lr
1000fe5a:	ea86 060c 	eor.w	r6, r6, ip
1000fe5e:	ea80 0006 	eor.w	r0, r0, r6
1000fe62:	e9c2 ec08 	strd	lr, ip, [r2, #32]
1000fe66:	e9c2 600a 	strd	r6, r0, [r2, #40]	@ 0x28
1000fe6a:	9601      	str	r6, [sp, #4]
1000fe6c:	d19c      	bne.n	1000fda8 <wc_AesSetKeyLocal.isra.0+0x338>
1000fe6e:	e683      	b.n	1000fb78 <wc_AesSetKeyLocal.isra.0+0x108>
1000fe70:	f8df 8098 	ldr.w	r8, [pc, #152]	@ 1000ff0c <wc_AesSetKeyLocal.isra.0+0x49c>
1000fe74:	f8d4 c000 	ldr.w	ip, [r4]
1000fe78:	6866      	ldr	r6, [r4, #4]
1000fe7a:	4b25      	ldr	r3, [pc, #148]	@ (1000ff10 <wc_AesSetKeyLocal.isra.0+0x4a0>)
1000fe7c:	e9d4 7e02 	ldrd	r7, lr, [r4, #8]
1000fe80:	f108 0920 	add.w	r9, r8, #32
1000fe84:	4620      	mov	r0, r4
1000fe86:	e006      	b.n	1000fe96 <wc_AesSetKeyLocal.isra.0+0x426>
1000fe88:	6901      	ldr	r1, [r0, #16]
1000fe8a:	ea8e 0101 	eor.w	r1, lr, r1
1000fe8e:	404a      	eors	r2, r1
1000fe90:	e9c0 120a 	strd	r1, r2, [r0, #40]	@ 0x28
1000fe94:	3018      	adds	r0, #24
1000fe96:	6942      	ldr	r2, [r0, #20]
1000fe98:	f858 af04 	ldr.w	sl, [r8, #4]!
1000fe9c:	b2d1      	uxtb	r1, r2
1000fe9e:	ea4f 6b12 	mov.w	fp, r2, lsr #24
1000fea2:	f50b 7b80 	add.w	fp, fp, #256	@ 0x100
1000fea6:	f853 1021 	ldr.w	r1, [r3, r1, lsl #2]
1000feaa:	f813 b02b 	ldrb.w	fp, [r3, fp, lsl #2]
1000feae:	f401 417f 	and.w	r1, r1, #65280	@ 0xff00
1000feb2:	ea41 010b 	orr.w	r1, r1, fp
1000feb6:	ea81 010a 	eor.w	r1, r1, sl
1000feba:	f3c2 4a07 	ubfx	sl, r2, #16, #8
1000febe:	f50a 7a00 	add.w	sl, sl, #512	@ 0x200
1000fec2:	45c1      	cmp	r9, r8
1000fec4:	f853 a02a 	ldr.w	sl, [r3, sl, lsl #2]
1000fec8:	f00a 4a7f 	and.w	sl, sl, #4278190080	@ 0xff000000
1000fecc:	ea81 010a 	eor.w	r1, r1, sl
1000fed0:	f3c2 2a07 	ubfx	sl, r2, #8, #8
1000fed4:	f50a 7a40 	add.w	sl, sl, #768	@ 0x300
1000fed8:	f853 a02a 	ldr.w	sl, [r3, sl, lsl #2]
1000fedc:	f40a 0a7f 	and.w	sl, sl, #16711680	@ 0xff0000
1000fee0:	ea81 010a 	eor.w	r1, r1, sl
1000fee4:	ea8c 0c01 	eor.w	ip, ip, r1
1000fee8:	ea86 060c 	eor.w	r6, r6, ip
1000feec:	ea87 0706 	eor.w	r7, r7, r6
1000fef0:	ea8e 0e07 	eor.w	lr, lr, r7
1000fef4:	e9c0 c606 	strd	ip, r6, [r0, #24]
1000fef8:	e9c0 7e08 	strd	r7, lr, [r0, #32]
1000fefc:	d1c4      	bne.n	1000fe88 <wc_AesSetKeyLocal.isra.0+0x418>
1000fefe:	e63b      	b.n	1000fb78 <wc_AesSetKeyLocal.isra.0+0x108>
1000ff00:	f06f 00ac 	mvn.w	r0, #172	@ 0xac
1000ff04:	e645      	b.n	1000fb92 <wc_AesSetKeyLocal.isra.0+0x122>
1000ff06:	f06f 00ac 	mvn.w	r0, #172	@ 0xac
1000ff0a:	4770      	bx	lr
1000ff0c:	1001a1b0 	.word	0x1001a1b0
1000ff10:	100191b4 	.word	0x100191b4

1000ff14 <wc_AesSetKey>:
1000ff14:	b410      	push	{r4}
1000ff16:	9c01      	ldr	r4, [sp, #4]
1000ff18:	b128      	cbz	r0, 1000ff26 <wc_AesSetKey+0x12>
1000ff1a:	2af0      	cmp	r2, #240	@ 0xf0
1000ff1c:	d803      	bhi.n	1000ff26 <wc_AesSetKey+0x12>
1000ff1e:	9401      	str	r4, [sp, #4]
1000ff20:	bc10      	pop	{r4}
1000ff22:	f7ff bda5 	b.w	1000fa70 <wc_AesSetKeyLocal.isra.0>
1000ff26:	f06f 00ac 	mvn.w	r0, #172	@ 0xac
1000ff2a:	bc10      	pop	{r4}
1000ff2c:	4770      	bx	lr
1000ff2e:	bf00      	nop

1000ff30 <wc_AesEncryptDirect>:
1000ff30:	b190      	cbz	r0, 1000ff58 <wc_AesEncryptDirect+0x28>
1000ff32:	b508      	push	{r3, lr}
1000ff34:	4613      	mov	r3, r2
1000ff36:	460a      	mov	r2, r1
1000ff38:	4619      	mov	r1, r3
1000ff3a:	f8d0 30f0 	ldr.w	r3, [r0, #240]	@ 0xf0
1000ff3e:	085b      	lsrs	r3, r3, #1
1000ff40:	f103 3cff 	add.w	ip, r3, #4294967295	@ 0xffffffff
1000ff44:	f1bc 0f06 	cmp.w	ip, #6
1000ff48:	d803      	bhi.n	1000ff52 <wc_AesEncryptDirect+0x22>
1000ff4a:	f7fe fe9f 	bl	1000ec8c <AesEncrypt_C>
1000ff4e:	2000      	movs	r0, #0
1000ff50:	bd08      	pop	{r3, pc}
1000ff52:	f06f 00e1 	mvn.w	r0, #225	@ 0xe1
1000ff56:	bd08      	pop	{r3, pc}
1000ff58:	f06f 00ac 	mvn.w	r0, #172	@ 0xac
1000ff5c:	4770      	bx	lr
1000ff5e:	bf00      	nop

1000ff60 <mxc_assert>:
1000ff60:	b508      	push	{r3, lr}
1000ff62:	4603      	mov	r3, r0
1000ff64:	4801      	ldr	r0, [pc, #4]	@ (1000ff6c <mxc_assert+0xc>)
1000ff66:	f002 fc05 	bl	10012774 <printf>
1000ff6a:	e7fe      	b.n	1000ff6a <mxc_assert+0xa>
1000ff6c:	10017f04 	.word	0x10017f04

1000ff70 <GPIO0_IRQHandler>:
1000ff70:	2000      	movs	r0, #0
1000ff72:	f000 bded 	b.w	10010b50 <MXC_GPIO_Handler>
1000ff76:	bf00      	nop

1000ff78 <GPIO1_IRQHandler>:
1000ff78:	2001      	movs	r0, #1
1000ff7a:	f000 bde9 	b.w	10010b50 <MXC_GPIO_Handler>
1000ff7e:	bf00      	nop

1000ff80 <Board_Init>:
1000ff80:	b510      	push	{r4, lr}
1000ff82:	2000      	movs	r0, #0
1000ff84:	f000 fb66 	bl	10010654 <MXC_SYS_ClockEnable>
1000ff88:	2001      	movs	r0, #1
1000ff8a:	f000 fb63 	bl	10010654 <MXC_SYS_ClockEnable>
1000ff8e:	2040      	movs	r0, #64	@ 0x40
1000ff90:	f000 fb60 	bl	10010654 <MXC_SYS_ClockEnable>
1000ff94:	4b10      	ldr	r3, [pc, #64]	@ (1000ffd8 <Board_Init+0x58>)
1000ff96:	2202      	movs	r2, #2
1000ff98:	6818      	ldr	r0, [r3, #0]
1000ff9a:	f44f 31e1 	mov.w	r1, #115200	@ 0x1c200
1000ff9e:	f000 fed9 	bl	10010d54 <MXC_UART_Init>
1000ffa2:	1e04      	subs	r4, r0, #0
1000ffa4:	db0c      	blt.n	1000ffc0 <Board_Init+0x40>
1000ffa6:	f000 f8eb 	bl	10010180 <PB_Init>
1000ffaa:	b958      	cbnz	r0, 1000ffc4 <Board_Init+0x44>
1000ffac:	f000 f888 	bl	100100c0 <LED_Init>
1000ffb0:	4604      	mov	r4, r0
1000ffb2:	b960      	cbnz	r0, 1000ffce <Board_Init+0x4e>
1000ffb4:	4b09      	ldr	r3, [pc, #36]	@ (1000ffdc <Board_Init+0x5c>)
1000ffb6:	480a      	ldr	r0, [pc, #40]	@ (1000ffe0 <Board_Init+0x60>)
1000ffb8:	2243      	movs	r2, #67	@ 0x43
1000ffba:	60da      	str	r2, [r3, #12]
1000ffbc:	f000 fac8 	bl	10010550 <MXC_Delay>
1000ffc0:	4620      	mov	r0, r4
1000ffc2:	bd10      	pop	{r4, pc}
1000ffc4:	4907      	ldr	r1, [pc, #28]	@ (1000ffe4 <Board_Init+0x64>)
1000ffc6:	4808      	ldr	r0, [pc, #32]	@ (1000ffe8 <Board_Init+0x68>)
1000ffc8:	2265      	movs	r2, #101	@ 0x65
1000ffca:	f7ff ffc9 	bl	1000ff60 <mxc_assert>
1000ffce:	4905      	ldr	r1, [pc, #20]	@ (1000ffe4 <Board_Init+0x64>)
1000ffd0:	4805      	ldr	r0, [pc, #20]	@ (1000ffe8 <Board_Init+0x68>)
1000ffd2:	226a      	movs	r2, #106	@ 0x6a
1000ffd4:	f7ff ffc4 	bl	1000ff60 <mxc_assert>
1000ffd8:	20000000 	.word	0x20000000
1000ffdc:	40004400 	.word	0x40004400
1000ffe0:	00030d40 	.word	0x00030d40
1000ffe4:	10017f20 	.word	0x10017f20
1000ffe8:	10017f68 	.word	0x10017f68

1000ffec <NMI_Handler>:
1000ffec:	bf00      	nop
1000ffee:	4770      	bx	lr

1000fff0 <_close>:
1000fff0:	f04f 30ff 	mov.w	r0, #4294967295	@ 0xffffffff
1000fff4:	4770      	bx	lr
1000fff6:	bf00      	nop

1000fff8 <_isatty>:
1000fff8:	f04f 30ff 	mov.w	r0, #4294967295	@ 0xffffffff
1000fffc:	4770      	bx	lr
1000fffe:	bf00      	nop

10010000 <_lseek>:
10010000:	f04f 30ff 	mov.w	r0, #4294967295	@ 0xffffffff
10010004:	4770      	bx	lr
10010006:	bf00      	nop

10010008 <_fstat>:
10010008:	f04f 30ff 	mov.w	r0, #4294967295	@ 0xffffffff
1001000c:	4770      	bx	lr
1001000e:	bf00      	nop

10010010 <_read>:
10010010:	e92d 41f0 	stmdb	sp!, {r4, r5, r6, r7, r8, lr}
10010014:	bb00      	cbnz	r0, 10010058 <_read+0x48>
10010016:	2a00      	cmp	r2, #0
10010018:	4617      	mov	r7, r2
1001001a:	4605      	mov	r5, r0
1001001c:	dd17      	ble.n	1001004e <_read+0x3e>
1001001e:	4e12      	ldr	r6, [pc, #72]	@ (10010068 <_read+0x58>)
10010020:	460c      	mov	r4, r1
10010022:	e001      	b.n	10010028 <_read+0x18>
10010024:	42af      	cmp	r7, r5
10010026:	d014      	beq.n	10010052 <_read+0x42>
10010028:	4630      	mov	r0, r6
1001002a:	f000 ff8b 	bl	10010f44 <MXC_UART_ReadCharacter>
1001002e:	b2c1      	uxtb	r1, r0
10010030:	7021      	strb	r1, [r4, #0]
10010032:	4630      	mov	r0, r6
10010034:	f000 ff88 	bl	10010f48 <MXC_UART_WriteCharacter>
10010038:	46a0      	mov	r8, r4
1001003a:	f814 3b01 	ldrb.w	r3, [r4], #1
1001003e:	2b0d      	cmp	r3, #13
10010040:	f105 0501 	add.w	r5, r5, #1
10010044:	d1ee      	bne.n	10010024 <_read+0x14>
10010046:	230a      	movs	r3, #10
10010048:	f888 3000 	strb.w	r3, [r8]
1001004c:	4628      	mov	r0, r5
1001004e:	e8bd 81f0 	ldmia.w	sp!, {r4, r5, r6, r7, r8, pc}
10010052:	4638      	mov	r0, r7
10010054:	e8bd 81f0 	ldmia.w	sp!, {r4, r5, r6, r7, r8, pc}
10010058:	f001 fb5e 	bl	10011718 <__errno>
1001005c:	2309      	movs	r3, #9
1001005e:	6003      	str	r3, [r0, #0]
10010060:	f04f 30ff 	mov.w	r0, #4294967295	@ 0xffffffff
10010064:	e7f3      	b.n	1001004e <_read+0x3e>
10010066:	bf00      	nop
10010068:	40042000 	.word	0x40042000

1001006c <_write>:
1001006c:	b5f8      	push	{r3, r4, r5, r6, r7, lr}
1001006e:	1e43      	subs	r3, r0, #1
10010070:	2b01      	cmp	r3, #1
10010072:	d81c      	bhi.n	100100ae <_write+0x42>
10010074:	2a00      	cmp	r2, #0
10010076:	4617      	mov	r7, r2
10010078:	dd17      	ble.n	100100aa <_write+0x3e>
1001007a:	1e53      	subs	r3, r2, #1
1001007c:	4e0f      	ldr	r6, [pc, #60]	@ (100100bc <_write+0x50>)
1001007e:	1e4c      	subs	r4, r1, #1
10010080:	18cd      	adds	r5, r1, r3
10010082:	e004      	b.n	1001008e <_write+0x22>
10010084:	4630      	mov	r0, r6
10010086:	f000 ff5f 	bl	10010f48 <MXC_UART_WriteCharacter>
1001008a:	42ac      	cmp	r4, r5
1001008c:	d00d      	beq.n	100100aa <_write+0x3e>
1001008e:	f814 1f01 	ldrb.w	r1, [r4, #1]!
10010092:	290a      	cmp	r1, #10
10010094:	d1f6      	bne.n	10010084 <_write+0x18>
10010096:	210d      	movs	r1, #13
10010098:	4630      	mov	r0, r6
1001009a:	f000 ff55 	bl	10010f48 <MXC_UART_WriteCharacter>
1001009e:	7821      	ldrb	r1, [r4, #0]
100100a0:	4630      	mov	r0, r6
100100a2:	f000 ff51 	bl	10010f48 <MXC_UART_WriteCharacter>
100100a6:	42ac      	cmp	r4, r5
100100a8:	d1f1      	bne.n	1001008e <_write+0x22>
100100aa:	4638      	mov	r0, r7
100100ac:	bdf8      	pop	{r3, r4, r5, r6, r7, pc}
100100ae:	f001 fb33 	bl	10011718 <__errno>
100100b2:	2309      	movs	r3, #9
100100b4:	6003      	str	r3, [r0, #0]
100100b6:	f04f 30ff 	mov.w	r0, #4294967295	@ 0xffffffff
100100ba:	bdf8      	pop	{r3, r4, r5, r6, r7, pc}
100100bc:	40042000 	.word	0x40042000

100100c0 <LED_Init>:
100100c0:	b5f8      	push	{r3, r4, r5, r6, r7, lr}
100100c2:	4b0d      	ldr	r3, [pc, #52]	@ (100100f8 <LED_Init+0x38>)
100100c4:	681f      	ldr	r7, [r3, #0]
100100c6:	b1a7      	cbz	r7, 100100f2 <LED_Init+0x32>
100100c8:	2500      	movs	r5, #0
100100ca:	4c0c      	ldr	r4, [pc, #48]	@ (100100fc <LED_Init+0x3c>)
100100cc:	462e      	mov	r6, r5
100100ce:	e9d4 0100 	ldrd	r0, r1, [r4]
100100d2:	f000 fd0f 	bl	10010af4 <MXC_GPIO_OutSet>
100100d6:	4620      	mov	r0, r4
100100d8:	f000 fbea 	bl	100108b0 <MXC_GPIO_Config>
100100dc:	3501      	adds	r5, #1
100100de:	2800      	cmp	r0, #0
100100e0:	bf18      	it	ne
100100e2:	f06f 0607 	mvnne.w	r6, #7
100100e6:	42af      	cmp	r7, r5
100100e8:	f104 040c 	add.w	r4, r4, #12
100100ec:	d1ef      	bne.n	100100ce <LED_Init+0xe>
100100ee:	4630      	mov	r0, r6
100100f0:	bdf8      	pop	{r3, r4, r5, r6, r7, pc}
100100f2:	463e      	mov	r6, r7
100100f4:	4630      	mov	r0, r6
100100f6:	bdf8      	pop	{r3, r4, r5, r6, r7, pc}
100100f8:	1001a1dc 	.word	0x1001a1dc
100100fc:	1001a1e0 	.word	0x1001a1e0

10010100 <LED_On>:
10010100:	4b0b      	ldr	r3, [pc, #44]	@ (10010130 <LED_On+0x30>)
10010102:	681b      	ldr	r3, [r3, #0]
10010104:	4283      	cmp	r3, r0
10010106:	b510      	push	{r4, lr}
10010108:	4604      	mov	r4, r0
1001010a:	d90b      	bls.n	10010124 <LED_On+0x24>
1001010c:	4b09      	ldr	r3, [pc, #36]	@ (10010134 <LED_On+0x34>)
1001010e:	eb04 0444 	add.w	r4, r4, r4, lsl #1
10010112:	eb03 0284 	add.w	r2, r3, r4, lsl #2
10010116:	f853 0024 	ldr.w	r0, [r3, r4, lsl #2]
1001011a:	6851      	ldr	r1, [r2, #4]
1001011c:	e8bd 4010 	ldmia.w	sp!, {r4, lr}
10010120:	f000 bcfe 	b.w	10010b20 <MXC_GPIO_OutClr>
10010124:	4904      	ldr	r1, [pc, #16]	@ (10010138 <LED_On+0x38>)
10010126:	4805      	ldr	r0, [pc, #20]	@ (1001013c <LED_On+0x3c>)
10010128:	222f      	movs	r2, #47	@ 0x2f
1001012a:	f7ff ff19 	bl	1000ff60 <mxc_assert>
1001012e:	e7ed      	b.n	1001010c <LED_On+0xc>
10010130:	1001a1dc 	.word	0x1001a1dc
10010134:	1001a1e0 	.word	0x1001a1e0
10010138:	10017f70 	.word	0x10017f70
1001013c:	10017fa4 	.word	0x10017fa4

10010140 <LED_Off>:
10010140:	4b0b      	ldr	r3, [pc, #44]	@ (10010170 <LED_Off+0x30>)
10010142:	681b      	ldr	r3, [r3, #0]
10010144:	4283      	cmp	r3, r0
10010146:	b510      	push	{r4, lr}
10010148:	4604      	mov	r4, r0
1001014a:	d90b      	bls.n	10010164 <LED_Off+0x24>
1001014c:	4b09      	ldr	r3, [pc, #36]	@ (10010174 <LED_Off+0x34>)
1001014e:	eb04 0444 	add.w	r4, r4, r4, lsl #1
10010152:	eb03 0284 	add.w	r2, r3, r4, lsl #2
10010156:	f853 0024 	ldr.w	r0, [r3, r4, lsl #2]
1001015a:	6851      	ldr	r1, [r2, #4]
1001015c:	e8bd 4010 	ldmia.w	sp!, {r4, lr}
10010160:	f000 bcc8 	b.w	10010af4 <MXC_GPIO_OutSet>
10010164:	4904      	ldr	r1, [pc, #16]	@ (10010178 <LED_Off+0x38>)
10010166:	4805      	ldr	r0, [pc, #20]	@ (1001017c <LED_Off+0x3c>)
10010168:	223a      	movs	r2, #58	@ 0x3a
1001016a:	f7ff fef9 	bl	1000ff60 <mxc_assert>
1001016e:	e7ed      	b.n	1001014c <LED_Off+0xc>
10010170:	1001a1dc 	.word	0x1001a1dc
10010174:	1001a1e0 	.word	0x1001a1e0
10010178:	10017f70 	.word	0x10017f70
1001017c:	10017fa4 	.word	0x10017fa4

10010180 <PB_Init>:
10010180:	b5f8      	push	{r3, r4, r5, r6, r7, lr}
10010182:	4b0b      	ldr	r3, [pc, #44]	@ (100101b0 <PB_Init+0x30>)
10010184:	681f      	ldr	r7, [r3, #0]
10010186:	b187      	cbz	r7, 100101aa <PB_Init+0x2a>
10010188:	2400      	movs	r4, #0
1001018a:	4d0a      	ldr	r5, [pc, #40]	@ (100101b4 <PB_Init+0x34>)
1001018c:	4626      	mov	r6, r4
1001018e:	4628      	mov	r0, r5
10010190:	f000 fb8e 	bl	100108b0 <MXC_GPIO_Config>
10010194:	3401      	adds	r4, #1
10010196:	2800      	cmp	r0, #0
10010198:	bf18      	it	ne
1001019a:	f06f 0607 	mvnne.w	r6, #7
1001019e:	42bc      	cmp	r4, r7
100101a0:	f105 050c 	add.w	r5, r5, #12
100101a4:	d1f3      	bne.n	1001018e <PB_Init+0xe>
100101a6:	4630      	mov	r0, r6
100101a8:	bdf8      	pop	{r3, r4, r5, r6, r7, pc}
100101aa:	463e      	mov	r6, r7
100101ac:	4630      	mov	r0, r6
100101ae:	bdf8      	pop	{r3, r4, r5, r6, r7, pc}
100101b0:	1001a204 	.word	0x1001a204
100101b4:	1001a208 	.word	0x1001a208

100101b8 <Reset_Handler>:
100101b8:	4847      	ldr	r0, [pc, #284]	@ (100102d8 <LPCMP_IRQHandler+0x2>)
100101ba:	4685      	mov	sp, r0
100101bc:	4847      	ldr	r0, [pc, #284]	@ (100102dc <LPCMP_IRQHandler+0x6>)
100101be:	4780      	blx	r0
100101c0:	b980      	cbnz	r0, 100101e4 <.SKIPRAMINIT>
100101c2:	4947      	ldr	r1, [pc, #284]	@ (100102e0 <LPCMP_IRQHandler+0xa>)
100101c4:	4a47      	ldr	r2, [pc, #284]	@ (100102e4 <LPCMP_IRQHandler+0xe>)
100101c6:	4b48      	ldr	r3, [pc, #288]	@ (100102e8 <LPCMP_IRQHandler+0x12>)
100101c8:	1a9b      	subs	r3, r3, r2
100101ca:	dd03      	ble.n	100101d4 <Reset_Handler+0x1c>
100101cc:	3b04      	subs	r3, #4
100101ce:	58c8      	ldr	r0, [r1, r3]
100101d0:	50d0      	str	r0, [r2, r3]
100101d2:	dcfb      	bgt.n	100101cc <Reset_Handler+0x14>
100101d4:	4945      	ldr	r1, [pc, #276]	@ (100102ec <LPCMP_IRQHandler+0x16>)
100101d6:	4a46      	ldr	r2, [pc, #280]	@ (100102f0 <LPCMP_IRQHandler+0x1a>)
100101d8:	2000      	movs	r0, #0
100101da:	4291      	cmp	r1, r2
100101dc:	bfbc      	itt	lt
100101de:	f841 0b04 	strlt.w	r0, [r1], #4
100101e2:	e7fa      	blt.n	100101da <Reset_Handler+0x22>

100101e4 <.SKIPRAMINIT>:
100101e4:	4843      	ldr	r0, [pc, #268]	@ (100102f4 <LPCMP_IRQHandler+0x1e>)
100101e6:	4780      	blx	r0
100101e8:	4843      	ldr	r0, [pc, #268]	@ (100102f8 <LPCMP_IRQHandler+0x22>)
100101ea:	4780      	blx	r0
100101ec:	4843      	ldr	r0, [pc, #268]	@ (100102fc <LPCMP_IRQHandler+0x26>)
100101ee:	4780      	blx	r0

100101f0 <.SPIN>:
100101f0:	f7ff fffe 	bl	100101f0 <.SPIN>
100101f4:	e7fe      	b.n	100101f4 <.SPIN+0x4>

100101f6 <HardFault_Handler>:
100101f6:	e7fe      	b.n	100101f6 <HardFault_Handler>

100101f8 <MemManage_Handler>:
100101f8:	e7fe      	b.n	100101f8 <MemManage_Handler>

100101fa <BusFault_Handler>:
100101fa:	e7fe      	b.n	100101fa <BusFault_Handler>

100101fc <UsageFault_Handler>:
100101fc:	e7fe      	b.n	100101fc <UsageFault_Handler>

100101fe <SVC_Handler>:
100101fe:	e7fe      	b.n	100101fe <SVC_Handler>

10010200 <DebugMon_Handler>:
10010200:	e7fe      	b.n	10010200 <DebugMon_Handler>

10010202 <PendSV_Handler>:
10010202:	e7fe      	b.n	10010202 <PendSV_Handler>

10010204 <SysTick_Handler>:
10010204:	e7fe      	b.n	10010204 <SysTick_Handler>

10010206 <Default_Handler>:
10010206:	e7fe      	b.n	10010206 <Default_Handler>

10010208 <PF_IRQHandler>:
10010208:	e7fe      	b.n	10010208 <PF_IRQHandler>

1001020a <WDT0_IRQHandler>:
1001020a:	e7fe      	b.n	1001020a <WDT0_IRQHandler>

1001020c <RSV02_IRQHandler>:
1001020c:	e7fe      	b.n	1001020c <RSV02_IRQHandler>

1001020e <RTC_IRQHandler>:
1001020e:	e7fe      	b.n	1001020e <RTC_IRQHandler>

10010210 <TRNG_IRQHandler>:
10010210:	e7fe      	b.n	10010210 <TRNG_IRQHandler>

10010212 <TMR0_IRQHandler>:
10010212:	e7fe      	b.n	10010212 <TMR0_IRQHandler>

10010214 <TMR1_IRQHandler>:
10010214:	e7fe      	b.n	10010214 <TMR1_IRQHandler>

10010216 <TMR2_IRQHandler>:
10010216:	e7fe      	b.n	10010216 <TMR2_IRQHandler>

10010218 <TMR3_IRQHandler>:
10010218:	e7fe      	b.n	10010218 <TMR3_IRQHandler>

1001021a <TMR4_IRQHandler>:
1001021a:	e7fe      	b.n	1001021a <TMR4_IRQHandler>

1001021c <TMR5_IRQHandler>:
1001021c:	e7fe      	b.n	1001021c <TMR5_IRQHandler>

1001021e <RSV11_IRQHandler>:
1001021e:	e7fe      	b.n	1001021e <RSV11_IRQHandler>

10010220 <RSV12_IRQHandler>:
10010220:	e7fe      	b.n	10010220 <RSV12_IRQHandler>

10010222 <I2C0_IRQHandler>:
10010222:	e7fe      	b.n	10010222 <I2C0_IRQHandler>

10010224 <UART0_IRQHandler>:
10010224:	e7fe      	b.n	10010224 <UART0_IRQHandler>

10010226 <UART1_IRQHandler>:
10010226:	e7fe      	b.n	10010226 <UART1_IRQHandler>

10010228 <SPI1_IRQHandler>:
10010228:	e7fe      	b.n	10010228 <SPI1_IRQHandler>

1001022a <RSV17_IRQHandler>:
1001022a:	e7fe      	b.n	1001022a <RSV17_IRQHandler>

1001022c <RSV18_IRQHandler>:
1001022c:	e7fe      	b.n	1001022c <RSV18_IRQHandler>

1001022e <RSV19_IRQHandler>:
1001022e:	e7fe      	b.n	1001022e <RSV19_IRQHandler>

10010230 <ADC_IRQHandler>:
10010230:	e7fe      	b.n	10010230 <ADC_IRQHandler>

10010232 <RSV21_IRQHandler>:
10010232:	e7fe      	b.n	10010232 <RSV21_IRQHandler>

10010234 <RSV22_IRQHandler>:
10010234:	e7fe      	b.n	10010234 <RSV22_IRQHandler>

10010236 <FLC0_IRQHandler>:
10010236:	e7fe      	b.n	10010236 <FLC0_IRQHandler>
10010238:	e7fe      	b.n	10010238 <FLC0_IRQHandler+0x2>
1001023a:	e7fe      	b.n	1001023a <FLC0_IRQHandler+0x4>

1001023c <GPIO2_IRQHandler>:
1001023c:	e7fe      	b.n	1001023c <GPIO2_IRQHandler>

1001023e <RSV27_IRQHandler>:
1001023e:	e7fe      	b.n	1001023e <RSV27_IRQHandler>

10010240 <DMA0_IRQHandler>:
10010240:	e7fe      	b.n	10010240 <DMA0_IRQHandler>

10010242 <DMA1_IRQHandler>:
10010242:	e7fe      	b.n	10010242 <DMA1_IRQHandler>

10010244 <DMA2_IRQHandler>:
10010244:	e7fe      	b.n	10010244 <DMA2_IRQHandler>

10010246 <DMA3_IRQHandler>:
10010246:	e7fe      	b.n	10010246 <DMA3_IRQHandler>

10010248 <RSV32_IRQHandler>:
10010248:	e7fe      	b.n	10010248 <RSV32_IRQHandler>

1001024a <RSV33_IRQHandler>:
1001024a:	e7fe      	b.n	1001024a <RSV33_IRQHandler>

1001024c <UART2_IRQHandler>:
1001024c:	e7fe      	b.n	1001024c <UART2_IRQHandler>

1001024e <RSV35_IRQHandler>:
1001024e:	e7fe      	b.n	1001024e <RSV35_IRQHandler>

10010250 <I2C1_IRQHandler>:
10010250:	e7fe      	b.n	10010250 <I2C1_IRQHandler>

10010252 <RSV37_IRQHandler>:
10010252:	e7fe      	b.n	10010252 <RSV37_IRQHandler>

10010254 <RSV38_IRQHandler>:
10010254:	e7fe      	b.n	10010254 <RSV38_IRQHandler>

10010256 <RSV39_IRQHandler>:
10010256:	e7fe      	b.n	10010256 <RSV39_IRQHandler>

10010258 <RSV40_IRQHandler>:
10010258:	e7fe      	b.n	10010258 <RSV40_IRQHandler>

1001025a <RSV41_IRQHandler>:
1001025a:	e7fe      	b.n	1001025a <RSV41_IRQHandler>

1001025c <RSV42_IRQHandler>:
1001025c:	e7fe      	b.n	1001025c <RSV42_IRQHandler>

1001025e <RSV43_IRQHandler>:
1001025e:	e7fe      	b.n	1001025e <RSV43_IRQHandler>

10010260 <RSV44_IRQHandler>:
10010260:	e7fe      	b.n	10010260 <RSV44_IRQHandler>

10010262 <RSV45_IRQHandler>:
10010262:	e7fe      	b.n	10010262 <RSV45_IRQHandler>

10010264 <RSV46_IRQHandler>:
10010264:	e7fe      	b.n	10010264 <RSV46_IRQHandler>

10010266 <RSV47_IRQHandler>:
10010266:	e7fe      	b.n	10010266 <RSV47_IRQHandler>

10010268 <RSV48_IRQHandler>:
10010268:	e7fe      	b.n	10010268 <RSV48_IRQHandler>

1001026a <RSV49_IRQHandler>:
1001026a:	e7fe      	b.n	1001026a <RSV49_IRQHandler>

1001026c <RSV50_IRQHandler>:
1001026c:	e7fe      	b.n	1001026c <RSV50_IRQHandler>

1001026e <RSV51_IRQHandler>:
1001026e:	e7fe      	b.n	1001026e <RSV51_IRQHandler>

10010270 <RSV52_IRQHandler>:
10010270:	e7fe      	b.n	10010270 <RSV52_IRQHandler>

10010272 <WUT_IRQHandler>:
10010272:	e7fe      	b.n	10010272 <WUT_IRQHandler>

10010274 <GPIOWAKE_IRQHandler>:
10010274:	e7fe      	b.n	10010274 <GPIOWAKE_IRQHandler>

10010276 <RSV55_IRQHandler>:
10010276:	e7fe      	b.n	10010276 <RSV55_IRQHandler>

10010278 <SPI0_IRQHandler>:
10010278:	e7fe      	b.n	10010278 <SPI0_IRQHandler>

1001027a <WDT1_IRQHandler>:
1001027a:	e7fe      	b.n	1001027a <WDT1_IRQHandler>

1001027c <RSV58_IRQHandler>:
1001027c:	e7fe      	b.n	1001027c <RSV58_IRQHandler>

1001027e <PT_IRQHandler>:
1001027e:	e7fe      	b.n	1001027e <PT_IRQHandler>

10010280 <RSV60_IRQHandler>:
10010280:	e7fe      	b.n	10010280 <RSV60_IRQHandler>

10010282 <RSV61_IRQHandler>:
10010282:	e7fe      	b.n	10010282 <RSV61_IRQHandler>

10010284 <I2C2_IRQHandler>:
10010284:	e7fe      	b.n	10010284 <I2C2_IRQHandler>

10010286 <RISCV_IRQHandler>:
10010286:	e7fe      	b.n	10010286 <RISCV_IRQHandler>

10010288 <RSV64_IRQHandler>:
10010288:	e7fe      	b.n	10010288 <RSV64_IRQHandler>

1001028a <RSV65_IRQHandler>:
1001028a:	e7fe      	b.n	1001028a <RSV65_IRQHandler>

1001028c <RSV66_IRQHandler>:
1001028c:	e7fe      	b.n	1001028c <RSV66_IRQHandler>

1001028e <OWM_IRQHandler>:
1001028e:	e7fe      	b.n	1001028e <OWM_IRQHandler>

10010290 <RSV68_IRQHandler>:
10010290:	e7fe      	b.n	10010290 <RSV68_IRQHandler>

10010292 <RSV69_IRQHandler>:
10010292:	e7fe      	b.n	10010292 <RSV69_IRQHandler>

10010294 <RSV70_IRQHandler>:
10010294:	e7fe      	b.n	10010294 <RSV70_IRQHandler>

10010296 <RSV71_IRQHandler>:
10010296:	e7fe      	b.n	10010296 <RSV71_IRQHandler>

10010298 <RSV72_IRQHandler>:
10010298:	e7fe      	b.n	10010298 <RSV72_IRQHandler>

1001029a <RSV73_IRQHandler>:
1001029a:	e7fe      	b.n	1001029a <RSV73_IRQHandler>

1001029c <RSV74_IRQHandler>:
1001029c:	e7fe      	b.n	1001029c <RSV74_IRQHandler>

1001029e <RSV75_IRQHandler>:
1001029e:	e7fe      	b.n	1001029e <RSV75_IRQHandler>

100102a0 <RSV76_IRQHandler>:
100102a0:	e7fe      	b.n	100102a0 <RSV76_IRQHandler>

100102a2 <RSV77_IRQHandler>:
100102a2:	e7fe      	b.n	100102a2 <RSV77_IRQHandler>

100102a4 <RSV78_IRQHandler>:
100102a4:	e7fe      	b.n	100102a4 <RSV78_IRQHandler>

100102a6 <RSV79_IRQHandler>:
100102a6:	e7fe      	b.n	100102a6 <RSV79_IRQHandler>

100102a8 <RSV80_IRQHandler>:
100102a8:	e7fe      	b.n	100102a8 <RSV80_IRQHandler>

100102aa <RSV81_IRQHandler>:
100102aa:	e7fe      	b.n	100102aa <RSV81_IRQHandler>

100102ac <ECC_IRQHandler>:
100102ac:	e7fe      	b.n	100102ac <ECC_IRQHandler>

100102ae <DVS_IRQHandler>:
100102ae:	e7fe      	b.n	100102ae <DVS_IRQHandler>

100102b0 <SIMO_IRQHandler>:
100102b0:	e7fe      	b.n	100102b0 <SIMO_IRQHandler>

100102b2 <RSV85_IRQHandler>:
100102b2:	e7fe      	b.n	100102b2 <RSV85_IRQHandler>

100102b4 <RSV86_IRQHandler>:
100102b4:	e7fe      	b.n	100102b4 <RSV86_IRQHandler>

100102b6 <RSV87_IRQHandler>:
100102b6:	e7fe      	b.n	100102b6 <RSV87_IRQHandler>

100102b8 <UART3_IRQHandler>:
100102b8:	e7fe      	b.n	100102b8 <UART3_IRQHandler>

100102ba <RSV89_IRQHandler>:
100102ba:	e7fe      	b.n	100102ba <RSV89_IRQHandler>

100102bc <RSV90_IRQHandler>:
100102bc:	e7fe      	b.n	100102bc <RSV90_IRQHandler>

100102be <PCIF_IRQHandler>:
100102be:	e7fe      	b.n	100102be <PCIF_IRQHandler>

100102c0 <RSV92_IRQHandler>:
100102c0:	e7fe      	b.n	100102c0 <RSV92_IRQHandler>

100102c2 <RSV93_IRQHandler>:
100102c2:	e7fe      	b.n	100102c2 <RSV93_IRQHandler>

100102c4 <RSV94_IRQHandler>:
100102c4:	e7fe      	b.n	100102c4 <RSV94_IRQHandler>

100102c6 <RSV95_IRQHandler>:
100102c6:	e7fe      	b.n	100102c6 <RSV95_IRQHandler>

100102c8 <RSV96_IRQHandler>:
100102c8:	e7fe      	b.n	100102c8 <RSV96_IRQHandler>

100102ca <AES_IRQHandler>:
100102ca:	e7fe      	b.n	100102ca <AES_IRQHandler>

100102cc <RSV98_IRQHandler>:
100102cc:	e7fe      	b.n	100102cc <RSV98_IRQHandler>

100102ce <I2S_IRQHandler>:
100102ce:	e7fe      	b.n	100102ce <I2S_IRQHandler>

100102d0 <CNN_FIFO_IRQHandler>:
100102d0:	e7fe      	b.n	100102d0 <CNN_FIFO_IRQHandler>

100102d2 <CNN_IRQHandler>:
100102d2:	e7fe      	b.n	100102d2 <CNN_IRQHandler>

100102d4 <RSV102_IRQHandler>:
100102d4:	e7fe      	b.n	100102d4 <RSV102_IRQHandler>

100102d6 <LPCMP_IRQHandler>:
100102d6:	e7fe      	b.n	100102d6 <LPCMP_IRQHandler>
100102d8:	20020000 	.word	0x20020000
100102dc:	100103b9 	.word	0x100103b9
100102e0:	1001a5d8 	.word	0x1001a5d8
100102e4:	20000000 	.word	0x20000000
100102e8:	20000bc4 	.word	0x20000bc4
100102ec:	20000c00 	.word	0x20000c00
100102f0:	2000173c 	.word	0x2000173c
100102f4:	100103bd 	.word	0x100103bd
100102f8:	10011cc5 	.word	0x10011cc5
100102fc:	1000e889 	.word	0x1000e889

10010300 <_sbrk>:
10010300:	4a0b      	ldr	r2, [pc, #44]	@ (10010330 <_sbrk+0x30>)
10010302:	b508      	push	{r3, lr}
10010304:	4603      	mov	r3, r0
10010306:	6810      	ldr	r0, [r2, #0]
10010308:	b128      	cbz	r0, 10010316 <_sbrk+0x16>
1001030a:	490a      	ldr	r1, [pc, #40]	@ (10010334 <_sbrk+0x34>)
1001030c:	4403      	add	r3, r0
1001030e:	428b      	cmp	r3, r1
10010310:	d807      	bhi.n	10010322 <_sbrk+0x22>
10010312:	6013      	str	r3, [r2, #0]
10010314:	bd08      	pop	{r3, pc}
10010316:	4808      	ldr	r0, [pc, #32]	@ (10010338 <_sbrk+0x38>)
10010318:	4906      	ldr	r1, [pc, #24]	@ (10010334 <_sbrk+0x34>)
1001031a:	6010      	str	r0, [r2, #0]
1001031c:	4403      	add	r3, r0
1001031e:	428b      	cmp	r3, r1
10010320:	d9f7      	bls.n	10010312 <_sbrk+0x12>
10010322:	f001 f9f9 	bl	10011718 <__errno>
10010326:	230c      	movs	r3, #12
10010328:	6003      	str	r3, [r0, #0]
1001032a:	f04f 30ff 	mov.w	r0, #4294967295	@ 0xffffffff
1001032e:	bd08      	pop	{r3, pc}
10010330:	20000d18 	.word	0x20000d18
10010334:	2001f000 	.word	0x2001f000
10010338:	20001740 	.word	0x20001740

1001033c <_getpid>:
1001033c:	f06f 0010 	mvn.w	r0, #16
10010340:	4770      	bx	lr
10010342:	bf00      	nop

10010344 <_kill>:
10010344:	f06f 0010 	mvn.w	r0, #16
10010348:	4770      	bx	lr
1001034a:	bf00      	nop

1001034c <SystemCoreClockUpdate>:
1001034c:	f04f 4380 	mov.w	r3, #1073741824	@ 0x40000000
10010350:	689b      	ldr	r3, [r3, #8]
10010352:	f403 6360 	and.w	r3, r3, #3584	@ 0xe00
10010356:	f5b3 6f20 	cmp.w	r3, #2560	@ 0xa00
1001035a:	d01f      	beq.n	1001039c <SystemCoreClockUpdate+0x50>
1001035c:	d912      	bls.n	10010384 <SystemCoreClockUpdate+0x38>
1001035e:	f5b3 6f40 	cmp.w	r3, #3072	@ 0xc00
10010362:	d018      	beq.n	10010396 <SystemCoreClockUpdate+0x4a>
10010364:	4a10      	ldr	r2, [pc, #64]	@ (100103a8 <SystemCoreClockUpdate+0x5c>)
10010366:	4911      	ldr	r1, [pc, #68]	@ (100103ac <SystemCoreClockUpdate+0x60>)
10010368:	f5b3 6f60 	cmp.w	r3, #3584	@ 0xe00
1001036c:	bf08      	it	eq
1001036e:	460a      	moveq	r2, r1
10010370:	f04f 4380 	mov.w	r3, #1073741824	@ 0x40000000
10010374:	490e      	ldr	r1, [pc, #56]	@ (100103b0 <SystemCoreClockUpdate+0x64>)
10010376:	689b      	ldr	r3, [r3, #8]
10010378:	f3c3 1382 	ubfx	r3, r3, #6, #3
1001037c:	fa22 f303 	lsr.w	r3, r2, r3
10010380:	600b      	str	r3, [r1, #0]
10010382:	4770      	bx	lr
10010384:	b16b      	cbz	r3, 100103a2 <SystemCoreClockUpdate+0x56>
10010386:	4908      	ldr	r1, [pc, #32]	@ (100103a8 <SystemCoreClockUpdate+0x5c>)
10010388:	f247 5230 	movw	r2, #30000	@ 0x7530
1001038c:	f5b3 6fc0 	cmp.w	r3, #1536	@ 0x600
10010390:	bf18      	it	ne
10010392:	460a      	movne	r2, r1
10010394:	e7ec      	b.n	10010370 <SystemCoreClockUpdate+0x24>
10010396:	f44f 4200 	mov.w	r2, #32768	@ 0x8000
1001039a:	e7e9      	b.n	10010370 <SystemCoreClockUpdate+0x24>
1001039c:	f44f 02e1 	mov.w	r2, #7372800	@ 0x708000
100103a0:	e7e6      	b.n	10010370 <SystemCoreClockUpdate+0x24>
100103a2:	4a04      	ldr	r2, [pc, #16]	@ (100103b4 <SystemCoreClockUpdate+0x68>)
100103a4:	e7e4      	b.n	10010370 <SystemCoreClockUpdate+0x24>
100103a6:	bf00      	nop
100103a8:	05f5e100 	.word	0x05f5e100
100103ac:	047868c0 	.word	0x047868c0
100103b0:	2000173c 	.word	0x2000173c
100103b4:	03938700 	.word	0x03938700

100103b8 <PreInit>:
100103b8:	2000      	movs	r0, #0
100103ba:	4770      	bx	lr

100103bc <SystemInit>:
100103bc:	b510      	push	{r4, lr}
100103be:	4c0a      	ldr	r4, [pc, #40]	@ (100103e8 <SystemInit+0x2c>)
100103c0:	4b0a      	ldr	r3, [pc, #40]	@ (100103ec <SystemInit+0x30>)
100103c2:	60a3      	str	r3, [r4, #8]
100103c4:	480a      	ldr	r0, [pc, #40]	@ (100103f0 <SystemInit+0x34>)
100103c6:	f000 fc6b 	bl	10010ca0 <MXC_ICC_Enable>
100103ca:	f8d4 3088 	ldr.w	r3, [r4, #136]	@ 0x88
100103ce:	f443 0370 	orr.w	r3, r3, #15728640	@ 0xf00000
100103d2:	f8c4 3088 	str.w	r3, [r4, #136]	@ 0x88
100103d6:	f3bf 8f4f 	dsb	sy
100103da:	f3bf 8f6f 	isb	sy
100103de:	f7ff ffb5 	bl	1001034c <SystemCoreClockUpdate>
100103e2:	f7ff fdcd 	bl	1000ff80 <Board_Init>
100103e6:	bd10      	pop	{r4, pc}
100103e8:	e000ed00 	.word	0xe000ed00
100103ec:	1000e000 	.word	0x1000e000
100103f0:	4002a000 	.word	0x4002a000

100103f4 <MXC_DelayInit>:
    }
}

/* ************************************************************************** */
static void MXC_DelayInit(uint32_t us)
{
100103f4:	b538      	push	{r3, r4, r5, lr}
    uint32_t starttick, reload, ticks, lastticks;

    // Record the current tick value and clear the overflow flag
    starttick = SysTick->VAL;
100103f6:	f04f 23e0 	mov.w	r3, #3758153728	@ 0xe000e000

    // Save the state of control register (and clear the overflow flag)
    ctrl_save = SysTick->CTRL & ~SysTick_CTRL_COUNTFLAG_Msk;
100103fa:	4918      	ldr	r1, [pc, #96]	@ (1001045c <MXC_DelayInit+0x68>)
    starttick = SysTick->VAL;
100103fc:	699c      	ldr	r4, [r3, #24]
    ctrl_save = SysTick->CTRL & ~SysTick_CTRL_COUNTFLAG_Msk;
100103fe:	691a      	ldr	r2, [r3, #16]
10010400:	f422 3280 	bic.w	r2, r2, #65536	@ 0x10000
10010404:	600a      	str	r2, [r1, #0]

    // If the SysTick is not running, configure and start it
    if (!(SysTick->CTRL & SysTick_CTRL_ENABLE_Msk)) {
10010406:	691a      	ldr	r2, [r3, #16]
10010408:	07d2      	lsls	r2, r2, #31
1001040a:	d41f      	bmi.n	1001044c <MXC_DelayInit+0x58>
        SysTick->LOAD = SysTick_LOAD_RELOAD_Msk;
1001040c:	f06f 447f 	mvn.w	r4, #4278190080	@ 0xff000000
        SysTick->VAL = SysTick_VAL_CURRENT_Msk;
        SysTick->CTRL = SysTick_CTRL_ENABLE_Msk | SysTick_CTRL_CLKSOURCE_Msk;
10010410:	2205      	movs	r2, #5
        SysTick->LOAD = SysTick_LOAD_RELOAD_Msk;
10010412:	615c      	str	r4, [r3, #20]
        starttick = SysTick_VAL_CURRENT_Msk;
        reload = SysTick_LOAD_RELOAD_Msk + 1;
10010414:	f04f 7580 	mov.w	r5, #16777216	@ 0x1000000
        SysTick->VAL = SysTick_VAL_CURRENT_Msk;
10010418:	619c      	str	r4, [r3, #24]
        SysTick->CTRL = SysTick_CTRL_ENABLE_Msk | SysTick_CTRL_CLKSOURCE_Msk;
1001041a:	611a      	str	r2, [r3, #16]
    } else {
        reload = SysTick->LOAD + 1; // get the current reload value
    }

    // Calculate the total number of ticks to delay
    ticks = (uint32_t)(((uint64_t)us * (uint64_t)SystemCoreClock) / 1000000);
1001041c:	4b10      	ldr	r3, [pc, #64]	@ (10010460 <MXC_DelayInit+0x6c>)
1001041e:	4a11      	ldr	r2, [pc, #68]	@ (10010464 <MXC_DelayInit+0x70>)
10010420:	6819      	ldr	r1, [r3, #0]
10010422:	2300      	movs	r3, #0
10010424:	fba0 0101 	umull	r0, r1, r0, r1
10010428:	f007 fa68 	bl	100178fc <__aeabi_uldivmod>

    // How many overflows of the SysTick will occur
    overflows = ticks / reload;
1001042c:	4b0e      	ldr	r3, [pc, #56]	@ (10010468 <MXC_DelayInit+0x74>)
1001042e:	fbb0 f2f5 	udiv	r2, r0, r5

    // How many remaining ticks after the last overflow
    lastticks = ticks % reload;
10010432:	fb05 0012 	mls	r0, r5, r2, r0

    // Check if there will be another overflow due to the current value of the SysTick
    if (lastticks >= starttick) {
10010436:	4284      	cmp	r4, r0
    overflows = ticks / reload;
10010438:	601a      	str	r2, [r3, #0]
    if (lastticks >= starttick) {
1001043a:	d80a      	bhi.n	10010452 <MXC_DelayInit+0x5e>
        overflows++;
1001043c:	681a      	ldr	r2, [r3, #0]
1001043e:	3201      	adds	r2, #1
10010440:	601a      	str	r2, [r3, #0]
        endtick = reload - (lastticks - starttick);
10010442:	4425      	add	r5, r4
10010444:	4b09      	ldr	r3, [pc, #36]	@ (1001046c <MXC_DelayInit+0x78>)
10010446:	1a28      	subs	r0, r5, r0
10010448:	6018      	str	r0, [r3, #0]
    } else {
        endtick = starttick - lastticks;
    }
}
1001044a:	bd38      	pop	{r3, r4, r5, pc}
        reload = SysTick->LOAD + 1; // get the current reload value
1001044c:	695d      	ldr	r5, [r3, #20]
1001044e:	3501      	adds	r5, #1
10010450:	e7e4      	b.n	1001041c <MXC_DelayInit+0x28>
        endtick = starttick - lastticks;
10010452:	4b06      	ldr	r3, [pc, #24]	@ (1001046c <MXC_DelayInit+0x78>)
10010454:	1a20      	subs	r0, r4, r0
10010456:	6018      	str	r0, [r3, #0]
}
10010458:	bd38      	pop	{r3, r4, r5, pc}
1001045a:	bf00      	nop
1001045c:	20000d20 	.word	0x20000d20
10010460:	2000173c 	.word	0x2000173c
10010464:	000f4240 	.word	0x000f4240
10010468:	20000004 	.word	0x20000004
1001046c:	20000d24 	.word	0x20000d24

10010470 <MXC_DelayAsync>:

/* ************************************************************************** */
int MXC_DelayAsync(uint32_t us, mxc_delay_complete_t callback)
{
10010470:	b510      	push	{r4, lr}
    cbFunc = callback;

    // Check if timeout currently ongoing
    if (overflows > 0) {
10010472:	4c0c      	ldr	r4, [pc, #48]	@ (100104a4 <MXC_DelayAsync+0x34>)
    cbFunc = callback;
10010474:	4b0c      	ldr	r3, [pc, #48]	@ (100104a8 <MXC_DelayAsync+0x38>)
    if (overflows > 0) {
10010476:	6822      	ldr	r2, [r4, #0]
    cbFunc = callback;
10010478:	6019      	str	r1, [r3, #0]
    if (overflows > 0) {
1001047a:	2a00      	cmp	r2, #0
1001047c:	dc0e      	bgt.n	1001049c <MXC_DelayAsync+0x2c>
        return E_BUSY;
    }

    // Check if there is nothing to do
    if (us == 0) {
1001047e:	b908      	cbnz	r0, 10010484 <MXC_DelayAsync+0x14>
        return E_NO_ERROR;
10010480:	2000      	movs	r0, #0
    if (overflows > 0) {
        SysTick->CTRL |= SysTick_CTRL_TICKINT_Msk;
    }

    return E_NO_ERROR;
}
10010482:	bd10      	pop	{r4, pc}
    MXC_DelayInit(us);
10010484:	f7ff ffb6 	bl	100103f4 <MXC_DelayInit>
    if (overflows > 0) {
10010488:	6823      	ldr	r3, [r4, #0]
1001048a:	2b00      	cmp	r3, #0
1001048c:	ddf8      	ble.n	10010480 <MXC_DelayAsync+0x10>
        SysTick->CTRL |= SysTick_CTRL_TICKINT_Msk;
1001048e:	f04f 22e0 	mov.w	r2, #3758153728	@ 0xe000e000
10010492:	6913      	ldr	r3, [r2, #16]
10010494:	f043 0302 	orr.w	r3, r3, #2
10010498:	6113      	str	r3, [r2, #16]
1001049a:	e7f1      	b.n	10010480 <MXC_DelayAsync+0x10>
        return E_BUSY;
1001049c:	f06f 0005 	mvn.w	r0, #5
}
100104a0:	bd10      	pop	{r4, pc}
100104a2:	bf00      	nop
100104a4:	20000004 	.word	0x20000004
100104a8:	20000d1c 	.word	0x20000d1c

100104ac <MXC_DelayCheck>:

/* ************************************************************************** */
int MXC_DelayCheck(void)
{
100104ac:	b5f8      	push	{r3, r4, r5, r6, r7, lr}
    // Check if timeout currently ongoing
    if (overflows < 0) {
100104ae:	4c17      	ldr	r4, [pc, #92]	@ (1001050c <MXC_DelayCheck+0x60>)
100104b0:	6823      	ldr	r3, [r4, #0]
100104b2:	2b00      	cmp	r3, #0
100104b4:	db1e      	blt.n	100104f4 <MXC_DelayCheck+0x48>

        return E_NO_ERROR;
    }

    // Check the global values
    if ((overflows == 0) && (SysTick->VAL <= endtick)) {
100104b6:	6826      	ldr	r6, [r4, #0]
100104b8:	bb2e      	cbnz	r6, 10010506 <MXC_DelayCheck+0x5a>
100104ba:	4b15      	ldr	r3, [pc, #84]	@ (10010510 <MXC_DelayCheck+0x64>)
100104bc:	f04f 25e0 	mov.w	r5, #3758153728	@ 0xe000e000
100104c0:	681b      	ldr	r3, [r3, #0]
100104c2:	69aa      	ldr	r2, [r5, #24]
100104c4:	429a      	cmp	r2, r3
100104c6:	d81e      	bhi.n	10010506 <MXC_DelayCheck+0x5a>
}

/* ************************************************************************** */
void MXC_DelayAbort(void)
{
    if (cbFunc != NULL) {
100104c8:	4f12      	ldr	r7, [pc, #72]	@ (10010514 <MXC_DelayCheck+0x68>)
100104ca:	683b      	ldr	r3, [r7, #0]
100104cc:	b15b      	cbz	r3, 100104e6 <MXC_DelayCheck+0x3a>
        cbFunc(E_ABORT);
100104ce:	f06f 000f 	mvn.w	r0, #15
100104d2:	4798      	blx	r3
        cbFunc = NULL;
    }

    SysTick->CTRL = ctrl_save;
100104d4:	4b10      	ldr	r3, [pc, #64]	@ (10010518 <MXC_DelayCheck+0x6c>)
        cbFunc = NULL;
100104d6:	603e      	str	r6, [r7, #0]
    SysTick->CTRL = ctrl_save;
100104d8:	681a      	ldr	r2, [r3, #0]
100104da:	612a      	str	r2, [r5, #16]
    overflows = -1;
100104dc:	f04f 33ff 	mov.w	r3, #4294967295	@ 0xffffffff
100104e0:	6023      	str	r3, [r4, #0]
        return E_NO_ERROR;
100104e2:	2000      	movs	r0, #0
}
100104e4:	bdf8      	pop	{r3, r4, r5, r6, r7, pc}
    SysTick->CTRL = ctrl_save;
100104e6:	4a0c      	ldr	r2, [pc, #48]	@ (10010518 <MXC_DelayCheck+0x6c>)
    overflows = -1;
100104e8:	f04f 33ff 	mov.w	r3, #4294967295	@ 0xffffffff
    SysTick->CTRL = ctrl_save;
100104ec:	6812      	ldr	r2, [r2, #0]
100104ee:	612a      	str	r2, [r5, #16]
    overflows = -1;
100104f0:	6023      	str	r3, [r4, #0]
        if (cbFunc != NULL) {
100104f2:	e7f6      	b.n	100104e2 <MXC_DelayCheck+0x36>
        if (cbFunc != NULL) {
100104f4:	4c07      	ldr	r4, [pc, #28]	@ (10010514 <MXC_DelayCheck+0x68>)
100104f6:	6823      	ldr	r3, [r4, #0]
100104f8:	2b00      	cmp	r3, #0
100104fa:	d0f2      	beq.n	100104e2 <MXC_DelayCheck+0x36>
            cbFunc(E_NO_ERROR);
100104fc:	2000      	movs	r0, #0
100104fe:	4798      	blx	r3
            cbFunc = NULL;
10010500:	2300      	movs	r3, #0
10010502:	6023      	str	r3, [r4, #0]
10010504:	e7ed      	b.n	100104e2 <MXC_DelayCheck+0x36>
    return E_BUSY;
10010506:	f06f 0005 	mvn.w	r0, #5
}
1001050a:	bdf8      	pop	{r3, r4, r5, r6, r7, pc}
1001050c:	20000004 	.word	0x20000004
10010510:	20000d24 	.word	0x20000d24
10010514:	20000d1c 	.word	0x20000d1c
10010518:	20000d20 	.word	0x20000d20

1001051c <MXC_DelayAbort>:
{
1001051c:	b510      	push	{r4, lr}
    if (cbFunc != NULL) {
1001051e:	4c09      	ldr	r4, [pc, #36]	@ (10010544 <MXC_DelayAbort+0x28>)
10010520:	6823      	ldr	r3, [r4, #0]
10010522:	b123      	cbz	r3, 1001052e <MXC_DelayAbort+0x12>
        cbFunc(E_ABORT);
10010524:	f06f 000f 	mvn.w	r0, #15
10010528:	4798      	blx	r3
        cbFunc = NULL;
1001052a:	2300      	movs	r3, #0
1001052c:	6023      	str	r3, [r4, #0]
    SysTick->CTRL = ctrl_save;
1001052e:	4a06      	ldr	r2, [pc, #24]	@ (10010548 <MXC_DelayAbort+0x2c>)
    overflows = -1;
10010530:	4b06      	ldr	r3, [pc, #24]	@ (1001054c <MXC_DelayAbort+0x30>)
    SysTick->CTRL = ctrl_save;
10010532:	6810      	ldr	r0, [r2, #0]
10010534:	f04f 21e0 	mov.w	r1, #3758153728	@ 0xe000e000
    overflows = -1;
10010538:	f04f 32ff 	mov.w	r2, #4294967295	@ 0xffffffff
    SysTick->CTRL = ctrl_save;
1001053c:	6108      	str	r0, [r1, #16]
    overflows = -1;
1001053e:	601a      	str	r2, [r3, #0]
}
10010540:	bd10      	pop	{r4, pc}
10010542:	bf00      	nop
10010544:	20000d1c 	.word	0x20000d1c
10010548:	20000d20 	.word	0x20000d20
1001054c:	20000004 	.word	0x20000004

10010550 <MXC_Delay>:

/* ************************************************************************** */
int MXC_Delay(uint32_t us)
{
10010550:	b538      	push	{r3, r4, r5, lr}
    // Check if timeout currently ongoing
    if (overflows > 0) {
10010552:	4c18      	ldr	r4, [pc, #96]	@ (100105b4 <MXC_Delay+0x64>)
10010554:	6822      	ldr	r2, [r4, #0]
10010556:	2a00      	cmp	r2, #0
10010558:	dc29      	bgt.n	100105ae <MXC_Delay+0x5e>
        return E_BUSY;
    }

    // Check if there is nothing to do
    if (us == 0) {
1001055a:	b908      	cbnz	r0, 10010560 <MXC_Delay+0x10>
        return E_NO_ERROR;
1001055c:	2000      	movs	r0, #0
    // Wait for the counter value
    while (SysTick->VAL > endtick) {}

    MXC_DelayAbort();
    return E_NO_ERROR;
}
1001055e:	bd38      	pop	{r3, r4, r5, pc}
    MXC_DelayInit(us);
10010560:	f7ff ff48 	bl	100103f4 <MXC_DelayInit>
        if (SysTick->CTRL & SysTick_CTRL_COUNTFLAG_Msk) {
10010564:	f04f 22e0 	mov.w	r2, #3758153728	@ 0xe000e000
    while (overflows > 0) {
10010568:	e002      	b.n	10010570 <MXC_Delay+0x20>
        if (SysTick->CTRL & SysTick_CTRL_COUNTFLAG_Msk) {
1001056a:	6913      	ldr	r3, [r2, #16]
1001056c:	03db      	lsls	r3, r3, #15
1001056e:	d41a      	bmi.n	100105a6 <MXC_Delay+0x56>
    while (overflows > 0) {
10010570:	6823      	ldr	r3, [r4, #0]
10010572:	2b00      	cmp	r3, #0
10010574:	dcf9      	bgt.n	1001056a <MXC_Delay+0x1a>
    while (SysTick->VAL > endtick) {}
10010576:	4b10      	ldr	r3, [pc, #64]	@ (100105b8 <MXC_Delay+0x68>)
10010578:	681a      	ldr	r2, [r3, #0]
1001057a:	f04f 21e0 	mov.w	r1, #3758153728	@ 0xe000e000
1001057e:	698b      	ldr	r3, [r1, #24]
10010580:	4293      	cmp	r3, r2
10010582:	d8fc      	bhi.n	1001057e <MXC_Delay+0x2e>
    if (cbFunc != NULL) {
10010584:	4d0d      	ldr	r5, [pc, #52]	@ (100105bc <MXC_Delay+0x6c>)
10010586:	682b      	ldr	r3, [r5, #0]
10010588:	b123      	cbz	r3, 10010594 <MXC_Delay+0x44>
        cbFunc(E_ABORT);
1001058a:	f06f 000f 	mvn.w	r0, #15
1001058e:	4798      	blx	r3
        cbFunc = NULL;
10010590:	2300      	movs	r3, #0
10010592:	602b      	str	r3, [r5, #0]
    SysTick->CTRL = ctrl_save;
10010594:	4b0a      	ldr	r3, [pc, #40]	@ (100105c0 <MXC_Delay+0x70>)
10010596:	f04f 22e0 	mov.w	r2, #3758153728	@ 0xe000e000
1001059a:	6819      	ldr	r1, [r3, #0]
1001059c:	6111      	str	r1, [r2, #16]
    overflows = -1;
1001059e:	f04f 33ff 	mov.w	r3, #4294967295	@ 0xffffffff
100105a2:	6023      	str	r3, [r4, #0]
}
100105a4:	e7da      	b.n	1001055c <MXC_Delay+0xc>
            overflows--;
100105a6:	6823      	ldr	r3, [r4, #0]
100105a8:	3b01      	subs	r3, #1
100105aa:	6023      	str	r3, [r4, #0]
100105ac:	e7e0      	b.n	10010570 <MXC_Delay+0x20>
        return E_BUSY;
100105ae:	f06f 0005 	mvn.w	r0, #5
}
100105b2:	bd38      	pop	{r3, r4, r5, pc}
100105b4:	20000004 	.word	0x20000004
100105b8:	20000d24 	.word	0x20000d24
100105bc:	20000d1c 	.word	0x20000d1c
100105c0:	20000d20 	.word	0x20000d20

100105c4 <MXC_NVIC_SetVector>:
    memcpy(&ramVectorTable, &__isr_vector, sizeof(ramVectorTable));
    SCB->VTOR = (uint32_t)&ramVectorTable;
}

void MXC_NVIC_SetVector(IRQn_Type irqn, void (*irq_handler)(void))
{
100105c4:	b5f8      	push	{r3, r4, r5, r6, r7, lr}
    int index = irqn + 16; /* offset for externals */

    /* If not copied, do copy */
    if (SCB->VTOR != (uint32_t)&ramVectorTable) {
100105c6:	4e0f      	ldr	r6, [pc, #60]	@ (10010604 <MXC_NVIC_SetVector+0x40>)
100105c8:	4b0f      	ldr	r3, [pc, #60]	@ (10010608 <MXC_NVIC_SetVector+0x44>)
100105ca:	68b2      	ldr	r2, [r6, #8]
100105cc:	429a      	cmp	r2, r3
{
100105ce:	4604      	mov	r4, r0
100105d0:	460d      	mov	r5, r1
    int index = irqn + 16; /* offset for externals */
100105d2:	f100 0710 	add.w	r7, r0, #16
    if (SCB->VTOR != (uint32_t)&ramVectorTable) {
100105d6:	d007      	beq.n	100105e8 <MXC_NVIC_SetVector+0x24>
    memcpy(&ramVectorTable, &__isr_vector, sizeof(ramVectorTable));
100105d8:	4618      	mov	r0, r3
100105da:	490c      	ldr	r1, [pc, #48]	@ (1001060c <MXC_NVIC_SetVector+0x48>)
100105dc:	f44f 72f0 	mov.w	r2, #480	@ 0x1e0
100105e0:	f001 fa7e 	bl	10011ae0 <memcpy>
100105e4:	4603      	mov	r3, r0
    SCB->VTOR = (uint32_t)&ramVectorTable;
100105e6:	60b0      	str	r0, [r6, #8]
  \param [in]      IRQn  Device specific interrupt number.
  \note    IRQn must not be negative.
 */
__STATIC_INLINE void __NVIC_EnableIRQ(IRQn_Type IRQn)
{
  if ((int32_t)(IRQn) >= 0)
100105e8:	2c00      	cmp	r4, #0
        NVIC_SetRAM();
    }

    ramVectorTable[index] = irq_handler;
100105ea:	f843 5027 	str.w	r5, [r3, r7, lsl #2]
100105ee:	db07      	blt.n	10010600 <MXC_NVIC_SetVector+0x3c>
  {
    __COMPILER_BARRIER();
    NVIC->ISER[(((uint32_t)IRQn) >> 5UL)] = (uint32_t)(1UL << (((uint32_t)IRQn) & 0x1FUL));
100105f0:	4a07      	ldr	r2, [pc, #28]	@ (10010610 <MXC_NVIC_SetVector+0x4c>)
100105f2:	0961      	lsrs	r1, r4, #5
100105f4:	2301      	movs	r3, #1
100105f6:	f004 041f 	and.w	r4, r4, #31
100105fa:	40a3      	lsls	r3, r4
100105fc:	f842 3021 	str.w	r3, [r2, r1, lsl #2]
    NVIC_EnableIRQ(irqn);
}
10010600:	bdf8      	pop	{r3, r4, r5, r6, r7, pc}
10010602:	bf00      	nop
10010604:	e000ed00 	.word	0xe000ed00
10010608:	20000e00 	.word	0x20000e00
1001060c:	1000e000 	.word	0x1000e000
10010610:	e000e100 	.word	0xe000e100

10010614 <MXC_SYS_ClockDisable>:

/* ************************************************************************** */
void MXC_SYS_ClockDisable(mxc_sys_periph_clock_t clock)
{
    /* The mxc_sys_periph_clock_t enum uses enum values that are the offset by 32 and 64 for the perckcn1 register. */
    if (clock > 63) {
10010614:	283f      	cmp	r0, #63	@ 0x3f
10010616:	d908      	bls.n	1001062a <MXC_SYS_ClockDisable+0x16>
        clock -= 64;
        MXC_LPGCR->pclkdis |= (0x1 << clock);
10010618:	4a0d      	ldr	r2, [pc, #52]	@ (10010650 <MXC_SYS_ClockDisable+0x3c>)
        clock -= 64;
1001061a:	3840      	subs	r0, #64	@ 0x40
        MXC_LPGCR->pclkdis |= (0x1 << clock);
1001061c:	68d1      	ldr	r1, [r2, #12]
1001061e:	b2c0      	uxtb	r0, r0
10010620:	2301      	movs	r3, #1
10010622:	4083      	lsls	r3, r0
10010624:	430b      	orrs	r3, r1
10010626:	60d3      	str	r3, [r2, #12]
10010628:	4770      	bx	lr
    } else if (clock > 31) {
1001062a:	281f      	cmp	r0, #31
        clock -= 32;
        MXC_GCR->pclkdis1 |= (0x1 << clock);
1001062c:	f04f 4280 	mov.w	r2, #1073741824	@ 0x40000000
    } else if (clock > 31) {
10010630:	d907      	bls.n	10010642 <MXC_SYS_ClockDisable+0x2e>
        clock -= 32;
10010632:	3820      	subs	r0, #32
        MXC_GCR->pclkdis1 |= (0x1 << clock);
10010634:	6c91      	ldr	r1, [r2, #72]	@ 0x48
10010636:	b2c0      	uxtb	r0, r0
10010638:	2301      	movs	r3, #1
1001063a:	4083      	lsls	r3, r0
1001063c:	430b      	orrs	r3, r1
1001063e:	6493      	str	r3, [r2, #72]	@ 0x48
10010640:	4770      	bx	lr
    } else {
        MXC_GCR->pclkdis0 |= (0x1 << clock);
10010642:	6a51      	ldr	r1, [r2, #36]	@ 0x24
10010644:	2301      	movs	r3, #1
10010646:	4083      	lsls	r3, r0
10010648:	430b      	orrs	r3, r1
1001064a:	6253      	str	r3, [r2, #36]	@ 0x24
    }
}
1001064c:	4770      	bx	lr
1001064e:	bf00      	nop
10010650:	40080000 	.word	0x40080000

10010654 <MXC_SYS_ClockEnable>:

/* ************************************************************************** */
void MXC_SYS_ClockEnable(mxc_sys_periph_clock_t clock)
{
    /* The mxc_sys_periph_clock_t enum uses enum values that are the offset by 32 and 64 for the perckcn1 register. */
    if (clock > 63) {
10010654:	283f      	cmp	r0, #63	@ 0x3f
10010656:	d909      	bls.n	1001066c <MXC_SYS_ClockEnable+0x18>
        clock -= 64;
        MXC_LPGCR->pclkdis &= ~(0x1 << clock);
10010658:	490e      	ldr	r1, [pc, #56]	@ (10010694 <MXC_SYS_ClockEnable+0x40>)
        clock -= 64;
1001065a:	3840      	subs	r0, #64	@ 0x40
        MXC_LPGCR->pclkdis &= ~(0x1 << clock);
1001065c:	68cb      	ldr	r3, [r1, #12]
1001065e:	b2c0      	uxtb	r0, r0
10010660:	2201      	movs	r2, #1
10010662:	4082      	lsls	r2, r0
10010664:	ea23 0302 	bic.w	r3, r3, r2
10010668:	60cb      	str	r3, [r1, #12]
1001066a:	4770      	bx	lr
    } else if (clock > 31) {
1001066c:	281f      	cmp	r0, #31
        clock -= 32;
        MXC_GCR->pclkdis1 &= ~(0x1 << clock);
1001066e:	f04f 4180 	mov.w	r1, #1073741824	@ 0x40000000
    } else if (clock > 31) {
10010672:	d908      	bls.n	10010686 <MXC_SYS_ClockEnable+0x32>
        clock -= 32;
10010674:	3820      	subs	r0, #32
        MXC_GCR->pclkdis1 &= ~(0x1 << clock);
10010676:	6c8b      	ldr	r3, [r1, #72]	@ 0x48
10010678:	b2c0      	uxtb	r0, r0
1001067a:	2201      	movs	r2, #1
1001067c:	4082      	lsls	r2, r0
1001067e:	ea23 0302 	bic.w	r3, r3, r2
10010682:	648b      	str	r3, [r1, #72]	@ 0x48
    } else {
        MXC_GCR->pclkdis0 &= ~(0x1 << clock);
    }
}
10010684:	4770      	bx	lr
        MXC_GCR->pclkdis0 &= ~(0x1 << clock);
10010686:	6a4b      	ldr	r3, [r1, #36]	@ 0x24
10010688:	2201      	movs	r2, #1
1001068a:	4082      	lsls	r2, r0
1001068c:	ea23 0302 	bic.w	r3, r3, r2
10010690:	624b      	str	r3, [r1, #36]	@ 0x24
}
10010692:	4770      	bx	lr
10010694:	40080000 	.word	0x40080000

10010698 <MXC_SYS_ClockSourceEnable>:
    }
}

/******************************************************************************/
int MXC_SYS_ClockSourceEnable(mxc_sys_system_clock_t clock)
{
10010698:	b510      	push	{r4, lr}
    switch (clock) {
1001069a:	2807      	cmp	r0, #7
1001069c:	d80a      	bhi.n	100106b4 <MXC_SYS_ClockSourceEnable+0x1c>
1001069e:	e8df f000 	tbb	[pc, r0]
100106a2:	090c      	.short	0x090c
100106a4:	47332309 	.word	0x47332309
100106a8:	045b      	.short	0x045b

    default:
        return E_BAD_PARAM;
        break;
    }
}
100106aa:	e8bd 4010 	ldmia.w	sp!, {r4, lr}
        return MXC_GPIO_Config(&gpio_cfg_extclk);
100106ae:	4836      	ldr	r0, [pc, #216]	@ (10010788 <MXC_SYS_ClockSourceEnable+0xf0>)
100106b0:	f000 b8fe 	b.w	100108b0 <MXC_GPIO_Config>
    switch (clock) {
100106b4:	f06f 0002 	mvn.w	r0, #2
}
100106b8:	bd10      	pop	{r4, pc}
        MXC_GCR->clkctrl |= MXC_F_GCR_CLKCTRL_ISO_EN;
100106ba:	f04f 4480 	mov.w	r4, #1073741824	@ 0x40000000
    // We do not have access to a system tick in the RV core.
    while (!(MXC_GCR->clkctrl & ready)) {}
    return E_NO_ERROR;
#else
    // Start timeout, wait for ready
    MXC_DelayAsync(MXC_SYS_CLOCK_TIMEOUT, NULL);
100106be:	2100      	movs	r1, #0
        MXC_GCR->clkctrl |= MXC_F_GCR_CLKCTRL_ISO_EN;
100106c0:	68a3      	ldr	r3, [r4, #8]
100106c2:	f443 2380 	orr.w	r3, r3, #262144	@ 0x40000
100106c6:	60a3      	str	r3, [r4, #8]
    MXC_DelayAsync(MXC_SYS_CLOCK_TIMEOUT, NULL);
100106c8:	f44f 707a 	mov.w	r0, #1000	@ 0x3e8
100106cc:	f7ff fed0 	bl	10010470 <MXC_DelayAsync>
100106d0:	e003      	b.n	100106da <MXC_SYS_ClockSourceEnable+0x42>
    do {
        if (MXC_GCR->clkctrl & ready) {
            MXC_DelayAbort();
            return E_NO_ERROR;
        }
    } while (MXC_DelayCheck() == E_BUSY);
100106d2:	f7ff feeb 	bl	100104ac <MXC_DelayCheck>
100106d6:	3006      	adds	r0, #6
100106d8:	d152      	bne.n	10010780 <MXC_SYS_ClockSourceEnable+0xe8>
        if (MXC_GCR->clkctrl & ready) {
100106da:	68a3      	ldr	r3, [r4, #8]
100106dc:	0159      	lsls	r1, r3, #5
100106de:	d5f8      	bpl.n	100106d2 <MXC_SYS_ClockSourceEnable+0x3a>
            MXC_DelayAbort();
100106e0:	f7ff ff1c 	bl	1001051c <MXC_DelayAbort>
            return E_NO_ERROR;
100106e4:	2000      	movs	r0, #0
}
100106e6:	bd10      	pop	{r4, pc}
    MXC_DelayAsync(MXC_SYS_CLOCK_TIMEOUT, NULL);
100106e8:	2100      	movs	r1, #0
100106ea:	f44f 707a 	mov.w	r0, #1000	@ 0x3e8
100106ee:	f7ff febf 	bl	10010470 <MXC_DelayAsync>
        if (MXC_GCR->clkctrl & ready) {
100106f2:	f04f 4480 	mov.w	r4, #1073741824	@ 0x40000000
100106f6:	e003      	b.n	10010700 <MXC_SYS_ClockSourceEnable+0x68>
    } while (MXC_DelayCheck() == E_BUSY);
100106f8:	f7ff fed8 	bl	100104ac <MXC_DelayCheck>
100106fc:	3006      	adds	r0, #6
100106fe:	d13f      	bne.n	10010780 <MXC_SYS_ClockSourceEnable+0xe8>
        if (MXC_GCR->clkctrl & ready) {
10010700:	68a3      	ldr	r3, [r4, #8]
10010702:	009a      	lsls	r2, r3, #2
10010704:	d4ec      	bmi.n	100106e0 <MXC_SYS_ClockSourceEnable+0x48>
10010706:	e7f7      	b.n	100106f8 <MXC_SYS_ClockSourceEnable+0x60>
        MXC_GCR->clkctrl |= MXC_F_GCR_CLKCTRL_IPO_EN;
10010708:	f04f 4480 	mov.w	r4, #1073741824	@ 0x40000000
    MXC_DelayAsync(MXC_SYS_CLOCK_TIMEOUT, NULL);
1001070c:	2100      	movs	r1, #0
        MXC_GCR->clkctrl |= MXC_F_GCR_CLKCTRL_IPO_EN;
1001070e:	68a3      	ldr	r3, [r4, #8]
10010710:	f443 2300 	orr.w	r3, r3, #524288	@ 0x80000
10010714:	60a3      	str	r3, [r4, #8]
    MXC_DelayAsync(MXC_SYS_CLOCK_TIMEOUT, NULL);
10010716:	f44f 707a 	mov.w	r0, #1000	@ 0x3e8
1001071a:	f7ff fea9 	bl	10010470 <MXC_DelayAsync>
1001071e:	e003      	b.n	10010728 <MXC_SYS_ClockSourceEnable+0x90>
    } while (MXC_DelayCheck() == E_BUSY);
10010720:	f7ff fec4 	bl	100104ac <MXC_DelayCheck>
10010724:	3006      	adds	r0, #6
10010726:	d12b      	bne.n	10010780 <MXC_SYS_ClockSourceEnable+0xe8>
        if (MXC_GCR->clkctrl & ready) {
10010728:	68a3      	ldr	r3, [r4, #8]
1001072a:	011b      	lsls	r3, r3, #4
1001072c:	d5f8      	bpl.n	10010720 <MXC_SYS_ClockSourceEnable+0x88>
1001072e:	e7d7      	b.n	100106e0 <MXC_SYS_ClockSourceEnable+0x48>
        MXC_GCR->clkctrl |= MXC_F_GCR_CLKCTRL_IBRO_EN;
10010730:	f04f 4480 	mov.w	r4, #1073741824	@ 0x40000000
    MXC_DelayAsync(MXC_SYS_CLOCK_TIMEOUT, NULL);
10010734:	2100      	movs	r1, #0
        MXC_GCR->clkctrl |= MXC_F_GCR_CLKCTRL_IBRO_EN;
10010736:	68a3      	ldr	r3, [r4, #8]
10010738:	f443 1380 	orr.w	r3, r3, #1048576	@ 0x100000
1001073c:	60a3      	str	r3, [r4, #8]
    MXC_DelayAsync(MXC_SYS_CLOCK_TIMEOUT, NULL);
1001073e:	f44f 707a 	mov.w	r0, #1000	@ 0x3e8
10010742:	f7ff fe95 	bl	10010470 <MXC_DelayAsync>
10010746:	e003      	b.n	10010750 <MXC_SYS_ClockSourceEnable+0xb8>
    } while (MXC_DelayCheck() == E_BUSY);
10010748:	f7ff feb0 	bl	100104ac <MXC_DelayCheck>
1001074c:	3006      	adds	r0, #6
1001074e:	d117      	bne.n	10010780 <MXC_SYS_ClockSourceEnable+0xe8>
        if (MXC_GCR->clkctrl & ready) {
10010750:	68a3      	ldr	r3, [r4, #8]
10010752:	00d8      	lsls	r0, r3, #3
10010754:	d4c4      	bmi.n	100106e0 <MXC_SYS_ClockSourceEnable+0x48>
10010756:	e7f7      	b.n	10010748 <MXC_SYS_ClockSourceEnable+0xb0>
        MXC_GCR->clkctrl |= MXC_F_GCR_CLKCTRL_ERTCO_EN;
10010758:	f04f 4480 	mov.w	r4, #1073741824	@ 0x40000000
    MXC_DelayAsync(MXC_SYS_CLOCK_TIMEOUT, NULL);
1001075c:	2100      	movs	r1, #0
        MXC_GCR->clkctrl |= MXC_F_GCR_CLKCTRL_ERTCO_EN;
1001075e:	68a3      	ldr	r3, [r4, #8]
10010760:	f443 3300 	orr.w	r3, r3, #131072	@ 0x20000
10010764:	60a3      	str	r3, [r4, #8]
    MXC_DelayAsync(MXC_SYS_CLOCK_TIMEOUT, NULL);
10010766:	f44f 707a 	mov.w	r0, #1000	@ 0x3e8
1001076a:	f7ff fe81 	bl	10010470 <MXC_DelayAsync>
1001076e:	e003      	b.n	10010778 <MXC_SYS_ClockSourceEnable+0xe0>
    } while (MXC_DelayCheck() == E_BUSY);
10010770:	f7ff fe9c 	bl	100104ac <MXC_DelayCheck>
10010774:	3006      	adds	r0, #6
10010776:	d103      	bne.n	10010780 <MXC_SYS_ClockSourceEnable+0xe8>
        if (MXC_GCR->clkctrl & ready) {
10010778:	68a3      	ldr	r3, [r4, #8]
1001077a:	019b      	lsls	r3, r3, #6
1001077c:	d4b0      	bmi.n	100106e0 <MXC_SYS_ClockSourceEnable+0x48>
1001077e:	e7f7      	b.n	10010770 <MXC_SYS_ClockSourceEnable+0xd8>

    return E_TIME_OUT;
10010780:	f06f 0009 	mvn.w	r0, #9
}
10010784:	bd10      	pop	{r4, pc}
10010786:	bf00      	nop
10010788:	1001a250 	.word	0x1001a250

1001078c <MXC_SYS_Reset_Periph>:

/* ************************************************************************** */
void MXC_SYS_Reset_Periph(mxc_sys_reset_t reset)
{
    /* The mxc_sys_reset_t enum uses enum values that are the offset by 32 and 64 for the rst register. */
    if (reset > 63) {
1001078c:	283f      	cmp	r0, #63	@ 0x3f
1001078e:	d909      	bls.n	100107a4 <MXC_SYS_Reset_Periph+0x18>
        reset -= 64;
10010790:	3840      	subs	r0, #64	@ 0x40
        MXC_LPGCR->rst = (0x1 << reset);
10010792:	490f      	ldr	r1, [pc, #60]	@ (100107d0 <MXC_SYS_Reset_Periph+0x44>)
10010794:	b2c0      	uxtb	r0, r0
10010796:	2201      	movs	r2, #1
10010798:	4082      	lsls	r2, r0
1001079a:	608a      	str	r2, [r1, #8]
        while (MXC_LPGCR->rst & (0x1 << reset)) {}
1001079c:	688b      	ldr	r3, [r1, #8]
1001079e:	421a      	tst	r2, r3
100107a0:	d1fc      	bne.n	1001079c <MXC_SYS_Reset_Periph+0x10>
100107a2:	4770      	bx	lr
    } else if (reset > 31) {
100107a4:	281f      	cmp	r0, #31
100107a6:	d90a      	bls.n	100107be <MXC_SYS_Reset_Periph+0x32>
        reset -= 32;
100107a8:	3820      	subs	r0, #32
        MXC_GCR->rst1 = (0x1 << reset);
100107aa:	b2c0      	uxtb	r0, r0
100107ac:	2201      	movs	r2, #1
100107ae:	f04f 4180 	mov.w	r1, #1073741824	@ 0x40000000
100107b2:	4082      	lsls	r2, r0
100107b4:	644a      	str	r2, [r1, #68]	@ 0x44
        while (MXC_GCR->rst1 & (0x1 << reset)) {}
100107b6:	6c4b      	ldr	r3, [r1, #68]	@ 0x44
100107b8:	421a      	tst	r2, r3
100107ba:	d1fc      	bne.n	100107b6 <MXC_SYS_Reset_Periph+0x2a>
100107bc:	4770      	bx	lr
    } else {
        MXC_GCR->rst0 = (0x1 << reset);
100107be:	2201      	movs	r2, #1
100107c0:	f04f 4180 	mov.w	r1, #1073741824	@ 0x40000000
100107c4:	4082      	lsls	r2, r0
100107c6:	604a      	str	r2, [r1, #4]
        while (MXC_GCR->rst0 & (0x1 << reset)) {}
100107c8:	684b      	ldr	r3, [r1, #4]
100107ca:	421a      	tst	r2, r3
100107cc:	d1fc      	bne.n	100107c8 <MXC_SYS_Reset_Periph+0x3c>
    }
}
100107ce:	4770      	bx	lr
100107d0:	40080000 	.word	0x40080000

100107d4 <MXC_FLC_Write32>:
    uint32_t addr, aligned;
    int err;
    mxc_flc_regs_t *flc = NULL;

    // Address checked if it is byte addressable
    if (address & 0x3) {
100107d4:	0782      	lsls	r2, r0, #30
100107d6:	d12c      	bne.n	10010832 <MXC_FLC_Write32+0x5e>
    if ((addr >= MXC_FLASH_MEM_BASE) && (addr < (MXC_FLASH_MEM_BASE + MXC_FLASH_MEM_SIZE))) {
100107d8:	f100 4370 	add.w	r3, r0, #4026531840	@ 0xf0000000
100107dc:	f5b3 2f00 	cmp.w	r3, #524288	@ 0x80000
100107e0:	4684      	mov	ip, r0
100107e2:	460a      	mov	r2, r1
100107e4:	d322      	bcc.n	1001082c <MXC_FLC_Write32+0x58>
    } else if ((addr >= MXC_INFO_MEM_BASE) && (addr < (MXC_INFO_MEM_BASE + MXC_INFO_MEM_SIZE))) {
100107e6:	f1a0 5384 	sub.w	r3, r0, #276824064	@ 0x10800000
100107ea:	f5b3 4f80 	cmp.w	r3, #16384	@ 0x4000
100107ee:	d220      	bcs.n	10010832 <MXC_FLC_Write32+0x5e>
        *result = (addr & (MXC_INFO_MEM_SIZE - 1)) + MXC_FLASH_MEM_SIZE;
100107f0:	f643 73f0 	movw	r3, #16368	@ 0x3ff0
100107f4:	4003      	ands	r3, r0
100107f6:	f503 2300 	add.w	r3, r3, #524288	@ 0x80000
{
100107fa:	b500      	push	{lr}

    if ((err = MXC_FLC_ME17_GetPhysicalAddress(aligned, &addr)) < E_NO_ERROR) {
        return err;
    }

    err = MXC_FLC_RevA_Write32Using128((mxc_flc_reva_regs_t *)flc, address, data, addr);
100107fc:	480e      	ldr	r0, [pc, #56]	@ (10010838 <MXC_FLC_Write32+0x64>)
{
100107fe:	b083      	sub	sp, #12
    err = MXC_FLC_RevA_Write32Using128((mxc_flc_reva_regs_t *)flc, address, data, addr);
10010800:	4661      	mov	r1, ip
10010802:	f009 fe75 	bl	1001a4f0 <__MXC_FLC_RevA_Write32Using128_veneer>
    MXC_GCR->sysctrl |= MXC_F_GCR_SYSCTRL_ICC0_FLUSH;
10010806:	f04f 4280 	mov.w	r2, #1073741824	@ 0x40000000
1001080a:	6813      	ldr	r3, [r2, #0]
1001080c:	f043 0340 	orr.w	r3, r3, #64	@ 0x40
10010810:	6013      	str	r3, [r2, #0]
    while (MXC_GCR->sysctrl & MXC_F_GCR_SYSCTRL_ICC0_FLUSH) {}
10010812:	6813      	ldr	r3, [r2, #0]
10010814:	065b      	lsls	r3, r3, #25
10010816:	d4fc      	bmi.n	10010812 <MXC_FLC_Write32+0x3e>
    line = *line_addr;
10010818:	f04f 5280 	mov.w	r2, #268435456	@ 0x10000000
    line = *line_addr;
1001081c:	4b07      	ldr	r3, [pc, #28]	@ (1001083c <MXC_FLC_Write32+0x68>)
    line = *line_addr;
1001081e:	6812      	ldr	r2, [r2, #0]
10010820:	9201      	str	r2, [sp, #4]
    line = *line_addr;
10010822:	681b      	ldr	r3, [r3, #0]
10010824:	9301      	str	r3, [sp, #4]

    // Flush the cache
    MXC_FLC_ME17_Flash_Operation();

    return err;
}
10010826:	b003      	add	sp, #12
10010828:	f85d fb04 	ldr.w	pc, [sp], #4
        *result = addr & (MXC_FLASH_MEM_SIZE - 1);
1001082c:	4b04      	ldr	r3, [pc, #16]	@ (10010840 <MXC_FLC_Write32+0x6c>)
1001082e:	4003      	ands	r3, r0
10010830:	e7e3      	b.n	100107fa <MXC_FLC_Write32+0x26>
        return E_BAD_PARAM;
10010832:	f06f 0002 	mvn.w	r0, #2
}
10010836:	4770      	bx	lr
10010838:	40029000 	.word	0x40029000
1001083c:	10002000 	.word	0x10002000
10010840:	0007fff0 	.word	0x0007fff0

10010844 <MXC_FLC_Write>:
}

//******************************************************************************
int MXC_FLC_Write(uint32_t address, uint32_t length, uint32_t *buffer)
{
    return MXC_FLC_Com_Write(address, length, buffer);
10010844:	f009 be5c 	b.w	1001a500 <__MXC_FLC_Com_Write_veneer>

10010848 <MXC_FLC_Read>:
}

//******************************************************************************
void MXC_FLC_Read(int address, void *buffer, int len)
{
    MXC_FLC_Com_Read(address, buffer, len);
10010848:	f009 be5e 	b.w	1001a508 <__MXC_FLC_Com_Read_veneer>

1001084c <MXC_FLC_EnableInt>:
}

//******************************************************************************
int MXC_FLC_EnableInt(uint32_t flags)
{
    return MXC_FLC_RevA_EnableInt(flags);
1001084c:	f000 b800 	b.w	10010850 <MXC_FLC_RevA_EnableInt>

10010850 <MXC_FLC_RevA_EnableInt>:
//******************************************************************************
int MXC_FLC_RevA_EnableInt(uint32_t mask)
{
    mask &= (MXC_F_FLC_REVA_INTR_DONEIE | MXC_F_FLC_REVA_INTR_AFIE);

    if (!mask) {
10010850:	f410 7340 	ands.w	r3, r0, #768	@ 0x300
10010854:	d006      	beq.n	10010864 <MXC_FLC_RevA_EnableInt+0x14>
        /* No bits set? Wasn't something we can enable. */
        return E_BAD_PARAM;
    }

    /* Apply enables and write back, preserving the flags */
    flc_int->intr |= mask;
10010856:	4a05      	ldr	r2, [pc, #20]	@ (1001086c <MXC_FLC_RevA_EnableInt+0x1c>)
10010858:	6811      	ldr	r1, [r2, #0]
1001085a:	6a4a      	ldr	r2, [r1, #36]	@ 0x24
1001085c:	4313      	orrs	r3, r2

    return E_NO_ERROR;
1001085e:	2000      	movs	r0, #0
    flc_int->intr |= mask;
10010860:	624b      	str	r3, [r1, #36]	@ 0x24
    return E_NO_ERROR;
10010862:	4770      	bx	lr
        return E_BAD_PARAM;
10010864:	f06f 0002 	mvn.w	r0, #2
}
10010868:	4770      	bx	lr
1001086a:	bf00      	nop
1001086c:	20000008 	.word	0x20000008

10010870 <MXC_GPIO_Init>:
/* **** Globals **** */

/* **** Functions **** */
int MXC_GPIO_Init(uint32_t portmask)
{
    if (portmask & 0x1) {
10010870:	07c1      	lsls	r1, r0, #31
{
10010872:	b510      	push	{r4, lr}
10010874:	4604      	mov	r4, r0
    if (portmask & 0x1) {
10010876:	d408      	bmi.n	1001088a <MXC_GPIO_Init+0x1a>
        MXC_SYS_ClockEnable(MXC_SYS_PERIPH_CLOCK_GPIO0);
    }

    if (portmask & 0x2) {
10010878:	07a2      	lsls	r2, r4, #30
1001087a:	d40b      	bmi.n	10010894 <MXC_GPIO_Init+0x24>
        MXC_SYS_ClockEnable(MXC_SYS_PERIPH_CLOCK_GPIO1);
    }

    if (portmask & 0x4) {
1001087c:	0763      	lsls	r3, r4, #29
1001087e:	d40e      	bmi.n	1001089e <MXC_GPIO_Init+0x2e>
        MXC_SYS_ClockEnable(MXC_SYS_PERIPH_CLOCK_GPIO2);
    }

    return MXC_GPIO_Common_Init(portmask);
10010880:	4620      	mov	r0, r4
}
10010882:	e8bd 4010 	ldmia.w	sp!, {r4, lr}
    return MXC_GPIO_Common_Init(portmask);
10010886:	f000 bce7 	b.w	10011258 <MXC_GPIO_Common_Init>
        MXC_SYS_ClockEnable(MXC_SYS_PERIPH_CLOCK_GPIO0);
1001088a:	2000      	movs	r0, #0
1001088c:	f7ff fee2 	bl	10010654 <MXC_SYS_ClockEnable>
    if (portmask & 0x2) {
10010890:	07a2      	lsls	r2, r4, #30
10010892:	d5f3      	bpl.n	1001087c <MXC_GPIO_Init+0xc>
        MXC_SYS_ClockEnable(MXC_SYS_PERIPH_CLOCK_GPIO1);
10010894:	2001      	movs	r0, #1
10010896:	f7ff fedd 	bl	10010654 <MXC_SYS_ClockEnable>
    if (portmask & 0x4) {
1001089a:	0763      	lsls	r3, r4, #29
1001089c:	d5f0      	bpl.n	10010880 <MXC_GPIO_Init+0x10>
        MXC_SYS_ClockEnable(MXC_SYS_PERIPH_CLOCK_GPIO2);
1001089e:	2040      	movs	r0, #64	@ 0x40
100108a0:	f7ff fed8 	bl	10010654 <MXC_SYS_ClockEnable>
    return MXC_GPIO_Common_Init(portmask);
100108a4:	4620      	mov	r0, r4
}
100108a6:	e8bd 4010 	ldmia.w	sp!, {r4, lr}
    return MXC_GPIO_Common_Init(portmask);
100108aa:	f000 bcd5 	b.w	10011258 <MXC_GPIO_Common_Init>
100108ae:	bf00      	nop

100108b0 <MXC_GPIO_Config>:

    return E_NO_ERROR;
}

int MXC_GPIO_Config(const mxc_gpio_cfg_t *cfg)
{
100108b0:	b5f8      	push	{r3, r4, r5, r6, r7, lr}
    int port, error;
    mxc_gpio_regs_t *gpio = cfg->port;

    port = MXC_GPIO_GET_IDX(cfg->port);
100108b2:	4b8c      	ldr	r3, [pc, #560]	@ (10010ae4 <MXC_GPIO_Config+0x234>)
    mxc_gpio_regs_t *gpio = cfg->port;
100108b4:	6805      	ldr	r5, [r0, #0]
    port = MXC_GPIO_GET_IDX(cfg->port);
100108b6:	429d      	cmp	r5, r3
{
100108b8:	4604      	mov	r4, r0
    port = MXC_GPIO_GET_IDX(cfg->port);
100108ba:	d04b      	beq.n	10010954 <MXC_GPIO_Config+0xa4>
100108bc:	f503 5380 	add.w	r3, r3, #4096	@ 0x1000
100108c0:	429d      	cmp	r5, r3
100108c2:	d014      	beq.n	100108ee <MXC_GPIO_Config+0x3e>
100108c4:	4b88      	ldr	r3, [pc, #544]	@ (10010ae8 <MXC_GPIO_Config+0x238>)
100108c6:	429d      	cmp	r5, r3
100108c8:	f000 80a2 	beq.w	10010a10 <MXC_GPIO_Config+0x160>
100108cc:	f503 7300 	add.w	r3, r3, #512	@ 0x200
100108d0:	429d      	cmp	r5, r3
100108d2:	d02c      	beq.n	1001092e <MXC_GPIO_Config+0x7e>

    MXC_GPIO_Init(1 << port);
100108d4:	f04f 33ff 	mov.w	r3, #4294967295	@ 0xffffffff
100108d8:	2001      	movs	r0, #1
100108da:	4098      	lsls	r0, r3
100108dc:	f7ff ffc8 	bl	10010870 <MXC_GPIO_Init>

    // Configure the vssel
    error = MXC_GPIO_SetVSSEL(gpio, cfg->vssel, cfg->mask);
100108e0:	7aa1      	ldrb	r1, [r4, #10]
100108e2:	6862      	ldr	r2, [r4, #4]
        }

        return E_NO_ERROR;
    }

    return MXC_GPIO_RevA_SetVSSEL((mxc_gpio_reva_regs_t *)port, vssel, mask);
100108e4:	4628      	mov	r0, r5
100108e6:	f000 f955 	bl	10010b94 <MXC_GPIO_RevA_SetVSSEL>
    if (error != E_NO_ERROR) {
100108ea:	b150      	cbz	r0, 10010902 <MXC_GPIO_Config+0x52>
}
100108ec:	bdf8      	pop	{r3, r4, r5, r6, r7, pc}
    MXC_GPIO_Init(1 << port);
100108ee:	2002      	movs	r0, #2
100108f0:	f7ff ffbe 	bl	10010870 <MXC_GPIO_Init>
    error = MXC_GPIO_SetVSSEL(gpio, cfg->vssel, cfg->mask);
100108f4:	7aa1      	ldrb	r1, [r4, #10]
100108f6:	6862      	ldr	r2, [r4, #4]
    return MXC_GPIO_RevA_SetVSSEL((mxc_gpio_reva_regs_t *)port, vssel, mask);
100108f8:	4628      	mov	r0, r5
100108fa:	f000 f94b 	bl	10010b94 <MXC_GPIO_RevA_SetVSSEL>
    if (error != E_NO_ERROR) {
100108fe:	2800      	cmp	r0, #0
10010900:	d1f4      	bne.n	100108ec <MXC_GPIO_Config+0x3c>
    if (cfg->port == MXC_GPIO3) {
10010902:	4b7a      	ldr	r3, [pc, #488]	@ (10010aec <MXC_GPIO_Config+0x23c>)
10010904:	6822      	ldr	r2, [r4, #0]
        switch (cfg->func) {
10010906:	7a21      	ldrb	r1, [r4, #8]
    if (cfg->port == MXC_GPIO3) {
10010908:	429a      	cmp	r2, r3
1001090a:	d01a      	beq.n	10010942 <MXC_GPIO_Config+0x92>
        error = MXC_GPIO_RevA_SetAF((mxc_gpio_reva_regs_t *)gpio, cfg->func, cfg->mask);
1001090c:	6862      	ldr	r2, [r4, #4]
1001090e:	4628      	mov	r0, r5
10010910:	f000 f956 	bl	10010bc0 <MXC_GPIO_RevA_SetAF>
        if (error != E_NO_ERROR) {
10010914:	2800      	cmp	r0, #0
10010916:	d1e9      	bne.n	100108ec <MXC_GPIO_Config+0x3c>
        switch (cfg->pad) {
10010918:	7a63      	ldrb	r3, [r4, #9]
1001091a:	2b04      	cmp	r3, #4
1001091c:	f200 80de 	bhi.w	10010adc <MXC_GPIO_Config+0x22c>
10010920:	e8df f013 	tbh	[pc, r3, lsl #1]
10010924:	00ad00a2 	.word	0x00ad00a2
10010928:	00c400bc 	.word	0x00c400bc
1001092c:	00d4      	.short	0x00d4
    MXC_GPIO_Init(1 << port);
1001092e:	2008      	movs	r0, #8
10010930:	f7ff ff9e 	bl	10010870 <MXC_GPIO_Init>
        if (vssel == MXC_GPIO_VSSEL_VDDIO) {
10010934:	7aa3      	ldrb	r3, [r4, #10]
10010936:	b153      	cbz	r3, 1001094e <MXC_GPIO_Config+0x9e>
    if (cfg->port == MXC_GPIO3) {
10010938:	4b6c      	ldr	r3, [pc, #432]	@ (10010aec <MXC_GPIO_Config+0x23c>)
1001093a:	6822      	ldr	r2, [r4, #0]
        switch (cfg->func) {
1001093c:	7a21      	ldrb	r1, [r4, #8]
    if (cfg->port == MXC_GPIO3) {
1001093e:	429a      	cmp	r2, r3
10010940:	d1e4      	bne.n	1001090c <MXC_GPIO_Config+0x5c>
        switch (cfg->func) {
10010942:	2901      	cmp	r1, #1
10010944:	d06a      	beq.n	10010a1c <MXC_GPIO_Config+0x16c>
10010946:	2902      	cmp	r1, #2
10010948:	d00a      	beq.n	10010960 <MXC_GPIO_Config+0xb0>
1001094a:	2900      	cmp	r1, #0
1001094c:	d07d      	beq.n	10010a4a <MXC_GPIO_Config+0x19a>
        return error;
1001094e:	f06f 0010 	mvn.w	r0, #16
}
10010952:	bdf8      	pop	{r3, r4, r5, r6, r7, pc}
    MXC_GPIO_Init(1 << port);
10010954:	2001      	movs	r0, #1
10010956:	f7ff ff8b 	bl	10010870 <MXC_GPIO_Init>
    error = MXC_GPIO_SetVSSEL(gpio, cfg->vssel, cfg->mask);
1001095a:	7aa1      	ldrb	r1, [r4, #10]
1001095c:	6862      	ldr	r2, [r4, #4]
    if (port == MXC_GPIO3) {
1001095e:	e7c1      	b.n	100108e4 <MXC_GPIO_Config+0x34>
            MXC_MCR->gpio3_ctrl |= P30_OUT_EN(cfg->mask) | P31_OUT_EN(cfg->mask);
10010960:	6863      	ldr	r3, [r4, #4]
10010962:	4863      	ldr	r0, [pc, #396]	@ (10010af0 <MXC_GPIO_Config+0x240>)
10010964:	ea4f 0c43 	mov.w	ip, r3, lsl #1
10010968:	011a      	lsls	r2, r3, #4
1001096a:	6a06      	ldr	r6, [r0, #32]
1001096c:	f00c 0c02 	and.w	ip, ip, #2
10010970:	f002 0220 	and.w	r2, r2, #32
10010974:	ea42 020c 	orr.w	r2, r2, ip
10010978:	4332      	orrs	r2, r6
1001097a:	6202      	str	r2, [r0, #32]
            MXC_MCR->outen |= SQWAVE_OUT_EN(cfg->mask) | PDOWN_OUT_EN(cfg->mask);
1001097c:	6882      	ldr	r2, [r0, #8]
1001097e:	f3c3 0340 	ubfx	r3, r3, #1, #1
10010982:	ea43 030c 	orr.w	r3, r3, ip
10010986:	4313      	orrs	r3, r2
10010988:	6083      	str	r3, [r0, #8]
        switch (cfg->pad) {
1001098a:	7a63      	ldrb	r3, [r4, #9]
1001098c:	2b04      	cmp	r3, #4
1001098e:	d8de      	bhi.n	1001094e <MXC_GPIO_Config+0x9e>
10010990:	e8df f003 	tbb	[pc, r3]
10010994:	1e031e29 	.word	0x1e031e29
10010998:	03          	.byte	0x03
10010999:	00          	.byte	0x00
            MXC_MCR->gpio3_ctrl &= ~(P30_DATA_OUT(cfg->mask) | P31_DATA_OUT(cfg->mask));
1001099a:	6863      	ldr	r3, [r4, #4]
1001099c:	4854      	ldr	r0, [pc, #336]	@ (10010af0 <MXC_GPIO_Config+0x240>)
1001099e:	00da      	lsls	r2, r3, #3
100109a0:	6a06      	ldr	r6, [r0, #32]
100109a2:	f002 0210 	and.w	r2, r2, #16
100109a6:	f003 0c01 	and.w	ip, r3, #1
100109aa:	ea42 020c 	orr.w	r2, r2, ip
100109ae:	ea26 0202 	bic.w	r2, r6, r2
100109b2:	6202      	str	r2, [r0, #32]
            MXC_MCR->gpio3_ctrl &= ~(P30_PULL_DIS(cfg->mask) | P31_PULL_DIS(cfg->mask));
100109b4:	009a      	lsls	r2, r3, #2
100109b6:	015b      	lsls	r3, r3, #5
100109b8:	f002 0204 	and.w	r2, r2, #4
100109bc:	f003 0340 	and.w	r3, r3, #64	@ 0x40
100109c0:	4313      	orrs	r3, r2
100109c2:	6a02      	ldr	r2, [r0, #32]
100109c4:	ea22 0303 	bic.w	r3, r2, r3
100109c8:	6203      	str	r3, [r0, #32]
    if (cfg->func == MXC_GPIO_FUNC_IN) {
100109ca:	b9d1      	cbnz	r1, 10010a02 <MXC_GPIO_Config+0x152>
        return E_NO_ERROR;
100109cc:	4608      	mov	r0, r1
}
100109ce:	bdf8      	pop	{r3, r4, r5, r6, r7, pc}
            MXC_MCR->gpio3_ctrl |= P30_DATA_OUT(cfg->mask) | P31_DATA_OUT(cfg->mask);
100109d0:	4847      	ldr	r0, [pc, #284]	@ (10010af0 <MXC_GPIO_Config+0x240>)
100109d2:	6863      	ldr	r3, [r4, #4]
100109d4:	6a07      	ldr	r7, [r0, #32]
100109d6:	00da      	lsls	r2, r3, #3
100109d8:	f003 0601 	and.w	r6, r3, #1
100109dc:	f002 0210 	and.w	r2, r2, #16
100109e0:	433e      	orrs	r6, r7
100109e2:	4332      	orrs	r2, r6
100109e4:	e7e5      	b.n	100109b2 <MXC_GPIO_Config+0x102>
            MXC_MCR->gpio3_ctrl |= P30_PULL_DIS(cfg->mask) | P31_PULL_DIS(cfg->mask);
100109e6:	6862      	ldr	r2, [r4, #4]
100109e8:	4841      	ldr	r0, [pc, #260]	@ (10010af0 <MXC_GPIO_Config+0x240>)
100109ea:	0093      	lsls	r3, r2, #2
100109ec:	0152      	lsls	r2, r2, #5
100109ee:	6a06      	ldr	r6, [r0, #32]
100109f0:	f003 0304 	and.w	r3, r3, #4
100109f4:	f002 0240 	and.w	r2, r2, #64	@ 0x40
100109f8:	4313      	orrs	r3, r2
100109fa:	4333      	orrs	r3, r6
100109fc:	6203      	str	r3, [r0, #32]
    if (cfg->func == MXC_GPIO_FUNC_IN) {
100109fe:	2900      	cmp	r1, #0
10010a00:	d0e4      	beq.n	100109cc <MXC_GPIO_Config+0x11c>
}

/* ************************************************************************** */
int MXC_GPIO_SetDriveStrength(mxc_gpio_regs_t *port, mxc_gpio_drvstr_t drvstr, uint32_t mask)
{
    return MXC_GPIO_RevA_SetDriveStrength((mxc_gpio_reva_regs_t *)port, drvstr, mask);
10010a02:	6862      	ldr	r2, [r4, #4]
10010a04:	7ae1      	ldrb	r1, [r4, #11]
10010a06:	4628      	mov	r0, r5
}
10010a08:	e8bd 40f8 	ldmia.w	sp!, {r3, r4, r5, r6, r7, lr}
    return MXC_GPIO_RevA_SetDriveStrength((mxc_gpio_reva_regs_t *)port, drvstr, mask);
10010a0c:	f000 b90e 	b.w	10010c2c <MXC_GPIO_RevA_SetDriveStrength>
    MXC_GPIO_Init(1 << port);
10010a10:	2004      	movs	r0, #4
10010a12:	f7ff ff2d 	bl	10010870 <MXC_GPIO_Init>
    error = MXC_GPIO_SetVSSEL(gpio, cfg->vssel, cfg->mask);
10010a16:	7aa1      	ldrb	r1, [r4, #10]
10010a18:	6862      	ldr	r2, [r4, #4]
    if (port == MXC_GPIO3) {
10010a1a:	e763      	b.n	100108e4 <MXC_GPIO_Config+0x34>
            MXC_MCR->gpio3_ctrl |= P30_OUT_EN(cfg->mask) | P31_OUT_EN(cfg->mask);
10010a1c:	6863      	ldr	r3, [r4, #4]
10010a1e:	4834      	ldr	r0, [pc, #208]	@ (10010af0 <MXC_GPIO_Config+0x240>)
10010a20:	ea4f 0c43 	mov.w	ip, r3, lsl #1
10010a24:	011a      	lsls	r2, r3, #4
10010a26:	6a06      	ldr	r6, [r0, #32]
10010a28:	f00c 0c02 	and.w	ip, ip, #2
10010a2c:	f002 0220 	and.w	r2, r2, #32
10010a30:	ea42 020c 	orr.w	r2, r2, ip
10010a34:	4332      	orrs	r2, r6
10010a36:	6202      	str	r2, [r0, #32]
            MXC_MCR->outen &= ~(SQWAVE_OUT_EN(cfg->mask) | PDOWN_OUT_EN(cfg->mask));
10010a38:	6882      	ldr	r2, [r0, #8]
10010a3a:	f3c3 0340 	ubfx	r3, r3, #1, #1
10010a3e:	ea43 030c 	orr.w	r3, r3, ip
10010a42:	ea22 0303 	bic.w	r3, r2, r3
10010a46:	6083      	str	r3, [r0, #8]
            break;
10010a48:	e79f      	b.n	1001098a <MXC_GPIO_Config+0xda>
            MXC_MCR->gpio3_ctrl &= ~(P30_OUT_EN(cfg->mask) | P31_OUT_EN(cfg->mask));
10010a4a:	6863      	ldr	r3, [r4, #4]
10010a4c:	4828      	ldr	r0, [pc, #160]	@ (10010af0 <MXC_GPIO_Config+0x240>)
10010a4e:	ea4f 0c43 	mov.w	ip, r3, lsl #1
10010a52:	011a      	lsls	r2, r3, #4
10010a54:	6a06      	ldr	r6, [r0, #32]
10010a56:	f00c 0c02 	and.w	ip, ip, #2
10010a5a:	f002 0220 	and.w	r2, r2, #32
10010a5e:	ea42 020c 	orr.w	r2, r2, ip
10010a62:	ea26 0202 	bic.w	r2, r6, r2
10010a66:	e7e6      	b.n	10010a36 <MXC_GPIO_Config+0x186>
            gpio->padctrl0 &= ~cfg->mask;
10010a68:	6e2b      	ldr	r3, [r5, #96]	@ 0x60
10010a6a:	6862      	ldr	r2, [r4, #4]
10010a6c:	ea23 0302 	bic.w	r3, r3, r2
10010a70:	662b      	str	r3, [r5, #96]	@ 0x60
            gpio->padctrl1 &= ~cfg->mask;
10010a72:	6e6b      	ldr	r3, [r5, #100]	@ 0x64
10010a74:	ea23 0302 	bic.w	r3, r3, r2
10010a78:	666b      	str	r3, [r5, #100]	@ 0x64
    if (cfg->func == MXC_GPIO_FUNC_IN) {
10010a7a:	7a21      	ldrb	r1, [r4, #8]
            break;
10010a7c:	e7a5      	b.n	100109ca <MXC_GPIO_Config+0x11a>
            gpio->padctrl0 |= cfg->mask;
10010a7e:	6e2a      	ldr	r2, [r5, #96]	@ 0x60
10010a80:	6863      	ldr	r3, [r4, #4]
10010a82:	431a      	orrs	r2, r3
10010a84:	662a      	str	r2, [r5, #96]	@ 0x60
            gpio->padctrl1 &= ~cfg->mask;
10010a86:	6e6a      	ldr	r2, [r5, #100]	@ 0x64
10010a88:	ea22 0203 	bic.w	r2, r2, r3
            gpio->padctrl1 |= cfg->mask;
10010a8c:	666a      	str	r2, [r5, #100]	@ 0x64
            gpio->ps |= cfg->mask;
10010a8e:	f8d5 20b8 	ldr.w	r2, [r5, #184]	@ 0xb8
10010a92:	4313      	orrs	r3, r2
10010a94:	f8c5 30b8 	str.w	r3, [r5, #184]	@ 0xb8
    if (cfg->func == MXC_GPIO_FUNC_IN) {
10010a98:	7a21      	ldrb	r1, [r4, #8]
            break;
10010a9a:	e796      	b.n	100109ca <MXC_GPIO_Config+0x11a>
            gpio->padctrl0 &= ~cfg->mask;
10010a9c:	6e2a      	ldr	r2, [r5, #96]	@ 0x60
10010a9e:	6863      	ldr	r3, [r4, #4]
10010aa0:	ea22 0203 	bic.w	r2, r2, r3
10010aa4:	662a      	str	r2, [r5, #96]	@ 0x60
            gpio->padctrl1 |= cfg->mask;
10010aa6:	6e6a      	ldr	r2, [r5, #100]	@ 0x64
10010aa8:	431a      	orrs	r2, r3
10010aaa:	e7ef      	b.n	10010a8c <MXC_GPIO_Config+0x1dc>
            gpio->padctrl0 |= cfg->mask;
10010aac:	6e2b      	ldr	r3, [r5, #96]	@ 0x60
10010aae:	6862      	ldr	r2, [r4, #4]
10010ab0:	4313      	orrs	r3, r2
10010ab2:	662b      	str	r3, [r5, #96]	@ 0x60
            gpio->padctrl1 &= ~cfg->mask;
10010ab4:	6e6b      	ldr	r3, [r5, #100]	@ 0x64
10010ab6:	ea23 0302 	bic.w	r3, r3, r2
            gpio->padctrl1 |= cfg->mask;
10010aba:	666b      	str	r3, [r5, #100]	@ 0x64
            gpio->ps &= ~cfg->mask;
10010abc:	f8d5 30b8 	ldr.w	r3, [r5, #184]	@ 0xb8
10010ac0:	ea23 0302 	bic.w	r3, r3, r2
10010ac4:	f8c5 30b8 	str.w	r3, [r5, #184]	@ 0xb8
    if (cfg->func == MXC_GPIO_FUNC_IN) {
10010ac8:	7a21      	ldrb	r1, [r4, #8]
            break;
10010aca:	e77e      	b.n	100109ca <MXC_GPIO_Config+0x11a>
            gpio->padctrl0 &= ~cfg->mask;
10010acc:	6e2b      	ldr	r3, [r5, #96]	@ 0x60
10010ace:	6862      	ldr	r2, [r4, #4]
10010ad0:	ea23 0302 	bic.w	r3, r3, r2
10010ad4:	662b      	str	r3, [r5, #96]	@ 0x60
            gpio->padctrl1 |= cfg->mask;
10010ad6:	6e6b      	ldr	r3, [r5, #100]	@ 0x64
10010ad8:	4313      	orrs	r3, r2
10010ada:	e7ee      	b.n	10010aba <MXC_GPIO_Config+0x20a>
        switch (cfg->pad) {
10010adc:	f06f 0002 	mvn.w	r0, #2
}
10010ae0:	bdf8      	pop	{r3, r4, r5, r6, r7, pc}
10010ae2:	bf00      	nop
10010ae4:	40008000 	.word	0x40008000
10010ae8:	40080400 	.word	0x40080400
10010aec:	40080600 	.word	0x40080600
10010af0:	40006c00 	.word	0x40006c00

10010af4 <MXC_GPIO_OutSet>:
    if (port == MXC_GPIO3) {
10010af4:	4a08      	ldr	r2, [pc, #32]	@ (10010b18 <MXC_GPIO_OutSet+0x24>)
10010af6:	4290      	cmp	r0, r2
10010af8:	d001      	beq.n	10010afe <MXC_GPIO_OutSet+0xa>
    MXC_GPIO_RevA_OutSet((mxc_gpio_reva_regs_t *)port, mask);
10010afa:	f000 b843 	b.w	10010b84 <MXC_GPIO_RevA_OutSet>
        MXC_MCR->gpio3_ctrl |= P30_DATA_OUT(mask) | P31_DATA_OUT(mask);
10010afe:	4807      	ldr	r0, [pc, #28]	@ (10010b1c <MXC_GPIO_OutSet+0x28>)
{
10010b00:	b410      	push	{r4}
        MXC_MCR->gpio3_ctrl |= P30_DATA_OUT(mask) | P31_DATA_OUT(mask);
10010b02:	6a04      	ldr	r4, [r0, #32]
10010b04:	00ca      	lsls	r2, r1, #3
10010b06:	f001 0101 	and.w	r1, r1, #1
10010b0a:	4321      	orrs	r1, r4
10010b0c:	f002 0310 	and.w	r3, r2, #16
10010b10:	430b      	orrs	r3, r1
}
10010b12:	bc10      	pop	{r4}
        MXC_MCR->gpio3_ctrl |= P30_DATA_OUT(mask) | P31_DATA_OUT(mask);
10010b14:	6203      	str	r3, [r0, #32]
}
10010b16:	4770      	bx	lr
10010b18:	40080600 	.word	0x40080600
10010b1c:	40006c00 	.word	0x40006c00

10010b20 <MXC_GPIO_OutClr>:
    if (port == MXC_GPIO3) {
10010b20:	4a09      	ldr	r2, [pc, #36]	@ (10010b48 <MXC_GPIO_OutClr+0x28>)
10010b22:	4290      	cmp	r0, r2
10010b24:	d001      	beq.n	10010b2a <MXC_GPIO_OutClr+0xa>
    MXC_GPIO_RevA_OutClr((mxc_gpio_reva_regs_t *)port, mask);
10010b26:	f000 b82f 	b.w	10010b88 <MXC_GPIO_RevA_OutClr>
{
10010b2a:	b410      	push	{r4}
        MXC_MCR->gpio3_ctrl &= ~(P30_DATA_OUT(mask) | P31_DATA_OUT(mask));
10010b2c:	4c07      	ldr	r4, [pc, #28]	@ (10010b4c <MXC_GPIO_OutClr+0x2c>)
10010b2e:	00ca      	lsls	r2, r1, #3
10010b30:	6a20      	ldr	r0, [r4, #32]
10010b32:	f002 0210 	and.w	r2, r2, #16
10010b36:	f001 0101 	and.w	r1, r1, #1
10010b3a:	ea42 0301 	orr.w	r3, r2, r1
10010b3e:	ea20 0303 	bic.w	r3, r0, r3
10010b42:	6223      	str	r3, [r4, #32]
}
10010b44:	bc10      	pop	{r4}
10010b46:	4770      	bx	lr
10010b48:	40080600 	.word	0x40080600
10010b4c:	40006c00 	.word	0x40006c00

10010b50 <MXC_GPIO_Handler>:
    MXC_GPIO_Common_Handler(port);
10010b50:	f000 bb94 	b.w	1001127c <MXC_GPIO_Common_Handler>

10010b54 <MXC_GPIO_ClearFlags>:
    if (port == MXC_GPIO3) {
10010b54:	4a03      	ldr	r2, [pc, #12]	@ (10010b64 <MXC_GPIO_ClearFlags+0x10>)
10010b56:	4290      	cmp	r0, r2
10010b58:	d001      	beq.n	10010b5e <MXC_GPIO_ClearFlags+0xa>
    MXC_GPIO_RevA_ClearFlags((mxc_gpio_reva_regs_t *)port, flags);
10010b5a:	f000 b817 	b.w	10010b8c <MXC_GPIO_RevA_ClearFlags>
        MXC_PWRSEQ->lpwkst3 = flags;
10010b5e:	4a02      	ldr	r2, [pc, #8]	@ (10010b68 <MXC_GPIO_ClearFlags+0x14>)
10010b60:	61d1      	str	r1, [r2, #28]
}
10010b62:	4770      	bx	lr
10010b64:	40080600 	.word	0x40080600
10010b68:	40006800 	.word	0x40006800

10010b6c <MXC_GPIO_GetFlags>:
    if (port == MXC_GPIO3) {
10010b6c:	4b03      	ldr	r3, [pc, #12]	@ (10010b7c <MXC_GPIO_GetFlags+0x10>)
10010b6e:	4298      	cmp	r0, r3
10010b70:	d001      	beq.n	10010b76 <MXC_GPIO_GetFlags+0xa>
    return MXC_GPIO_RevA_GetFlags((mxc_gpio_reva_regs_t *)port);
10010b72:	f000 b80d 	b.w	10010b90 <MXC_GPIO_RevA_GetFlags>
        return MXC_PWRSEQ->lpwkst3;
10010b76:	4b02      	ldr	r3, [pc, #8]	@ (10010b80 <MXC_GPIO_GetFlags+0x14>)
10010b78:	69d8      	ldr	r0, [r3, #28]
}
10010b7a:	4770      	bx	lr
10010b7c:	40080600 	.word	0x40080600
10010b80:	40006800 	.word	0x40006800

10010b84 <MXC_GPIO_RevA_OutSet>:
    return (port->in & mask);
}

void MXC_GPIO_RevA_OutSet(mxc_gpio_reva_regs_t *port, uint32_t mask)
{
    port->out_set = mask;
10010b84:	61c1      	str	r1, [r0, #28]
}
10010b86:	4770      	bx	lr

10010b88 <MXC_GPIO_RevA_OutClr>:

void MXC_GPIO_RevA_OutClr(mxc_gpio_reva_regs_t *port, uint32_t mask)
{
    port->out_clr = mask;
10010b88:	6201      	str	r1, [r0, #32]
}
10010b8a:	4770      	bx	lr

10010b8c <MXC_GPIO_RevA_ClearFlags>:
    port->inten_clr = mask;
}

void MXC_GPIO_RevA_ClearFlags(mxc_gpio_reva_regs_t *port, uint32_t flags)
{
    port->intfl_clr = flags;
10010b8c:	6481      	str	r1, [r0, #72]	@ 0x48
}
10010b8e:	4770      	bx	lr

10010b90 <MXC_GPIO_RevA_GetFlags>:

uint32_t MXC_GPIO_RevA_GetFlags(mxc_gpio_reva_regs_t *port)
{
    return port->intfl;
10010b90:	6c00      	ldr	r0, [r0, #64]	@ 0x40
}
10010b92:	4770      	bx	lr

10010b94 <MXC_GPIO_RevA_SetVSSEL>:

int MXC_GPIO_RevA_SetVSSEL(mxc_gpio_reva_regs_t *port, mxc_gpio_vssel_t vssel, uint32_t mask)
{
    // Configure the vssel
    switch (vssel) {
10010b94:	b159      	cbz	r1, 10010bae <MXC_GPIO_RevA_SetVSSEL+0x1a>
10010b96:	2901      	cmp	r1, #1
10010b98:	d106      	bne.n	10010ba8 <MXC_GPIO_RevA_SetVSSEL+0x14>
    case MXC_GPIO_VSSEL_VDDIO:
        port->vssel &= ~mask;
        break;

    case MXC_GPIO_VSSEL_VDDIOH:
        port->vssel |= mask;
10010b9a:	f8d0 30c0 	ldr.w	r3, [r0, #192]	@ 0xc0
10010b9e:	4313      	orrs	r3, r2
10010ba0:	f8c0 30c0 	str.w	r3, [r0, #192]	@ 0xc0

    default:
        return E_BAD_PARAM;
    }

    return E_NO_ERROR;
10010ba4:	2000      	movs	r0, #0
}
10010ba6:	4770      	bx	lr
    switch (vssel) {
10010ba8:	f06f 0002 	mvn.w	r0, #2
10010bac:	4770      	bx	lr
        port->vssel &= ~mask;
10010bae:	f8d0 30c0 	ldr.w	r3, [r0, #192]	@ 0xc0
10010bb2:	ea23 0302 	bic.w	r3, r3, r2
10010bb6:	f8c0 30c0 	str.w	r3, [r0, #192]	@ 0xc0
    return E_NO_ERROR;
10010bba:	2000      	movs	r0, #0
}
10010bbc:	4770      	bx	lr
10010bbe:	bf00      	nop

10010bc0 <MXC_GPIO_RevA_SetAF>:

int MXC_GPIO_RevA_SetAF(mxc_gpio_reva_regs_t *port, mxc_gpio_func_t func, uint32_t mask)
{
    //This is required for new devices going forward.
    port->inen |= mask;
10010bc0:	6b03      	ldr	r3, [r0, #48]	@ 0x30
10010bc2:	4313      	orrs	r3, r2
10010bc4:	6303      	str	r3, [r0, #48]	@ 0x30

    //Switch to I/O mode first
    port->en0_set = mask;
10010bc6:	6042      	str	r2, [r0, #4]

    switch (func) {
10010bc8:	2905      	cmp	r1, #5
10010bca:	d82c      	bhi.n	10010c26 <MXC_GPIO_RevA_SetAF+0x66>
10010bcc:	e8df f001 	tbb	[pc, r1]
10010bd0:	1f19120a 	.word	0x1f19120a
10010bd4:	0325      	.short	0x0325
        port->en1_clr = mask;
        port->en0_clr = mask;
        break;

    case MXC_GPIO_FUNC_ALT4:
        port->en3_clr = mask;
10010bd6:	f8c0 2088 	str.w	r2, [r0, #136]	@ 0x88
        port->en2_set = mask;
10010bda:	6782      	str	r2, [r0, #120]	@ 0x78
        port->en1_set = mask;
10010bdc:	66c2      	str	r2, [r0, #108]	@ 0x6c
        port->en0_clr = mask;
10010bde:	6082      	str	r2, [r0, #8]
#endif
    default:
        return E_BAD_PARAM;
    }

    return E_NO_ERROR;
10010be0:	2000      	movs	r0, #0
10010be2:	4770      	bx	lr
        port->outen_clr = mask;
10010be4:	6142      	str	r2, [r0, #20]
        port->en0_set = mask;
10010be6:	6042      	str	r2, [r0, #4]
        port->en1_clr = mask;
10010be8:	6702      	str	r2, [r0, #112]	@ 0x70
        port->en2_clr = mask;
10010bea:	67c2      	str	r2, [r0, #124]	@ 0x7c
        port->en3_clr = mask;
10010bec:	f8c0 2088 	str.w	r2, [r0, #136]	@ 0x88
    return E_NO_ERROR;
10010bf0:	2000      	movs	r0, #0
10010bf2:	4770      	bx	lr
        port->outen_set = mask;
10010bf4:	6102      	str	r2, [r0, #16]
        port->en0_set = mask;
10010bf6:	6042      	str	r2, [r0, #4]
        port->en1_clr = mask;
10010bf8:	6702      	str	r2, [r0, #112]	@ 0x70
        port->en2_clr = mask;
10010bfa:	67c2      	str	r2, [r0, #124]	@ 0x7c
        port->en3_clr = mask;
10010bfc:	f8c0 2088 	str.w	r2, [r0, #136]	@ 0x88
        break;
10010c00:	e7ee      	b.n	10010be0 <MXC_GPIO_RevA_SetAF+0x20>
        port->en3_clr = mask;
10010c02:	f8c0 2088 	str.w	r2, [r0, #136]	@ 0x88
        port->en2_clr = mask;
10010c06:	67c2      	str	r2, [r0, #124]	@ 0x7c
        port->en1_clr = mask;
10010c08:	6702      	str	r2, [r0, #112]	@ 0x70
        port->en0_clr = mask;
10010c0a:	6082      	str	r2, [r0, #8]
        break;
10010c0c:	e7e8      	b.n	10010be0 <MXC_GPIO_RevA_SetAF+0x20>
        port->en3_clr = mask;
10010c0e:	f8c0 2088 	str.w	r2, [r0, #136]	@ 0x88
        port->en2_clr = mask;
10010c12:	67c2      	str	r2, [r0, #124]	@ 0x7c
        port->en1_set = mask;
10010c14:	66c2      	str	r2, [r0, #108]	@ 0x6c
        port->en0_clr = mask;
10010c16:	6082      	str	r2, [r0, #8]
        break;
10010c18:	e7e2      	b.n	10010be0 <MXC_GPIO_RevA_SetAF+0x20>
        port->en3_clr = mask;
10010c1a:	f8c0 2088 	str.w	r2, [r0, #136]	@ 0x88
        port->en2_set = mask;
10010c1e:	6782      	str	r2, [r0, #120]	@ 0x78
        port->en1_clr = mask;
10010c20:	6702      	str	r2, [r0, #112]	@ 0x70
        port->en0_clr = mask;
10010c22:	6082      	str	r2, [r0, #8]
        break;
10010c24:	e7dc      	b.n	10010be0 <MXC_GPIO_RevA_SetAF+0x20>
    switch (func) {
10010c26:	f06f 0002 	mvn.w	r0, #2
}
10010c2a:	4770      	bx	lr

10010c2c <MXC_GPIO_RevA_SetDriveStrength>:

int MXC_GPIO_RevA_SetDriveStrength(mxc_gpio_reva_regs_t *port, mxc_gpio_drvstr_t drvstr,
                                   uint32_t mask)
{
    // Configure the drive strength.
    switch (drvstr) {
10010c2c:	2903      	cmp	r1, #3
10010c2e:	d829      	bhi.n	10010c84 <MXC_GPIO_RevA_SetDriveStrength+0x58>
10010c30:	e8df f001 	tbb	[pc, r1]
10010c34:	1c020f28 	.word	0x1c020f28
        port->ds0 |= mask;
        port->ds1 &= ~mask;
        break;

    case MXC_GPIO_DRVSTR_2:
        port->ds0 &= ~mask;
10010c38:	f8d0 30b0 	ldr.w	r3, [r0, #176]	@ 0xb0
10010c3c:	ea23 0302 	bic.w	r3, r3, r2
10010c40:	f8c0 30b0 	str.w	r3, [r0, #176]	@ 0xb0
        port->ds1 |= mask;
10010c44:	f8d0 30b4 	ldr.w	r3, [r0, #180]	@ 0xb4
10010c48:	4313      	orrs	r3, r2
10010c4a:	f8c0 30b4 	str.w	r3, [r0, #180]	@ 0xb4
        port->ds0 &= ~mask;
        port->ds1 &= ~mask;
    }

    return E_NO_ERROR;
}
10010c4e:	2000      	movs	r0, #0
10010c50:	4770      	bx	lr
        port->ds0 |= mask;
10010c52:	f8d0 30b0 	ldr.w	r3, [r0, #176]	@ 0xb0
10010c56:	4313      	orrs	r3, r2
10010c58:	f8c0 30b0 	str.w	r3, [r0, #176]	@ 0xb0
        port->ds1 &= ~mask;
10010c5c:	f8d0 30b4 	ldr.w	r3, [r0, #180]	@ 0xb4
10010c60:	ea23 0302 	bic.w	r3, r3, r2
10010c64:	f8c0 30b4 	str.w	r3, [r0, #180]	@ 0xb4
}
10010c68:	2000      	movs	r0, #0
10010c6a:	4770      	bx	lr
        port->ds0 |= mask;
10010c6c:	f8d0 30b0 	ldr.w	r3, [r0, #176]	@ 0xb0
10010c70:	4313      	orrs	r3, r2
10010c72:	f8c0 30b0 	str.w	r3, [r0, #176]	@ 0xb0
        port->ds1 |= mask;
10010c76:	f8d0 30b4 	ldr.w	r3, [r0, #180]	@ 0xb4
10010c7a:	4313      	orrs	r3, r2
10010c7c:	f8c0 30b4 	str.w	r3, [r0, #180]	@ 0xb4
}
10010c80:	2000      	movs	r0, #0
10010c82:	4770      	bx	lr
        port->ds0 &= ~mask;
10010c84:	f8d0 30b0 	ldr.w	r3, [r0, #176]	@ 0xb0
10010c88:	ea23 0302 	bic.w	r3, r3, r2
10010c8c:	f8c0 30b0 	str.w	r3, [r0, #176]	@ 0xb0
        port->ds1 &= ~mask;
10010c90:	f8d0 30b4 	ldr.w	r3, [r0, #180]	@ 0xb4
10010c94:	ea23 0302 	bic.w	r3, r3, r2
10010c98:	f8c0 30b4 	str.w	r3, [r0, #180]	@ 0xb4
}
10010c9c:	2000      	movs	r0, #0
10010c9e:	4770      	bx	lr

10010ca0 <MXC_ICC_Enable>:
    return MXC_ICC_RevA_ID((mxc_icc_reva_regs_t *)icc, cid);
}

void MXC_ICC_Enable(mxc_icc_regs_t *icc)
{
    MXC_ICC_RevA_Enable((mxc_icc_reva_regs_t *)icc);
10010ca0:	f000 b802 	b.w	10010ca8 <MXC_ICC_RevA_Enable>

10010ca4 <MXC_ICC_Disable>:
}

void MXC_ICC_Disable(mxc_icc_regs_t *icc)
{
    MXC_ICC_RevA_Disable((mxc_icc_reva_regs_t *)icc);
10010ca4:	f000 b818 	b.w	10010cd8 <MXC_ICC_RevA_Disable>

10010ca8 <MXC_ICC_RevA_Enable>:
}

void MXC_ICC_RevA_Enable(mxc_icc_reva_regs_t *icc)
{
    // Invalidate cache and wait until ready
    icc->ctrl &= ~MXC_F_ICC_REVA_CTRL_EN;
10010ca8:	f8d0 3100 	ldr.w	r3, [r0, #256]	@ 0x100
    icc->invalidate = 1;
10010cac:	2201      	movs	r2, #1
    icc->ctrl &= ~MXC_F_ICC_REVA_CTRL_EN;
10010cae:	f023 0301 	bic.w	r3, r3, #1
10010cb2:	f8c0 3100 	str.w	r3, [r0, #256]	@ 0x100
    icc->invalidate = 1;
10010cb6:	f8c0 2700 	str.w	r2, [r0, #1792]	@ 0x700
    return (icc->ctrl & MXC_F_ICC_REVA_CTRL_RDY);
10010cba:	f8d0 3100 	ldr.w	r3, [r0, #256]	@ 0x100

    while (!(MXC_ICC_Ready(icc))) {}
10010cbe:	03da      	lsls	r2, r3, #15
10010cc0:	d5fb      	bpl.n	10010cba <MXC_ICC_RevA_Enable+0x12>

    // Enable Cache
    icc->ctrl |= MXC_F_ICC_REVA_CTRL_EN;
10010cc2:	f8d0 3100 	ldr.w	r3, [r0, #256]	@ 0x100
10010cc6:	f043 0301 	orr.w	r3, r3, #1
10010cca:	f8c0 3100 	str.w	r3, [r0, #256]	@ 0x100
    return (icc->ctrl & MXC_F_ICC_REVA_CTRL_RDY);
10010cce:	f8d0 3100 	ldr.w	r3, [r0, #256]	@ 0x100
    while (!(MXC_ICC_Ready(icc))) {}
10010cd2:	03db      	lsls	r3, r3, #15
10010cd4:	d5fb      	bpl.n	10010cce <MXC_ICC_RevA_Enable+0x26>
}
10010cd6:	4770      	bx	lr

10010cd8 <MXC_ICC_RevA_Disable>:

void MXC_ICC_RevA_Disable(mxc_icc_reva_regs_t *icc)
{
    // Disable Cache
    icc->ctrl &= ~MXC_F_ICC_REVA_CTRL_EN;
10010cd8:	f8d0 3100 	ldr.w	r3, [r0, #256]	@ 0x100
10010cdc:	f023 0301 	bic.w	r3, r3, #1
10010ce0:	f8c0 3100 	str.w	r3, [r0, #256]	@ 0x100
}
10010ce4:	4770      	bx	lr
10010ce6:	bf00      	nop

10010ce8 <MXC_UART_Shutdown>:

    return MXC_UART_RevB_Init((mxc_uart_revb_regs_t *)uart, baud, clock);
}

int MXC_UART_Shutdown(mxc_uart_regs_t *uart)
{
10010ce8:	b508      	push	{r3, lr}
    switch (MXC_UART_GET_IDX(uart)) {
10010cea:	4b16      	ldr	r3, [pc, #88]	@ (10010d44 <MXC_UART_Shutdown+0x5c>)
10010cec:	4298      	cmp	r0, r3
10010cee:	d010      	beq.n	10010d12 <MXC_UART_Shutdown+0x2a>
10010cf0:	4b15      	ldr	r3, [pc, #84]	@ (10010d48 <MXC_UART_Shutdown+0x60>)
10010cf2:	4298      	cmp	r0, r3
10010cf4:	d014      	beq.n	10010d20 <MXC_UART_Shutdown+0x38>
10010cf6:	4b15      	ldr	r3, [pc, #84]	@ (10010d4c <MXC_UART_Shutdown+0x64>)
10010cf8:	4298      	cmp	r0, r3
10010cfa:	d018      	beq.n	10010d2e <MXC_UART_Shutdown+0x46>
10010cfc:	4b14      	ldr	r3, [pc, #80]	@ (10010d50 <MXC_UART_Shutdown+0x68>)
10010cfe:	4298      	cmp	r0, r3
10010d00:	d11c      	bne.n	10010d3c <MXC_UART_Shutdown+0x54>
        MXC_SYS_Reset_Periph(MXC_SYS_RESET0_UART2);
        MXC_SYS_ClockDisable(MXC_SYS_PERIPH_CLOCK_UART2);
        break;

    case 3:
        MXC_SYS_Reset_Periph(MXC_SYS_RESET_UART3);
10010d02:	2044      	movs	r0, #68	@ 0x44
10010d04:	f7ff fd42 	bl	1001078c <MXC_SYS_Reset_Periph>
        MXC_SYS_ClockDisable(MXC_SYS_PERIPH_CLOCK_UART3);
10010d08:	2044      	movs	r0, #68	@ 0x44
10010d0a:	f7ff fc83 	bl	10010614 <MXC_SYS_ClockDisable>

    default:
        return E_BAD_PARAM;
    }

    return E_NO_ERROR;
10010d0e:	2000      	movs	r0, #0
}
10010d10:	bd08      	pop	{r3, pc}
        MXC_SYS_Reset_Periph(MXC_SYS_RESET0_UART0);
10010d12:	200b      	movs	r0, #11
10010d14:	f7ff fd3a 	bl	1001078c <MXC_SYS_Reset_Periph>
        MXC_SYS_ClockDisable(MXC_SYS_PERIPH_CLOCK_UART0);
10010d18:	2009      	movs	r0, #9
10010d1a:	f7ff fc7b 	bl	10010614 <MXC_SYS_ClockDisable>
        break;
10010d1e:	e7f6      	b.n	10010d0e <MXC_UART_Shutdown+0x26>
        MXC_SYS_Reset_Periph(MXC_SYS_RESET0_UART1);
10010d20:	200c      	movs	r0, #12
10010d22:	f7ff fd33 	bl	1001078c <MXC_SYS_Reset_Periph>
        MXC_SYS_ClockDisable(MXC_SYS_PERIPH_CLOCK_UART1);
10010d26:	200a      	movs	r0, #10
10010d28:	f7ff fc74 	bl	10010614 <MXC_SYS_ClockDisable>
        break;
10010d2c:	e7ef      	b.n	10010d0e <MXC_UART_Shutdown+0x26>
        MXC_SYS_Reset_Periph(MXC_SYS_RESET0_UART2);
10010d2e:	201c      	movs	r0, #28
10010d30:	f7ff fd2c 	bl	1001078c <MXC_SYS_Reset_Periph>
        MXC_SYS_ClockDisable(MXC_SYS_PERIPH_CLOCK_UART2);
10010d34:	2021      	movs	r0, #33	@ 0x21
10010d36:	f7ff fc6d 	bl	10010614 <MXC_SYS_ClockDisable>
        break;
10010d3a:	e7e8      	b.n	10010d0e <MXC_UART_Shutdown+0x26>
        return E_BAD_PARAM;
10010d3c:	f06f 0002 	mvn.w	r0, #2
}
10010d40:	bd08      	pop	{r3, pc}
10010d42:	bf00      	nop
10010d44:	40042000 	.word	0x40042000
10010d48:	40043000 	.word	0x40043000
10010d4c:	40044000 	.word	0x40044000
10010d50:	40081400 	.word	0x40081400

10010d54 <MXC_UART_Init>:
{
10010d54:	b570      	push	{r4, r5, r6, lr}
10010d56:	4604      	mov	r4, r0
10010d58:	460e      	mov	r6, r1
10010d5a:	4615      	mov	r5, r2
    retval = MXC_UART_Shutdown(uart);
10010d5c:	f7ff ffc4 	bl	10010ce8 <MXC_UART_Shutdown>
    if (retval) {
10010d60:	bba0      	cbnz	r0, 10010dcc <MXC_UART_Init+0x78>
    switch (clock) {
10010d62:	2d02      	cmp	r5, #2
10010d64:	d01d      	beq.n	10010da2 <MXC_UART_Init+0x4e>
10010d66:	2d04      	cmp	r5, #4
10010d68:	d102      	bne.n	10010d70 <MXC_UART_Init+0x1c>
        MXC_SYS_ClockSourceEnable(MXC_SYS_CLOCK_ERTCO);
10010d6a:	2006      	movs	r0, #6
10010d6c:	f7ff fc94 	bl	10010698 <MXC_SYS_ClockSourceEnable>
    switch (MXC_UART_GET_IDX(uart)) {
10010d70:	4b1e      	ldr	r3, [pc, #120]	@ (10010dec <MXC_UART_Init+0x98>)
10010d72:	429c      	cmp	r4, r3
10010d74:	d01b      	beq.n	10010dae <MXC_UART_Init+0x5a>
10010d76:	4b1e      	ldr	r3, [pc, #120]	@ (10010df0 <MXC_UART_Init+0x9c>)
10010d78:	429c      	cmp	r4, r3
10010d7a:	d028      	beq.n	10010dce <MXC_UART_Init+0x7a>
10010d7c:	4b1d      	ldr	r3, [pc, #116]	@ (10010df4 <MXC_UART_Init+0xa0>)
10010d7e:	429c      	cmp	r4, r3
10010d80:	d02c      	beq.n	10010ddc <MXC_UART_Init+0x88>
10010d82:	4b1d      	ldr	r3, [pc, #116]	@ (10010df8 <MXC_UART_Init+0xa4>)
10010d84:	429c      	cmp	r4, r3
10010d86:	d11f      	bne.n	10010dc8 <MXC_UART_Init+0x74>
        MXC_GPIO_Config(&gpio_cfg_uart3);
10010d88:	481c      	ldr	r0, [pc, #112]	@ (10010dfc <MXC_UART_Init+0xa8>)
10010d8a:	f7ff fd91 	bl	100108b0 <MXC_GPIO_Config>
        MXC_SYS_ClockEnable(MXC_SYS_PERIPH_CLOCK_UART3);
10010d8e:	2044      	movs	r0, #68	@ 0x44
10010d90:	f7ff fc60 	bl	10010654 <MXC_SYS_ClockEnable>
    return MXC_UART_RevB_Init((mxc_uart_revb_regs_t *)uart, baud, clock);
10010d94:	462a      	mov	r2, r5
10010d96:	4631      	mov	r1, r6
10010d98:	4620      	mov	r0, r4
}
10010d9a:	e8bd 4070 	ldmia.w	sp!, {r4, r5, r6, lr}
    return MXC_UART_RevB_Init((mxc_uart_revb_regs_t *)uart, baud, clock);
10010d9e:	f000 b8f5 	b.w	10010f8c <MXC_UART_RevB_Init>
        MXC_SYS_ClockSourceEnable(MXC_SYS_CLOCK_IBRO);
10010da2:	2005      	movs	r0, #5
10010da4:	f7ff fc78 	bl	10010698 <MXC_SYS_ClockSourceEnable>
    switch (MXC_UART_GET_IDX(uart)) {
10010da8:	4b10      	ldr	r3, [pc, #64]	@ (10010dec <MXC_UART_Init+0x98>)
10010daa:	429c      	cmp	r4, r3
10010dac:	d1e3      	bne.n	10010d76 <MXC_UART_Init+0x22>
        MXC_GPIO_Config(&gpio_cfg_uart0);
10010dae:	4814      	ldr	r0, [pc, #80]	@ (10010e00 <MXC_UART_Init+0xac>)
10010db0:	f7ff fd7e 	bl	100108b0 <MXC_GPIO_Config>
        MXC_SYS_ClockEnable(MXC_SYS_PERIPH_CLOCK_UART0);
10010db4:	2009      	movs	r0, #9
10010db6:	f7ff fc4d 	bl	10010654 <MXC_SYS_ClockEnable>
    return MXC_UART_RevB_Init((mxc_uart_revb_regs_t *)uart, baud, clock);
10010dba:	462a      	mov	r2, r5
10010dbc:	4631      	mov	r1, r6
10010dbe:	4620      	mov	r0, r4
}
10010dc0:	e8bd 4070 	ldmia.w	sp!, {r4, r5, r6, lr}
    return MXC_UART_RevB_Init((mxc_uart_revb_regs_t *)uart, baud, clock);
10010dc4:	f000 b8e2 	b.w	10010f8c <MXC_UART_RevB_Init>
        return E_BAD_PARAM;
10010dc8:	f06f 0002 	mvn.w	r0, #2
}
10010dcc:	bd70      	pop	{r4, r5, r6, pc}
        MXC_GPIO_Config(&gpio_cfg_uart1);
10010dce:	480d      	ldr	r0, [pc, #52]	@ (10010e04 <MXC_UART_Init+0xb0>)
10010dd0:	f7ff fd6e 	bl	100108b0 <MXC_GPIO_Config>
        MXC_SYS_ClockEnable(MXC_SYS_PERIPH_CLOCK_UART1);
10010dd4:	200a      	movs	r0, #10
10010dd6:	f7ff fc3d 	bl	10010654 <MXC_SYS_ClockEnable>
        break;
10010dda:	e7db      	b.n	10010d94 <MXC_UART_Init+0x40>
        MXC_GPIO_Config(&gpio_cfg_uart2);
10010ddc:	480a      	ldr	r0, [pc, #40]	@ (10010e08 <MXC_UART_Init+0xb4>)
10010dde:	f7ff fd67 	bl	100108b0 <MXC_GPIO_Config>
        MXC_SYS_ClockEnable(MXC_SYS_PERIPH_CLOCK_UART2);
10010de2:	2021      	movs	r0, #33	@ 0x21
10010de4:	f7ff fc36 	bl	10010654 <MXC_SYS_ClockEnable>
        break;
10010de8:	e7d4      	b.n	10010d94 <MXC_UART_Init+0x40>
10010dea:	bf00      	nop
10010dec:	40042000 	.word	0x40042000
10010df0:	40043000 	.word	0x40043000
10010df4:	40044000 	.word	0x40044000
10010df8:	40081400 	.word	0x40081400
10010dfc:	1001a220 	.word	0x1001a220
10010e00:	1001a244 	.word	0x1001a244
10010e04:	1001a238 	.word	0x1001a238
10010e08:	1001a22c 	.word	0x1001a22c

10010e0c <MXC_UART_SetFrequency>:
}

int MXC_UART_SetFrequency(mxc_uart_regs_t *uart, unsigned int baud, mxc_uart_clock_t clock)
{
    int frequency, clkDiv = 0, mod = 0;
    if (MXC_UART_GET_IDX(uart) < 0) {
10010e0c:	4b31      	ldr	r3, [pc, #196]	@ (10010ed4 <MXC_UART_SetFrequency+0xc8>)
10010e0e:	4298      	cmp	r0, r3
{
10010e10:	b510      	push	{r4, lr}
10010e12:	4604      	mov	r4, r0
    if (MXC_UART_GET_IDX(uart) < 0) {
10010e14:	d016      	beq.n	10010e44 <MXC_UART_SetFrequency+0x38>
10010e16:	f503 5380 	add.w	r3, r3, #4096	@ 0x1000
10010e1a:	4298      	cmp	r0, r3
10010e1c:	d012      	beq.n	10010e44 <MXC_UART_SetFrequency+0x38>
10010e1e:	f503 5380 	add.w	r3, r3, #4096	@ 0x1000
10010e22:	4298      	cmp	r0, r3
10010e24:	d00e      	beq.n	10010e44 <MXC_UART_SetFrequency+0x38>
10010e26:	f503 3375 	add.w	r3, r3, #250880	@ 0x3d400
10010e2a:	4298      	cmp	r0, r3
10010e2c:	d107      	bne.n	10010e3e <MXC_UART_SetFrequency+0x32>
    }

    // check if the uart is LPUART
    if (uart == MXC_UART3) {
        // OSR default value
        uart->osr = 5;
10010e2e:	2305      	movs	r3, #5

        switch (clock) {
10010e30:	2a02      	cmp	r2, #2
        uart->osr = 5;
10010e32:	6143      	str	r3, [r0, #20]
        switch (clock) {
10010e34:	d045      	beq.n	10010ec2 <MXC_UART_SetFrequency+0xb6>
10010e36:	2a04      	cmp	r2, #4
10010e38:	d013      	beq.n	10010e62 <MXC_UART_SetFrequency+0x56>
10010e3a:	2a00      	cmp	r2, #0
10010e3c:	d041      	beq.n	10010ec2 <MXC_UART_SetFrequency+0xb6>
        return E_BAD_PARAM;
10010e3e:	f06f 0002 	mvn.w	r0, #2
        uart->ctrl |= MXC_F_UART_CTRL_BCLKEN;
        while (((uart->ctrl & MXC_F_UART_CTRL_BCLKRDY) >> MXC_F_UART_CTRL_BCLKRDY_POS) == 0) {}
    }

    return frequency;
}
10010e42:	bd10      	pop	{r4, pc}
        if (clock == MXC_UART_ERTCO_CLK) {
10010e44:	2a04      	cmp	r2, #4
10010e46:	d0fa      	beq.n	10010e3e <MXC_UART_SetFrequency+0x32>
        frequency = MXC_UART_RevB_SetFrequency((mxc_uart_revb_regs_t *)uart, baud, clock);
10010e48:	4620      	mov	r0, r4
10010e4a:	f000 f90f 	bl	1001106c <MXC_UART_RevB_SetFrequency>
    if (frequency > 0) {
10010e4e:	2800      	cmp	r0, #0
10010e50:	ddf7      	ble.n	10010e42 <MXC_UART_SetFrequency+0x36>
        uart->ctrl |= MXC_F_UART_CTRL_BCLKEN;
10010e52:	6823      	ldr	r3, [r4, #0]
10010e54:	f443 4300 	orr.w	r3, r3, #32768	@ 0x8000
10010e58:	6023      	str	r3, [r4, #0]
        while (((uart->ctrl & MXC_F_UART_CTRL_BCLKRDY) >> MXC_F_UART_CTRL_BCLKRDY_POS) == 0) {}
10010e5a:	6823      	ldr	r3, [r4, #0]
10010e5c:	031b      	lsls	r3, r3, #12
10010e5e:	d5fc      	bpl.n	10010e5a <MXC_UART_SetFrequency+0x4e>
}
10010e60:	bd10      	pop	{r4, pc}
            uart->ctrl |= MXC_S_UART_CTRL_BCLKSRC_EXTERNAL_CLOCK;
10010e62:	6802      	ldr	r2, [r0, #0]
            clkDiv = ((ERTCO_FREQ * 2) / baud);
10010e64:	f44f 3380 	mov.w	r3, #65536	@ 0x10000
            uart->ctrl |= MXC_S_UART_CTRL_BCLKSRC_EXTERNAL_CLOCK;
10010e68:	431a      	orrs	r2, r3
10010e6a:	6002      	str	r2, [r0, #0]
            uart->ctrl |= MXC_F_UART_CTRL_FDM;
10010e6c:	6800      	ldr	r0, [r0, #0]
            clkDiv = ((ERTCO_FREQ * 2) / baud);
10010e6e:	fbb3 f3f1 	udiv	r3, r3, r1
            uart->ctrl |= MXC_F_UART_CTRL_FDM;
10010e72:	f440 1000 	orr.w	r0, r0, #2097152	@ 0x200000
            mod = ((ERTCO_FREQ * 2) % baud);
10010e76:	fb01 f203 	mul.w	r2, r1, r3
            if (baud > 2400) {
10010e7a:	f5b1 6f16 	cmp.w	r1, #2400	@ 0x960
            uart->ctrl |= MXC_F_UART_CTRL_FDM;
10010e7e:	6020      	str	r0, [r4, #0]
            mod = ((ERTCO_FREQ * 2) % baud);
10010e80:	f5c2 3280 	rsb	r2, r2, #65536	@ 0x10000
            if (baud > 2400) {
10010e84:	d916      	bls.n	10010eb4 <MXC_UART_SetFrequency+0xa8>
                uart->osr = 0;
10010e86:	2000      	movs	r0, #0
10010e88:	6160      	str	r0, [r4, #20]
        if (!clkDiv || mod > (baud / 2)) {
10010e8a:	b9ab      	cbnz	r3, 10010eb8 <MXC_UART_SetFrequency+0xac>
10010e8c:	2301      	movs	r3, #1
        uart->clkdiv = clkDiv;
10010e8e:	4a12      	ldr	r2, [pc, #72]	@ (10010ed8 <MXC_UART_SetFrequency+0xcc>)
10010e90:	6113      	str	r3, [r2, #16]
        return E_BAD_PARAM;
    }

    // check if UARt is LP UART
    if (uart == MXC_UART3) {
        if ((uart->ctrl & MXC_F_UART_CTRL_BCLKSRC) == MXC_S_UART_CTRL_BCLKSRC_EXTERNAL_CLOCK) {
10010e92:	6810      	ldr	r0, [r2, #0]
10010e94:	f400 3040 	and.w	r0, r0, #196608	@ 0x30000
10010e98:	f5b0 3f80 	cmp.w	r0, #65536	@ 0x10000
10010e9c:	d005      	beq.n	10010eaa <MXC_UART_SetFrequency+0x9e>
            periphClock = ERTCO_FREQ * 2;
        } else if ((uart->ctrl & MXC_F_UART_CTRL_BCLKSRC) ==
10010e9e:	6813      	ldr	r3, [r2, #0]
10010ea0:	f413 3f40 	tst.w	r3, #196608	@ 0x30000
10010ea4:	d1cb      	bne.n	10010e3e <MXC_UART_SetFrequency+0x32>
10010ea6:	f44f 00e1 	mov.w	r0, #7372800	@ 0x708000
                   MXC_S_UART_CTRL_BCLKSRC_PERIPHERAL_CLOCK) {
            periphClock = IBRO_FREQ;
        } else {
            return E_BAD_PARAM;
        }
        return (periphClock / uart->clkdiv);
10010eaa:	4b0b      	ldr	r3, [pc, #44]	@ (10010ed8 <MXC_UART_SetFrequency+0xcc>)
10010eac:	691b      	ldr	r3, [r3, #16]
10010eae:	fbb0 f0f3 	udiv	r0, r0, r3
10010eb2:	e7cc      	b.n	10010e4e <MXC_UART_SetFrequency+0x42>
                uart->osr = 1;
10010eb4:	2001      	movs	r0, #1
10010eb6:	6160      	str	r0, [r4, #20]
        if (!clkDiv || mod > (baud / 2)) {
10010eb8:	ebb2 0f51 	cmp.w	r2, r1, lsr #1
10010ebc:	d9e7      	bls.n	10010e8e <MXC_UART_SetFrequency+0x82>
            clkDiv++;
10010ebe:	3301      	adds	r3, #1
10010ec0:	e7e5      	b.n	10010e8e <MXC_UART_SetFrequency+0x82>
            clkDiv = ((IBRO_FREQ) / baud);
10010ec2:	f44f 03e1 	mov.w	r3, #7372800	@ 0x708000
10010ec6:	fbb3 f3f1 	udiv	r3, r3, r1
            mod = ((IBRO_FREQ) % baud);
10010eca:	fb01 f203 	mul.w	r2, r1, r3
10010ece:	f5c2 02e1 	rsb	r2, r2, #7372800	@ 0x708000
            break;
10010ed2:	e7da      	b.n	10010e8a <MXC_UART_SetFrequency+0x7e>
10010ed4:	40042000 	.word	0x40042000
10010ed8:	40081400 	.word	0x40081400

10010edc <MXC_UART_GetFrequency>:
    if (MXC_UART_GET_IDX(uart) < 0) {
10010edc:	4b12      	ldr	r3, [pc, #72]	@ (10010f28 <MXC_UART_GetFrequency+0x4c>)
10010ede:	4298      	cmp	r0, r3
10010ee0:	d01c      	beq.n	10010f1c <MXC_UART_GetFrequency+0x40>
10010ee2:	f503 5380 	add.w	r3, r3, #4096	@ 0x1000
10010ee6:	4298      	cmp	r0, r3
10010ee8:	d018      	beq.n	10010f1c <MXC_UART_GetFrequency+0x40>
10010eea:	f503 5380 	add.w	r3, r3, #4096	@ 0x1000
10010eee:	4298      	cmp	r0, r3
10010ef0:	d014      	beq.n	10010f1c <MXC_UART_GetFrequency+0x40>
10010ef2:	f503 3375 	add.w	r3, r3, #250880	@ 0x3d400
10010ef6:	4298      	cmp	r0, r3
10010ef8:	d112      	bne.n	10010f20 <MXC_UART_GetFrequency+0x44>
        if ((uart->ctrl & MXC_F_UART_CTRL_BCLKSRC) == MXC_S_UART_CTRL_BCLKSRC_EXTERNAL_CLOCK) {
10010efa:	6803      	ldr	r3, [r0, #0]
10010efc:	f403 3340 	and.w	r3, r3, #196608	@ 0x30000
10010f00:	f5b3 3f80 	cmp.w	r3, #65536	@ 0x10000
10010f04:	d005      	beq.n	10010f12 <MXC_UART_GetFrequency+0x36>
        } else if ((uart->ctrl & MXC_F_UART_CTRL_BCLKSRC) ==
10010f06:	6803      	ldr	r3, [r0, #0]
10010f08:	f413 3f40 	tst.w	r3, #196608	@ 0x30000
10010f0c:	d108      	bne.n	10010f20 <MXC_UART_GetFrequency+0x44>
10010f0e:	f44f 03e1 	mov.w	r3, #7372800	@ 0x708000
        return (periphClock / uart->clkdiv);
10010f12:	4a06      	ldr	r2, [pc, #24]	@ (10010f2c <MXC_UART_GetFrequency+0x50>)
10010f14:	6910      	ldr	r0, [r2, #16]
10010f16:	fbb3 f0f0 	udiv	r0, r3, r0
10010f1a:	4770      	bx	lr
    } else {
        return MXC_UART_RevB_GetFrequency((mxc_uart_revb_regs_t *)uart);
10010f1c:	f000 b8de 	b.w	100110dc <MXC_UART_RevB_GetFrequency>
        return E_BAD_PARAM;
10010f20:	f06f 0002 	mvn.w	r0, #2
    }
}
10010f24:	4770      	bx	lr
10010f26:	bf00      	nop
10010f28:	40042000 	.word	0x40042000
10010f2c:	40081400 	.word	0x40081400

10010f30 <MXC_UART_SetDataSize>:

int MXC_UART_SetDataSize(mxc_uart_regs_t *uart, int dataSize)
{
    return MXC_UART_RevB_SetDataSize((mxc_uart_revb_regs_t *)uart, dataSize);
10010f30:	f000 b900 	b.w	10011134 <MXC_UART_RevB_SetDataSize>

10010f34 <MXC_UART_SetStopBits>:
}

int MXC_UART_SetStopBits(mxc_uart_regs_t *uart, mxc_uart_stop_t stopBits)
{
    return MXC_UART_RevB_SetStopBits((mxc_uart_revb_regs_t *)uart, stopBits);
10010f34:	f000 b90e 	b.w	10011154 <MXC_UART_RevB_SetStopBits>

10010f38 <MXC_UART_SetParity>:
}

int MXC_UART_SetParity(mxc_uart_regs_t *uart, mxc_uart_parity_t parity)
{
    return MXC_UART_RevB_SetParity((mxc_uart_revb_regs_t *)uart, parity);
10010f38:	f000 b91e 	b.w	10011178 <MXC_UART_RevB_SetParity>

10010f3c <MXC_UART_ReadCharacterRaw>:
    return MXC_UART_RevB_AbortTransmission((mxc_uart_revb_regs_t *)uart);
}

int MXC_UART_ReadCharacterRaw(mxc_uart_regs_t *uart)
{
    return MXC_UART_RevB_ReadCharacterRaw((mxc_uart_revb_regs_t *)uart);
10010f3c:	f000 b962 	b.w	10011204 <MXC_UART_RevB_ReadCharacterRaw>

10010f40 <MXC_UART_WriteCharacterRaw>:
}

int MXC_UART_WriteCharacterRaw(mxc_uart_regs_t *uart, uint8_t character)
{
    return MXC_UART_RevB_WriteCharacterRaw((mxc_uart_revb_regs_t *)uart, character);
10010f40:	f000 b968 	b.w	10011214 <MXC_UART_RevB_WriteCharacterRaw>

10010f44 <MXC_UART_ReadCharacter>:
}

int MXC_UART_ReadCharacter(mxc_uart_regs_t *uart)
{
    return MXC_UART_Common_ReadCharacter(uart);
10010f44:	f000 b808 	b.w	10010f58 <MXC_UART_Common_ReadCharacter>

10010f48 <MXC_UART_WriteCharacter>:
}

int MXC_UART_WriteCharacter(mxc_uart_regs_t *uart, uint8_t character)
{
    return MXC_UART_Common_WriteCharacter(uart, character);
10010f48:	f000 b812 	b.w	10010f70 <MXC_UART_Common_WriteCharacter>

10010f4c <MXC_UART_GetRXFIFOAvailable>:
    return MXC_UART_RevB_ReadRXFIFODMA((mxc_uart_revb_regs_t *)uart, bytes, len, callback, config);
}

unsigned int MXC_UART_GetRXFIFOAvailable(mxc_uart_regs_t *uart)
{
    return MXC_UART_RevB_GetRXFIFOAvailable((mxc_uart_revb_regs_t *)uart);
10010f4c:	f000 b96c 	b.w	10011228 <MXC_UART_RevB_GetRXFIFOAvailable>

10010f50 <MXC_UART_GetTXFIFOAvailable>:
    return MXC_UART_RevB_WriteTXFIFODMA((mxc_uart_revb_regs_t *)uart, bytes, len, callback, config);
}

unsigned int MXC_UART_GetTXFIFOAvailable(mxc_uart_regs_t *uart)
{
    return MXC_UART_RevB_GetTXFIFOAvailable((mxc_uart_revb_regs_t *)uart);
10010f50:	f000 b96e 	b.w	10011230 <MXC_UART_RevB_GetTXFIFOAvailable>

10010f54 <MXC_UART_SetRXThreshold>:
    return MXC_UART_RevB_ClearTXFIFO((mxc_uart_revb_regs_t *)uart);
}

int MXC_UART_SetRXThreshold(mxc_uart_regs_t *uart, unsigned int numBytes)
{
    return MXC_UART_RevB_SetRXThreshold((mxc_uart_revb_regs_t *)uart, numBytes);
10010f54:	f000 b972 	b.w	1001123c <MXC_UART_RevB_SetRXThreshold>

10010f58 <MXC_UART_Common_ReadCharacter>:

#include "uart_common.h"
#include "uart.h"

int MXC_UART_Common_ReadCharacter(mxc_uart_regs_t *uart)
{
10010f58:	b510      	push	{r4, lr}
10010f5a:	4604      	mov	r4, r0
    // Wait until FIFO has a character ready.
    while (MXC_UART_GetRXFIFOAvailable(uart) < 1) {}
10010f5c:	4620      	mov	r0, r4
10010f5e:	f7ff fff5 	bl	10010f4c <MXC_UART_GetRXFIFOAvailable>
10010f62:	2800      	cmp	r0, #0
10010f64:	d0fa      	beq.n	10010f5c <MXC_UART_Common_ReadCharacter+0x4>

    // Read the character using the non-blocking function.
    return MXC_UART_ReadCharacterRaw(uart);
10010f66:	4620      	mov	r0, r4
}
10010f68:	e8bd 4010 	ldmia.w	sp!, {r4, lr}
    return MXC_UART_ReadCharacterRaw(uart);
10010f6c:	f7ff bfe6 	b.w	10010f3c <MXC_UART_ReadCharacterRaw>

10010f70 <MXC_UART_Common_WriteCharacter>:

int MXC_UART_Common_WriteCharacter(mxc_uart_regs_t *uart, uint8_t character)
{
10010f70:	b538      	push	{r3, r4, r5, lr}
10010f72:	4604      	mov	r4, r0
10010f74:	460d      	mov	r5, r1
    // Wait until FIFO has space for the character.
    while (MXC_UART_GetTXFIFOAvailable(uart) < 1) {}
10010f76:	4620      	mov	r0, r4
10010f78:	f7ff ffea 	bl	10010f50 <MXC_UART_GetTXFIFOAvailable>
10010f7c:	2800      	cmp	r0, #0
10010f7e:	d0fa      	beq.n	10010f76 <MXC_UART_Common_WriteCharacter+0x6>

    // Write the character using the non-blocking function.
    return MXC_UART_WriteCharacterRaw(uart, character);
10010f80:	4629      	mov	r1, r5
10010f82:	4620      	mov	r0, r4
}
10010f84:	e8bd 4038 	ldmia.w	sp!, {r3, r4, r5, lr}
    return MXC_UART_WriteCharacterRaw(uart, character);
10010f88:	f7ff bfda 	b.w	10010f40 <MXC_UART_WriteCharacterRaw>

10010f8c <MXC_UART_RevB_Init>:

/* ************************************************************************* */
/* Control/Configuration functions                                           */
/* ************************************************************************* */
int MXC_UART_RevB_Init(mxc_uart_revb_regs_t *uart, unsigned int baud, mxc_uart_revb_clock_t clock)
{
10010f8c:	b5f8      	push	{r3, r4, r5, r6, r7, lr}
    int err;

    MXC_ASSERT(MXC_UART_GET_IDX((mxc_uart_regs_t *)uart) >= 0)
10010f8e:	4c32      	ldr	r4, [pc, #200]	@ (10011058 <MXC_UART_RevB_Init+0xcc>)
10010f90:	42a0      	cmp	r0, r4
{
10010f92:	4605      	mov	r5, r0
10010f94:	460f      	mov	r7, r1
10010f96:	4616      	mov	r6, r2
    MXC_ASSERT(MXC_UART_GET_IDX((mxc_uart_regs_t *)uart) >= 0)
10010f98:	d00f      	beq.n	10010fba <MXC_UART_RevB_Init+0x2e>
10010f9a:	4b30      	ldr	r3, [pc, #192]	@ (1001105c <MXC_UART_RevB_Init+0xd0>)
10010f9c:	4298      	cmp	r0, r3
10010f9e:	d00c      	beq.n	10010fba <MXC_UART_RevB_Init+0x2e>
10010fa0:	f503 5380 	add.w	r3, r3, #4096	@ 0x1000
10010fa4:	4298      	cmp	r0, r3
10010fa6:	d008      	beq.n	10010fba <MXC_UART_RevB_Init+0x2e>
10010fa8:	f503 3375 	add.w	r3, r3, #250880	@ 0x3d400
10010fac:	4298      	cmp	r0, r3
10010fae:	d004      	beq.n	10010fba <MXC_UART_RevB_Init+0x2e>
10010fb0:	492b      	ldr	r1, [pc, #172]	@ (10011060 <MXC_UART_RevB_Init+0xd4>)
10010fb2:	482c      	ldr	r0, [pc, #176]	@ (10011064 <MXC_UART_RevB_Init+0xd8>)
10010fb4:	223e      	movs	r2, #62	@ 0x3e
10010fb6:	f7fe ffd3 	bl	1000ff60 <mxc_assert>

    // Initialize UART
    if ((err = MXC_UART_SetRXThreshold((mxc_uart_regs_t *)uart, 1)) !=
10010fba:	2101      	movs	r1, #1
10010fbc:	4628      	mov	r0, r5
10010fbe:	f7ff ffc9 	bl	10010f54 <MXC_UART_SetRXThreshold>
10010fc2:	4604      	mov	r4, r0
10010fc4:	b108      	cbz	r0, 10010fca <MXC_UART_RevB_Init+0x3e>
    states[i].tx_req = NULL;
    states[i].rx_req = NULL;
    states[i].auto_dma_handlers = false;

    return E_NO_ERROR;
}
10010fc6:	4620      	mov	r0, r4
10010fc8:	bdf8      	pop	{r3, r4, r5, r6, r7, pc}
    if ((err = MXC_UART_SetDataSize((mxc_uart_regs_t *)uart, 8)) !=
10010fca:	2108      	movs	r1, #8
10010fcc:	4628      	mov	r0, r5
10010fce:	f7ff ffaf 	bl	10010f30 <MXC_UART_SetDataSize>
10010fd2:	4604      	mov	r4, r0
10010fd4:	2800      	cmp	r0, #0
10010fd6:	d1f6      	bne.n	10010fc6 <MXC_UART_RevB_Init+0x3a>
    if ((err = MXC_UART_SetParity((mxc_uart_regs_t *)uart, MXC_UART_PARITY_DISABLE)) !=
10010fd8:	4601      	mov	r1, r0
10010fda:	4628      	mov	r0, r5
10010fdc:	f7ff ffac 	bl	10010f38 <MXC_UART_SetParity>
10010fe0:	4604      	mov	r4, r0
10010fe2:	2800      	cmp	r0, #0
10010fe4:	d1ef      	bne.n	10010fc6 <MXC_UART_RevB_Init+0x3a>
    if ((err = MXC_UART_SetStopBits((mxc_uart_regs_t *)uart, MXC_UART_STOP_1)) != E_NO_ERROR) {
10010fe6:	4601      	mov	r1, r0
10010fe8:	4628      	mov	r0, r5
10010fea:	f7ff ffa3 	bl	10010f34 <MXC_UART_SetStopBits>
10010fee:	4604      	mov	r4, r0
10010ff0:	2800      	cmp	r0, #0
10010ff2:	d1e8      	bne.n	10010fc6 <MXC_UART_RevB_Init+0x3a>
    if ((err = MXC_UART_SetFrequency((mxc_uart_regs_t *)uart, baud, (mxc_uart_clock_t)clock)) <
10010ff4:	4632      	mov	r2, r6
10010ff6:	4639      	mov	r1, r7
10010ff8:	4628      	mov	r0, r5
10010ffa:	f7ff ff07 	bl	10010e0c <MXC_UART_SetFrequency>
10010ffe:	2800      	cmp	r0, #0
10011000:	db22      	blt.n	10011048 <MXC_UART_RevB_Init+0xbc>
    unsigned int i = MXC_UART_GET_IDX((mxc_uart_regs_t *)uart);
10011002:	4b15      	ldr	r3, [pc, #84]	@ (10011058 <MXC_UART_RevB_Init+0xcc>)
10011004:	429d      	cmp	r5, r3
10011006:	d021      	beq.n	1001104c <MXC_UART_RevB_Init+0xc0>
10011008:	f503 5380 	add.w	r3, r3, #4096	@ 0x1000
1001100c:	429d      	cmp	r5, r3
1001100e:	d01f      	beq.n	10011050 <MXC_UART_RevB_Init+0xc4>
10011010:	f503 5380 	add.w	r3, r3, #4096	@ 0x1000
10011014:	429d      	cmp	r5, r3
10011016:	d01d      	beq.n	10011054 <MXC_UART_RevB_Init+0xc8>
10011018:	f503 3375 	add.w	r3, r3, #250880	@ 0x3d400
1001101c:	429d      	cmp	r5, r3
1001101e:	bf14      	ite	ne
10011020:	f04f 33ff 	movne.w	r3, #4294967295	@ 0xffffffff
10011024:	2303      	moveq	r3, #3
    states[i].channelTx = -1;
10011026:	eb03 0383 	add.w	r3, r3, r3, lsl #2
1001102a:	4a0f      	ldr	r2, [pc, #60]	@ (10011068 <MXC_UART_RevB_Init+0xdc>)
1001102c:	009b      	lsls	r3, r3, #2
1001102e:	f103 0608 	add.w	r6, r3, #8
    states[i].tx_req = NULL;
10011032:	18d0      	adds	r0, r2, r3
    states[i].channelTx = -1;
10011034:	18b7      	adds	r7, r6, r2
    states[i].tx_req = NULL;
10011036:	2100      	movs	r1, #0
    states[i].channelTx = -1;
10011038:	f04f 35ff 	mov.w	r5, #4294967295	@ 0xffffffff
1001103c:	5195      	str	r5, [r2, r6]
1001103e:	607d      	str	r5, [r7, #4]
    states[i].tx_req = NULL;
10011040:	50d1      	str	r1, [r2, r3]
10011042:	6041      	str	r1, [r0, #4]
    states[i].auto_dma_handlers = false;
10011044:	7401      	strb	r1, [r0, #16]
    return E_NO_ERROR;
10011046:	e7be      	b.n	10010fc6 <MXC_UART_RevB_Init+0x3a>
        return err;
10011048:	4604      	mov	r4, r0
1001104a:	e7bc      	b.n	10010fc6 <MXC_UART_RevB_Init+0x3a>
    unsigned int i = MXC_UART_GET_IDX((mxc_uart_regs_t *)uart);
1001104c:	4623      	mov	r3, r4
1001104e:	e7ea      	b.n	10011026 <MXC_UART_RevB_Init+0x9a>
10011050:	2301      	movs	r3, #1
10011052:	e7e8      	b.n	10011026 <MXC_UART_RevB_Init+0x9a>
10011054:	2302      	movs	r3, #2
10011056:	e7e6      	b.n	10011026 <MXC_UART_RevB_Init+0x9a>
10011058:	40042000 	.word	0x40042000
1001105c:	40043000 	.word	0x40043000
10011060:	10017fb4 	.word	0x10017fb4
10011064:	10018000 	.word	0x10018000
10011068:	20000fe0 	.word	0x20000fe0

1001106c <MXC_UART_RevB_SetFrequency>:
                               mxc_uart_revb_clock_t clock)
{
    unsigned clkDiv = 0, mod = 0;

    // OSR default value
    uart->osr = 5;
1001106c:	2305      	movs	r3, #5

    switch (clock) {
1001106e:	2a01      	cmp	r2, #1
{
10011070:	b410      	push	{r4}
    uart->osr = 5;
10011072:	6143      	str	r3, [r0, #20]
    switch (clock) {
10011074:	d023      	beq.n	100110be <MXC_UART_RevB_SetFrequency+0x52>
10011076:	2a02      	cmp	r2, #2
10011078:	d010      	beq.n	1001109c <MXC_UART_RevB_SetFrequency+0x30>
1001107a:	b9e2      	cbnz	r2, 100110b6 <MXC_UART_RevB_SetFrequency+0x4a>
    case MXC_UART_REVB_APB_CLK:
        clkDiv = (PeripheralClock / baud);
1001107c:	4b15      	ldr	r3, [pc, #84]	@ (100110d4 <MXC_UART_RevB_SetFrequency+0x68>)
1001107e:	681a      	ldr	r2, [r3, #0]
10011080:	0852      	lsrs	r2, r2, #1
10011082:	fbb2 f3f1 	udiv	r3, r2, r1
        mod = (PeripheralClock % baud);
10011086:	fb01 2213 	mls	r2, r1, r3, r2

    default:
        return E_BAD_PARAM;
    }

    if (!clkDiv || mod > (baud / 2)) {
1001108a:	b113      	cbz	r3, 10011092 <MXC_UART_RevB_SetFrequency+0x26>
1001108c:	ebb2 0f51 	cmp.w	r2, r1, lsr #1
10011090:	d900      	bls.n	10011094 <MXC_UART_RevB_SetFrequency+0x28>
        clkDiv++;
10011092:	3301      	adds	r3, #1
    }
    uart->clkdiv = clkDiv;
    return MXC_UART_GetFrequency((mxc_uart_regs_t *)uart);
}
10011094:	bc10      	pop	{r4}
    uart->clkdiv = clkDiv;
10011096:	6103      	str	r3, [r0, #16]
    return MXC_UART_GetFrequency((mxc_uart_regs_t *)uart);
10011098:	f7ff bf20 	b.w	10010edc <MXC_UART_GetFrequency>
        uart->ctrl |= MXC_S_UART_REVB_CTRL_BCLKSRC_CLK2;
1001109c:	6804      	ldr	r4, [r0, #0]
        clkDiv = (IBRO_FREQ / baud);
1001109e:	f44f 03e1 	mov.w	r3, #7372800	@ 0x708000
        uart->ctrl |= MXC_S_UART_REVB_CTRL_BCLKSRC_CLK2;
100110a2:	f444 3400 	orr.w	r4, r4, #131072	@ 0x20000
        clkDiv = (IBRO_FREQ / baud);
100110a6:	fbb3 f3f1 	udiv	r3, r3, r1
        mod = (IBRO_FREQ % baud);
100110aa:	fb01 f203 	mul.w	r2, r1, r3
100110ae:	f5c2 02e1 	rsb	r2, r2, #7372800	@ 0x708000
        uart->ctrl |= MXC_S_UART_REVB_CTRL_BCLKSRC_CLK2;
100110b2:	6004      	str	r4, [r0, #0]
        break;
100110b4:	e7e9      	b.n	1001108a <MXC_UART_RevB_SetFrequency+0x1e>
}
100110b6:	f06f 0002 	mvn.w	r0, #2
100110ba:	bc10      	pop	{r4}
100110bc:	4770      	bx	lr
        uart->ctrl |= MXC_S_UART_REVB_CTRL_BCLKSRC_EXTERNAL_CLOCK;
100110be:	6804      	ldr	r4, [r0, #0]
        clkDiv = UART_EXTCLK_FREQ / baud;
100110c0:	4a05      	ldr	r2, [pc, #20]	@ (100110d8 <MXC_UART_RevB_SetFrequency+0x6c>)
100110c2:	fbb2 f3f1 	udiv	r3, r2, r1
        uart->ctrl |= MXC_S_UART_REVB_CTRL_BCLKSRC_EXTERNAL_CLOCK;
100110c6:	f444 3480 	orr.w	r4, r4, #65536	@ 0x10000
100110ca:	6004      	str	r4, [r0, #0]
        mod = UART_EXTCLK_FREQ % baud;
100110cc:	fb01 2213 	mls	r2, r1, r3, r2
        break;
100110d0:	e7db      	b.n	1001108a <MXC_UART_RevB_SetFrequency+0x1e>
100110d2:	bf00      	nop
100110d4:	2000173c 	.word	0x2000173c
100110d8:	047868c0 	.word	0x047868c0

100110dc <MXC_UART_RevB_GetFrequency>:

int MXC_UART_RevB_GetFrequency(mxc_uart_revb_regs_t *uart)
{
    int periphClock = 0;

    if ((uart->ctrl & MXC_F_UART_REVB_CTRL_BCLKSRC) ==
100110dc:	6803      	ldr	r3, [r0, #0]
100110de:	f403 3340 	and.w	r3, r3, #196608	@ 0x30000
100110e2:	f5b3 3f80 	cmp.w	r3, #65536	@ 0x10000
100110e6:	d017      	beq.n	10011118 <MXC_UART_RevB_GetFrequency+0x3c>
        MXC_S_UART_REVB_CTRL_BCLKSRC_EXTERNAL_CLOCK) {
        periphClock = UART_EXTCLK_FREQ;
    } else if ((uart->ctrl & MXC_F_UART_REVB_CTRL_BCLKSRC) ==
100110e8:	6803      	ldr	r3, [r0, #0]
100110ea:	f413 3f40 	tst.w	r3, #196608	@ 0x30000
100110ee:	d00c      	beq.n	1001110a <MXC_UART_RevB_GetFrequency+0x2e>
               MXC_S_UART_REVB_CTRL_BCLKSRC_PERIPHERAL_CLOCK) {
        periphClock = PeripheralClock;
    } else if ((uart->ctrl & MXC_F_UART_REVB_CTRL_BCLKSRC) == MXC_S_UART_REVB_CTRL_BCLKSRC_CLK2) {
100110f0:	6803      	ldr	r3, [r0, #0]
100110f2:	f403 3340 	and.w	r3, r3, #196608	@ 0x30000
100110f6:	f5b3 3f00 	cmp.w	r3, #131072	@ 0x20000
100110fa:	bf08      	it	eq
100110fc:	f44f 03e1 	moveq.w	r3, #7372800	@ 0x708000
10011100:	d10f      	bne.n	10011122 <MXC_UART_RevB_GetFrequency+0x46>
#endif
    } else {
        return E_BAD_PARAM;
    }

    return (periphClock / uart->clkdiv);
10011102:	6900      	ldr	r0, [r0, #16]
10011104:	fbb3 f0f0 	udiv	r0, r3, r0
}
10011108:	4770      	bx	lr
        periphClock = PeripheralClock;
1001110a:	4b08      	ldr	r3, [pc, #32]	@ (1001112c <MXC_UART_RevB_GetFrequency+0x50>)
    return (periphClock / uart->clkdiv);
1001110c:	6900      	ldr	r0, [r0, #16]
        periphClock = PeripheralClock;
1001110e:	681b      	ldr	r3, [r3, #0]
10011110:	085b      	lsrs	r3, r3, #1
    return (periphClock / uart->clkdiv);
10011112:	fbb3 f0f0 	udiv	r0, r3, r0
}
10011116:	4770      	bx	lr
10011118:	4b05      	ldr	r3, [pc, #20]	@ (10011130 <MXC_UART_RevB_GetFrequency+0x54>)
    return (periphClock / uart->clkdiv);
1001111a:	6900      	ldr	r0, [r0, #16]
1001111c:	fbb3 f0f0 	udiv	r0, r3, r0
}
10011120:	4770      	bx	lr
    } else if ((uart->ctrl & MXC_F_UART_REVB_CTRL_BCLKSRC) == MXC_S_UART_REVB_CTRL_BCLKSRC_CLK3) {
10011122:	6803      	ldr	r3, [r0, #0]
        return E_BAD_PARAM;
10011124:	f06f 0002 	mvn.w	r0, #2
        return E_BAD_PARAM;
10011128:	4770      	bx	lr
1001112a:	bf00      	nop
1001112c:	2000173c 	.word	0x2000173c
10011130:	047868c0 	.word	0x047868c0

10011134 <MXC_UART_RevB_SetDataSize>:

int MXC_UART_RevB_SetDataSize(mxc_uart_revb_regs_t *uart, int dataSize)
{
    if (dataSize < 5 || dataSize > 8) {
10011134:	3905      	subs	r1, #5
10011136:	2903      	cmp	r1, #3
{
10011138:	4602      	mov	r2, r0
    if (dataSize < 5 || dataSize > 8) {
1001113a:	d807      	bhi.n	1001114c <MXC_UART_RevB_SetDataSize+0x18>
        return E_BAD_PARAM;
    }

    dataSize = (dataSize - 5) << MXC_F_UART_REVB_CTRL_CHAR_SIZE_POS;

    MXC_SETFIELD(uart->ctrl, MXC_F_UART_REVB_CTRL_CHAR_SIZE, dataSize);
1001113c:	6803      	ldr	r3, [r0, #0]
1001113e:	f423 6340 	bic.w	r3, r3, #3072	@ 0xc00
10011142:	ea43 2381 	orr.w	r3, r3, r1, lsl #10

    return E_NO_ERROR;
10011146:	2000      	movs	r0, #0
    MXC_SETFIELD(uart->ctrl, MXC_F_UART_REVB_CTRL_CHAR_SIZE, dataSize);
10011148:	6013      	str	r3, [r2, #0]
    return E_NO_ERROR;
1001114a:	4770      	bx	lr
        return E_BAD_PARAM;
1001114c:	f06f 0002 	mvn.w	r0, #2
}
10011150:	4770      	bx	lr
10011152:	bf00      	nop

10011154 <MXC_UART_RevB_SetStopBits>:

int MXC_UART_RevB_SetStopBits(mxc_uart_revb_regs_t *uart, mxc_uart_stop_t stopBits)
{
    switch (stopBits) {
10011154:	b151      	cbz	r1, 1001116c <MXC_UART_RevB_SetStopBits+0x18>
10011156:	2901      	cmp	r1, #1
10011158:	d105      	bne.n	10011166 <MXC_UART_RevB_SetStopBits+0x12>
        MXC_SETFIELD(uart->ctrl, MXC_F_UART_REVB_CTRL_STOPBITS,
                     0 << MXC_F_UART_REVB_CTRL_STOPBITS_POS);
        break;

    case MXC_UART_STOP_2:
        MXC_SETFIELD(uart->ctrl, MXC_F_UART_REVB_CTRL_STOPBITS,
1001115a:	6803      	ldr	r3, [r0, #0]
1001115c:	f443 5380 	orr.w	r3, r3, #4096	@ 0x1000
10011160:	6003      	str	r3, [r0, #0]
    default:
        return E_BAD_PARAM;
        break;
    }

    return E_NO_ERROR;
10011162:	2000      	movs	r0, #0
}
10011164:	4770      	bx	lr
    switch (stopBits) {
10011166:	f06f 0002 	mvn.w	r0, #2
1001116a:	4770      	bx	lr
        MXC_SETFIELD(uart->ctrl, MXC_F_UART_REVB_CTRL_STOPBITS,
1001116c:	6803      	ldr	r3, [r0, #0]
1001116e:	f423 5380 	bic.w	r3, r3, #4096	@ 0x1000
10011172:	6003      	str	r3, [r0, #0]
    return E_NO_ERROR;
10011174:	2000      	movs	r0, #0
}
10011176:	4770      	bx	lr

10011178 <MXC_UART_RevB_SetParity>:

int MXC_UART_RevB_SetParity(mxc_uart_revb_regs_t *uart, mxc_uart_parity_t parity)
{
    switch (parity) {
10011178:	2904      	cmp	r1, #4
1001117a:	d83f      	bhi.n	100111fc <MXC_UART_RevB_SetParity+0x84>
1001117c:	e8df f001 	tbb	[pc, r1]
10011180:	31241711 	.word	0x31241711
10011184:	03          	.byte	0x03
10011185:	00          	.byte	0x00
        MXC_SETFIELD(uart->ctrl, MXC_F_UART_REVB_CTRL_PAR_EO, 1 << MXC_F_UART_REVB_CTRL_PAR_EO_POS);
        MXC_SETFIELD(uart->ctrl, MXC_F_UART_REVB_CTRL_PAR_MD, 0 << MXC_F_UART_REVB_CTRL_PAR_MD_POS);
        break;

    case MXC_UART_PARITY_ODD_1:
        MXC_SETFIELD(uart->ctrl, MXC_F_UART_REVB_CTRL_PAR_EN, 1 << MXC_F_UART_REVB_CTRL_PAR_EN_POS);
10011186:	6803      	ldr	r3, [r0, #0]
10011188:	f043 0310 	orr.w	r3, r3, #16
1001118c:	6003      	str	r3, [r0, #0]
        MXC_SETFIELD(uart->ctrl, MXC_F_UART_REVB_CTRL_PAR_EO, 1 << MXC_F_UART_REVB_CTRL_PAR_EO_POS);
1001118e:	6803      	ldr	r3, [r0, #0]
10011190:	f043 0320 	orr.w	r3, r3, #32
10011194:	6003      	str	r3, [r0, #0]
        MXC_SETFIELD(uart->ctrl, MXC_F_UART_REVB_CTRL_PAR_MD, 1 << MXC_F_UART_REVB_CTRL_PAR_MD_POS);
10011196:	6803      	ldr	r3, [r0, #0]
10011198:	f043 0340 	orr.w	r3, r3, #64	@ 0x40
1001119c:	6003      	str	r3, [r0, #0]
    default:
        return E_BAD_PARAM;
        break;
    }

    return E_NO_ERROR;
1001119e:	2000      	movs	r0, #0
100111a0:	4770      	bx	lr
        MXC_SETFIELD(uart->ctrl, MXC_F_UART_REVB_CTRL_PAR_EN, 0 << MXC_F_UART_REVB_CTRL_PAR_EN_POS);
100111a2:	6803      	ldr	r3, [r0, #0]
100111a4:	f023 0310 	bic.w	r3, r3, #16
100111a8:	6003      	str	r3, [r0, #0]
    return E_NO_ERROR;
100111aa:	2000      	movs	r0, #0
100111ac:	4770      	bx	lr
        MXC_SETFIELD(uart->ctrl, MXC_F_UART_REVB_CTRL_PAR_EN, 1 << MXC_F_UART_REVB_CTRL_PAR_EN_POS);
100111ae:	6803      	ldr	r3, [r0, #0]
100111b0:	f043 0310 	orr.w	r3, r3, #16
100111b4:	6003      	str	r3, [r0, #0]
        MXC_SETFIELD(uart->ctrl, MXC_F_UART_REVB_CTRL_PAR_EO, 0 << MXC_F_UART_REVB_CTRL_PAR_EO_POS);
100111b6:	6803      	ldr	r3, [r0, #0]
100111b8:	f023 0320 	bic.w	r3, r3, #32
100111bc:	6003      	str	r3, [r0, #0]
        MXC_SETFIELD(uart->ctrl, MXC_F_UART_REVB_CTRL_PAR_MD, 0 << MXC_F_UART_REVB_CTRL_PAR_MD_POS);
100111be:	6803      	ldr	r3, [r0, #0]
100111c0:	f023 0340 	bic.w	r3, r3, #64	@ 0x40
100111c4:	6003      	str	r3, [r0, #0]
        break;
100111c6:	e7ea      	b.n	1001119e <MXC_UART_RevB_SetParity+0x26>
        MXC_SETFIELD(uart->ctrl, MXC_F_UART_REVB_CTRL_PAR_EN, 1 << MXC_F_UART_REVB_CTRL_PAR_EN_POS);
100111c8:	6803      	ldr	r3, [r0, #0]
100111ca:	f043 0310 	orr.w	r3, r3, #16
100111ce:	6003      	str	r3, [r0, #0]
        MXC_SETFIELD(uart->ctrl, MXC_F_UART_REVB_CTRL_PAR_EO, 0 << MXC_F_UART_REVB_CTRL_PAR_EO_POS);
100111d0:	6803      	ldr	r3, [r0, #0]
100111d2:	f023 0320 	bic.w	r3, r3, #32
100111d6:	6003      	str	r3, [r0, #0]
        MXC_SETFIELD(uart->ctrl, MXC_F_UART_REVB_CTRL_PAR_MD, 1 << MXC_F_UART_REVB_CTRL_PAR_MD_POS);
100111d8:	6803      	ldr	r3, [r0, #0]
100111da:	f043 0340 	orr.w	r3, r3, #64	@ 0x40
100111de:	6003      	str	r3, [r0, #0]
        break;
100111e0:	e7dd      	b.n	1001119e <MXC_UART_RevB_SetParity+0x26>
        MXC_SETFIELD(uart->ctrl, MXC_F_UART_REVB_CTRL_PAR_EN, 1 << MXC_F_UART_REVB_CTRL_PAR_EN_POS);
100111e2:	6803      	ldr	r3, [r0, #0]
100111e4:	f043 0310 	orr.w	r3, r3, #16
100111e8:	6003      	str	r3, [r0, #0]
        MXC_SETFIELD(uart->ctrl, MXC_F_UART_REVB_CTRL_PAR_EO, 1 << MXC_F_UART_REVB_CTRL_PAR_EO_POS);
100111ea:	6803      	ldr	r3, [r0, #0]
100111ec:	f043 0320 	orr.w	r3, r3, #32
100111f0:	6003      	str	r3, [r0, #0]
        MXC_SETFIELD(uart->ctrl, MXC_F_UART_REVB_CTRL_PAR_MD, 0 << MXC_F_UART_REVB_CTRL_PAR_MD_POS);
100111f2:	6803      	ldr	r3, [r0, #0]
100111f4:	f023 0340 	bic.w	r3, r3, #64	@ 0x40
100111f8:	6003      	str	r3, [r0, #0]
        break;
100111fa:	e7d0      	b.n	1001119e <MXC_UART_RevB_SetParity+0x26>
    switch (parity) {
100111fc:	f06f 0002 	mvn.w	r0, #2
}
10011200:	4770      	bx	lr
10011202:	bf00      	nop

10011204 <MXC_UART_RevB_ReadCharacterRaw>:
    return E_NO_ERROR;
}

int MXC_UART_RevB_ReadCharacterRaw(mxc_uart_revb_regs_t *uart)
{
    if (uart->status & MXC_F_UART_REVB_STATUS_RX_EM) {
10011204:	6843      	ldr	r3, [r0, #4]
10011206:	06db      	lsls	r3, r3, #27
        return E_UNDERFLOW;
    }

    return uart->fifo;
10011208:	bf54      	ite	pl
1001120a:	6a00      	ldrpl	r0, [r0, #32]
        return E_UNDERFLOW;
1001120c:	f06f 000c 	mvnmi.w	r0, #12
}
10011210:	4770      	bx	lr
10011212:	bf00      	nop

10011214 <MXC_UART_RevB_WriteCharacterRaw>:

int MXC_UART_RevB_WriteCharacterRaw(mxc_uart_revb_regs_t *uart, uint8_t character)
{
10011214:	4602      	mov	r2, r0
    // Require the TX FIFO to be empty, so that we write out the expected character
    // Return error if the FIFO is full
    if (uart->status & MXC_F_UART_REVB_STATUS_TX_FULL) {
10011216:	6840      	ldr	r0, [r0, #4]
10011218:	f010 0080 	ands.w	r0, r0, #128	@ 0x80
        return E_OVERFLOW;
    }

    uart->fifo = character;
1001121c:	bf0c      	ite	eq
1001121e:	6211      	streq	r1, [r2, #32]
        return E_OVERFLOW;
10011220:	f06f 000b 	mvnne.w	r0, #11

    return E_NO_ERROR;
}
10011224:	4770      	bx	lr
10011226:	bf00      	nop

10011228 <MXC_UART_RevB_GetRXFIFOAvailable>:
    return read;
}

unsigned int MXC_UART_RevB_GetRXFIFOAvailable(mxc_uart_revb_regs_t *uart)
{
    return (uart->status & MXC_F_UART_REVB_STATUS_RX_LVL) >> MXC_F_UART_REVB_STATUS_RX_LVL_POS;
10011228:	6840      	ldr	r0, [r0, #4]
}
1001122a:	f3c0 2003 	ubfx	r0, r0, #8, #4
1001122e:	4770      	bx	lr

10011230 <MXC_UART_RevB_GetTXFIFOAvailable>:
    return written;
}

unsigned int MXC_UART_RevB_GetTXFIFOAvailable(mxc_uart_revb_regs_t *uart)
{
    int txCnt = (uart->status & MXC_F_UART_REVB_STATUS_TX_LVL) >> MXC_F_UART_REVB_STATUS_TX_LVL_POS;
10011230:	6840      	ldr	r0, [r0, #4]
10011232:	f3c0 3003 	ubfx	r0, r0, #12, #4
    return MXC_UART_FIFO_DEPTH - txCnt;
}
10011236:	f1c0 0008 	rsb	r0, r0, #8
1001123a:	4770      	bx	lr

1001123c <MXC_UART_RevB_SetRXThreshold>:
    return E_NO_ERROR;
}

int MXC_UART_RevB_SetRXThreshold(mxc_uart_revb_regs_t *uart, unsigned int numBytes)
{
    if (numBytes < 1 || numBytes > MXC_UART_FIFO_DEPTH) {
1001123c:	1e4b      	subs	r3, r1, #1
1001123e:	2b07      	cmp	r3, #7
{
10011240:	4602      	mov	r2, r0
    if (numBytes < 1 || numBytes > MXC_UART_FIFO_DEPTH) {
10011242:	d806      	bhi.n	10011252 <MXC_UART_RevB_SetRXThreshold+0x16>
        return E_BAD_PARAM;
    }

    numBytes <<= MXC_F_UART_REVB_CTRL_RX_THD_VAL_POS;
    MXC_SETFIELD(uart->ctrl, MXC_F_UART_REVB_CTRL_RX_THD_VAL, numBytes);
10011244:	6803      	ldr	r3, [r0, #0]
10011246:	f023 030f 	bic.w	r3, r3, #15
1001124a:	4319      	orrs	r1, r3

    return E_NO_ERROR;
1001124c:	2000      	movs	r0, #0
    MXC_SETFIELD(uart->ctrl, MXC_F_UART_REVB_CTRL_RX_THD_VAL, numBytes);
1001124e:	6011      	str	r1, [r2, #0]
    return E_NO_ERROR;
10011250:	4770      	bx	lr
        return E_BAD_PARAM;
10011252:	f06f 0002 	mvn.w	r0, #2
}
10011256:	4770      	bx	lr

10011258 <MXC_GPIO_Common_Init>:
static void *cbparam[MXC_CFG_GPIO_INSTANCES][MXC_CFG_GPIO_PINS_PORT];
static uint8_t initialized = 0;

/* **** Functions **** */
int MXC_GPIO_Common_Init(uint32_t portmask)
{
10011258:	b510      	push	{r4, lr}
    if (!initialized) {
1001125a:	4c06      	ldr	r4, [pc, #24]	@ (10011274 <MXC_GPIO_Common_Init+0x1c>)
1001125c:	7821      	ldrb	r1, [r4, #0]
1001125e:	b931      	cbnz	r1, 1001126e <MXC_GPIO_Common_Init+0x16>
        int i, j;

        for (i = 0; i < MXC_CFG_GPIO_INSTANCES; i++) {
            // Initialize call back arrays
            for (j = 0; j < MXC_CFG_GPIO_PINS_PORT; j++) {
                callback[i][j] = NULL;
10011260:	4805      	ldr	r0, [pc, #20]	@ (10011278 <MXC_GPIO_Common_Init+0x20>)
10011262:	f44f 7200 	mov.w	r2, #512	@ 0x200
10011266:	f000 f8b7 	bl	100113d8 <memset>
            }
        }

        initialized = 1;
1001126a:	2301      	movs	r3, #1
1001126c:	7023      	strb	r3, [r4, #0]
    }

    return E_NO_ERROR;
}
1001126e:	2000      	movs	r0, #0
10011270:	bd10      	pop	{r4, pc}
10011272:	bf00      	nop
10011274:	20001030 	.word	0x20001030
10011278:	20001234 	.word	0x20001234

1001127c <MXC_GPIO_Common_Handler>:
void MXC_GPIO_Common_Handler(unsigned int port)
{
    uint32_t stat;
    unsigned int pin;

    MXC_ASSERT(port < MXC_CFG_GPIO_INSTANCES);
1001127c:	2803      	cmp	r0, #3
{
1001127e:	b5f8      	push	{r3, r4, r5, r6, r7, lr}
10011280:	4607      	mov	r7, r0
    MXC_ASSERT(port < MXC_CFG_GPIO_INSTANCES);
10011282:	d81e      	bhi.n	100112c2 <MXC_GPIO_Common_Handler+0x46>

    mxc_gpio_regs_t *gpio = MXC_GPIO_GET_GPIO(port);
10011284:	4b12      	ldr	r3, [pc, #72]	@ (100112d0 <MXC_GPIO_Common_Handler+0x54>)
10011286:	f853 5020 	ldr.w	r5, [r3, r0, lsl #2]

    stat = MXC_GPIO_GetFlags(gpio);
1001128a:	4628      	mov	r0, r5
1001128c:	f7ff fc6e 	bl	10010b6c <MXC_GPIO_GetFlags>
10011290:	4604      	mov	r4, r0
    MXC_GPIO_ClearFlags(gpio, stat);
10011292:	4601      	mov	r1, r0
10011294:	4628      	mov	r0, r5
10011296:	f7ff fc5d 	bl	10010b54 <MXC_GPIO_ClearFlags>

    pin = 0;

    while (stat) {
1001129a:	b18c      	cbz	r4, 100112c0 <MXC_GPIO_Common_Handler+0x44>
1001129c:	4e0d      	ldr	r6, [pc, #52]	@ (100112d4 <MXC_GPIO_Common_Handler+0x58>)
1001129e:	4d0e      	ldr	r5, [pc, #56]	@ (100112d8 <MXC_GPIO_Common_Handler+0x5c>)
100112a0:	eb06 16c7 	add.w	r6, r6, r7, lsl #7
100112a4:	eb05 15c7 	add.w	r5, r5, r7, lsl #7
        if (stat & 1) {
100112a8:	07e3      	lsls	r3, r4, #31
100112aa:	d503      	bpl.n	100112b4 <MXC_GPIO_Common_Handler+0x38>
            if (callback[port][pin]) {
100112ac:	682b      	ldr	r3, [r5, #0]
100112ae:	b10b      	cbz	r3, 100112b4 <MXC_GPIO_Common_Handler+0x38>
                callback[port][pin](cbparam[port][pin]);
100112b0:	6830      	ldr	r0, [r6, #0]
100112b2:	4798      	blx	r3
    while (stat) {
100112b4:	0864      	lsrs	r4, r4, #1
100112b6:	f106 0604 	add.w	r6, r6, #4
100112ba:	f105 0504 	add.w	r5, r5, #4
100112be:	d1f3      	bne.n	100112a8 <MXC_GPIO_Common_Handler+0x2c>
        }

        pin++;
        stat >>= 1;
    }
}
100112c0:	bdf8      	pop	{r3, r4, r5, r6, r7, pc}
    MXC_ASSERT(port < MXC_CFG_GPIO_INSTANCES);
100112c2:	4906      	ldr	r1, [pc, #24]	@ (100112dc <MXC_GPIO_Common_Handler+0x60>)
100112c4:	4806      	ldr	r0, [pc, #24]	@ (100112e0 <MXC_GPIO_Common_Handler+0x64>)
100112c6:	224e      	movs	r2, #78	@ 0x4e
100112c8:	f7fe fe4a 	bl	1000ff60 <mxc_assert>
100112cc:	2500      	movs	r5, #0
100112ce:	e7dc      	b.n	1001128a <MXC_GPIO_Common_Handler+0xe>
100112d0:	1001a25c 	.word	0x1001a25c
100112d4:	20001034 	.word	0x20001034
100112d8:	20001234 	.word	0x20001234
100112dc:	10018030 	.word	0x10018030
100112e0:	10018080 	.word	0x10018080
	...

10011300 <strlen>:
10011300:	b430      	push	{r4, r5}
10011302:	f890 f000 	pld	[r0]
10011306:	f020 0107 	bic.w	r1, r0, #7
1001130a:	f06f 0c00 	mvn.w	ip, #0
1001130e:	f010 0407 	ands.w	r4, r0, #7
10011312:	f891 f020 	pld	[r1, #32]
10011316:	f040 8048 	bne.w	100113aa <strlen+0xaa>
1001131a:	f04f 0400 	mov.w	r4, #0
1001131e:	f06f 0007 	mvn.w	r0, #7
10011322:	e9d1 2300 	ldrd	r2, r3, [r1]
10011326:	f891 f040 	pld	[r1, #64]	@ 0x40
1001132a:	f100 0008 	add.w	r0, r0, #8
1001132e:	fa82 f24c 	uadd8	r2, r2, ip
10011332:	faa4 f28c 	sel	r2, r4, ip
10011336:	fa83 f34c 	uadd8	r3, r3, ip
1001133a:	faa2 f38c 	sel	r3, r2, ip
1001133e:	bb4b      	cbnz	r3, 10011394 <strlen+0x94>
10011340:	e9d1 2302 	ldrd	r2, r3, [r1, #8]
10011344:	fa82 f24c 	uadd8	r2, r2, ip
10011348:	f100 0008 	add.w	r0, r0, #8
1001134c:	faa4 f28c 	sel	r2, r4, ip
10011350:	fa83 f34c 	uadd8	r3, r3, ip
10011354:	faa2 f38c 	sel	r3, r2, ip
10011358:	b9e3      	cbnz	r3, 10011394 <strlen+0x94>
1001135a:	e9d1 2304 	ldrd	r2, r3, [r1, #16]
1001135e:	fa82 f24c 	uadd8	r2, r2, ip
10011362:	f100 0008 	add.w	r0, r0, #8
10011366:	faa4 f28c 	sel	r2, r4, ip
1001136a:	fa83 f34c 	uadd8	r3, r3, ip
1001136e:	faa2 f38c 	sel	r3, r2, ip
10011372:	b97b      	cbnz	r3, 10011394 <strlen+0x94>
10011374:	e9d1 2306 	ldrd	r2, r3, [r1, #24]
10011378:	f101 0120 	add.w	r1, r1, #32
1001137c:	fa82 f24c 	uadd8	r2, r2, ip
10011380:	f100 0008 	add.w	r0, r0, #8
10011384:	faa4 f28c 	sel	r2, r4, ip
10011388:	fa83 f34c 	uadd8	r3, r3, ip
1001138c:	faa2 f38c 	sel	r3, r2, ip
10011390:	2b00      	cmp	r3, #0
10011392:	d0c6      	beq.n	10011322 <strlen+0x22>
10011394:	2a00      	cmp	r2, #0
10011396:	bf04      	itt	eq
10011398:	3004      	addeq	r0, #4
1001139a:	461a      	moveq	r2, r3
1001139c:	ba12      	rev	r2, r2
1001139e:	fab2 f282 	clz	r2, r2
100113a2:	eb00 00d2 	add.w	r0, r0, r2, lsr #3
100113a6:	bc30      	pop	{r4, r5}
100113a8:	4770      	bx	lr
100113aa:	e9d1 2300 	ldrd	r2, r3, [r1]
100113ae:	f004 0503 	and.w	r5, r4, #3
100113b2:	f1c4 0000 	rsb	r0, r4, #0
100113b6:	ea4f 05c5 	mov.w	r5, r5, lsl #3
100113ba:	f014 0f04 	tst.w	r4, #4
100113be:	f891 f040 	pld	[r1, #64]	@ 0x40
100113c2:	fa0c f505 	lsl.w	r5, ip, r5
100113c6:	ea62 0205 	orn	r2, r2, r5
100113ca:	bf1c      	itt	ne
100113cc:	ea63 0305 	ornne	r3, r3, r5
100113d0:	4662      	movne	r2, ip
100113d2:	f04f 0400 	mov.w	r4, #0
100113d6:	e7aa      	b.n	1001132e <strlen+0x2e>

100113d8 <memset>:
100113d8:	0783      	lsls	r3, r0, #30
100113da:	b530      	push	{r4, r5, lr}
100113dc:	d047      	beq.n	1001146e <memset+0x96>
100113de:	1e54      	subs	r4, r2, #1
100113e0:	2a00      	cmp	r2, #0
100113e2:	d03e      	beq.n	10011462 <memset+0x8a>
100113e4:	b2ca      	uxtb	r2, r1
100113e6:	4603      	mov	r3, r0
100113e8:	e001      	b.n	100113ee <memset+0x16>
100113ea:	3c01      	subs	r4, #1
100113ec:	d339      	bcc.n	10011462 <memset+0x8a>
100113ee:	f803 2b01 	strb.w	r2, [r3], #1
100113f2:	079d      	lsls	r5, r3, #30
100113f4:	d1f9      	bne.n	100113ea <memset+0x12>
100113f6:	2c03      	cmp	r4, #3
100113f8:	d92c      	bls.n	10011454 <memset+0x7c>
100113fa:	b2cd      	uxtb	r5, r1
100113fc:	eb05 2505 	add.w	r5, r5, r5, lsl #8
10011400:	2c0f      	cmp	r4, #15
10011402:	eb05 4505 	add.w	r5, r5, r5, lsl #16
10011406:	d935      	bls.n	10011474 <memset+0x9c>
10011408:	f1a4 0210 	sub.w	r2, r4, #16
1001140c:	f022 0c0f 	bic.w	ip, r2, #15
10011410:	f103 0e10 	add.w	lr, r3, #16
10011414:	44e6      	add	lr, ip
10011416:	ea4f 1c12 	mov.w	ip, r2, lsr #4
1001141a:	461a      	mov	r2, r3
1001141c:	e9c2 5500 	strd	r5, r5, [r2]
10011420:	e9c2 5502 	strd	r5, r5, [r2, #8]
10011424:	3210      	adds	r2, #16
10011426:	4572      	cmp	r2, lr
10011428:	d1f8      	bne.n	1001141c <memset+0x44>
1001142a:	f10c 0201 	add.w	r2, ip, #1
1001142e:	f014 0f0c 	tst.w	r4, #12
10011432:	eb03 1202 	add.w	r2, r3, r2, lsl #4
10011436:	f004 0c0f 	and.w	ip, r4, #15
1001143a:	d013      	beq.n	10011464 <memset+0x8c>
1001143c:	f1ac 0304 	sub.w	r3, ip, #4
10011440:	f023 0303 	bic.w	r3, r3, #3
10011444:	3304      	adds	r3, #4
10011446:	4413      	add	r3, r2
10011448:	f842 5b04 	str.w	r5, [r2], #4
1001144c:	4293      	cmp	r3, r2
1001144e:	d1fb      	bne.n	10011448 <memset+0x70>
10011450:	f00c 0403 	and.w	r4, ip, #3
10011454:	b12c      	cbz	r4, 10011462 <memset+0x8a>
10011456:	b2c9      	uxtb	r1, r1
10011458:	441c      	add	r4, r3
1001145a:	f803 1b01 	strb.w	r1, [r3], #1
1001145e:	42a3      	cmp	r3, r4
10011460:	d1fb      	bne.n	1001145a <memset+0x82>
10011462:	bd30      	pop	{r4, r5, pc}
10011464:	4664      	mov	r4, ip
10011466:	4613      	mov	r3, r2
10011468:	2c00      	cmp	r4, #0
1001146a:	d1f4      	bne.n	10011456 <memset+0x7e>
1001146c:	e7f9      	b.n	10011462 <memset+0x8a>
1001146e:	4603      	mov	r3, r0
10011470:	4614      	mov	r4, r2
10011472:	e7c0      	b.n	100113f6 <memset+0x1e>
10011474:	461a      	mov	r2, r3
10011476:	46a4      	mov	ip, r4
10011478:	e7e0      	b.n	1001143c <memset+0x64>
1001147a:	bf00      	nop

1001147c <__sflush_r>:
1001147c:	f9b1 200c 	ldrsh.w	r2, [r1, #12]
10011480:	b5f8      	push	{r3, r4, r5, r6, r7, lr}
10011482:	0716      	lsls	r6, r2, #28
10011484:	460c      	mov	r4, r1
10011486:	4607      	mov	r7, r0
10011488:	d449      	bmi.n	1001151e <__sflush_r+0xa2>
1001148a:	6849      	ldr	r1, [r1, #4]
1001148c:	f442 6300 	orr.w	r3, r2, #2048	@ 0x800
10011490:	2900      	cmp	r1, #0
10011492:	81a3      	strh	r3, [r4, #12]
10011494:	dd5f      	ble.n	10011556 <__sflush_r+0xda>
10011496:	6aa5      	ldr	r5, [r4, #40]	@ 0x28
10011498:	2d00      	cmp	r5, #0
1001149a:	d03e      	beq.n	1001151a <__sflush_r+0x9e>
1001149c:	2100      	movs	r1, #0
1001149e:	f412 5280 	ands.w	r2, r2, #4096	@ 0x1000
100114a2:	683e      	ldr	r6, [r7, #0]
100114a4:	6039      	str	r1, [r7, #0]
100114a6:	69e1      	ldr	r1, [r4, #28]
100114a8:	d161      	bne.n	1001156e <__sflush_r+0xf2>
100114aa:	2301      	movs	r3, #1
100114ac:	4638      	mov	r0, r7
100114ae:	47a8      	blx	r5
100114b0:	1c45      	adds	r5, r0, #1
100114b2:	4602      	mov	r2, r0
100114b4:	d06b      	beq.n	1001158e <__sflush_r+0x112>
100114b6:	f9b4 300c 	ldrsh.w	r3, [r4, #12]
100114ba:	6aa5      	ldr	r5, [r4, #40]	@ 0x28
100114bc:	69e1      	ldr	r1, [r4, #28]
100114be:	0758      	lsls	r0, r3, #29
100114c0:	d505      	bpl.n	100114ce <__sflush_r+0x52>
100114c2:	6863      	ldr	r3, [r4, #4]
100114c4:	1ad2      	subs	r2, r2, r3
100114c6:	6b23      	ldr	r3, [r4, #48]	@ 0x30
100114c8:	b10b      	cbz	r3, 100114ce <__sflush_r+0x52>
100114ca:	6be3      	ldr	r3, [r4, #60]	@ 0x3c
100114cc:	1ad2      	subs	r2, r2, r3
100114ce:	2300      	movs	r3, #0
100114d0:	4638      	mov	r0, r7
100114d2:	47a8      	blx	r5
100114d4:	1c41      	adds	r1, r0, #1
100114d6:	d14c      	bne.n	10011572 <__sflush_r+0xf6>
100114d8:	6839      	ldr	r1, [r7, #0]
100114da:	f9b4 300c 	ldrsh.w	r3, [r4, #12]
100114de:	291d      	cmp	r1, #29
100114e0:	d83f      	bhi.n	10011562 <__sflush_r+0xe6>
100114e2:	4a2f      	ldr	r2, [pc, #188]	@ (100115a0 <__sflush_r+0x124>)
100114e4:	40ca      	lsrs	r2, r1
100114e6:	07d2      	lsls	r2, r2, #31
100114e8:	d53b      	bpl.n	10011562 <__sflush_r+0xe6>
100114ea:	6922      	ldr	r2, [r4, #16]
100114ec:	6022      	str	r2, [r4, #0]
100114ee:	f423 6200 	bic.w	r2, r3, #2048	@ 0x800
100114f2:	81a2      	strh	r2, [r4, #12]
100114f4:	04dd      	lsls	r5, r3, #19
100114f6:	f04f 0200 	mov.w	r2, #0
100114fa:	6062      	str	r2, [r4, #4]
100114fc:	d501      	bpl.n	10011502 <__sflush_r+0x86>
100114fe:	2900      	cmp	r1, #0
10011500:	d043      	beq.n	1001158a <__sflush_r+0x10e>
10011502:	6b21      	ldr	r1, [r4, #48]	@ 0x30
10011504:	603e      	str	r6, [r7, #0]
10011506:	b141      	cbz	r1, 1001151a <__sflush_r+0x9e>
10011508:	f104 0340 	add.w	r3, r4, #64	@ 0x40
1001150c:	4299      	cmp	r1, r3
1001150e:	d002      	beq.n	10011516 <__sflush_r+0x9a>
10011510:	4638      	mov	r0, r7
10011512:	f000 f963 	bl	100117dc <_free_r>
10011516:	2300      	movs	r3, #0
10011518:	6323      	str	r3, [r4, #48]	@ 0x30
1001151a:	2000      	movs	r0, #0
1001151c:	bdf8      	pop	{r3, r4, r5, r6, r7, pc}
1001151e:	690e      	ldr	r6, [r1, #16]
10011520:	2e00      	cmp	r6, #0
10011522:	d0fa      	beq.n	1001151a <__sflush_r+0x9e>
10011524:	680d      	ldr	r5, [r1, #0]
10011526:	600e      	str	r6, [r1, #0]
10011528:	0792      	lsls	r2, r2, #30
1001152a:	bf0c      	ite	eq
1001152c:	694b      	ldreq	r3, [r1, #20]
1001152e:	2300      	movne	r3, #0
10011530:	1bad      	subs	r5, r5, r6
10011532:	608b      	str	r3, [r1, #8]
10011534:	e00c      	b.n	10011550 <__sflush_r+0xd4>
10011536:	f8d4 c024 	ldr.w	ip, [r4, #36]	@ 0x24
1001153a:	69e1      	ldr	r1, [r4, #28]
1001153c:	462b      	mov	r3, r5
1001153e:	4632      	mov	r2, r6
10011540:	4638      	mov	r0, r7
10011542:	47e0      	blx	ip
10011544:	f1b0 0c00 	subs.w	ip, r0, #0
10011548:	eba5 050c 	sub.w	r5, r5, ip
1001154c:	4466      	add	r6, ip
1001154e:	dd06      	ble.n	1001155e <__sflush_r+0xe2>
10011550:	2d00      	cmp	r5, #0
10011552:	dcf0      	bgt.n	10011536 <__sflush_r+0xba>
10011554:	e7e1      	b.n	1001151a <__sflush_r+0x9e>
10011556:	6be1      	ldr	r1, [r4, #60]	@ 0x3c
10011558:	2900      	cmp	r1, #0
1001155a:	dc9c      	bgt.n	10011496 <__sflush_r+0x1a>
1001155c:	e7dd      	b.n	1001151a <__sflush_r+0x9e>
1001155e:	f9b4 300c 	ldrsh.w	r3, [r4, #12]
10011562:	f043 0340 	orr.w	r3, r3, #64	@ 0x40
10011566:	81a3      	strh	r3, [r4, #12]
10011568:	f04f 30ff 	mov.w	r0, #4294967295	@ 0xffffffff
1001156c:	bdf8      	pop	{r3, r4, r5, r6, r7, pc}
1001156e:	6d22      	ldr	r2, [r4, #80]	@ 0x50
10011570:	e7a5      	b.n	100114be <__sflush_r+0x42>
10011572:	f9b4 300c 	ldrsh.w	r3, [r4, #12]
10011576:	6922      	ldr	r2, [r4, #16]
10011578:	6022      	str	r2, [r4, #0]
1001157a:	f423 6200 	bic.w	r2, r3, #2048	@ 0x800
1001157e:	81a2      	strh	r2, [r4, #12]
10011580:	04db      	lsls	r3, r3, #19
10011582:	f04f 0200 	mov.w	r2, #0
10011586:	6062      	str	r2, [r4, #4]
10011588:	d5bb      	bpl.n	10011502 <__sflush_r+0x86>
1001158a:	6520      	str	r0, [r4, #80]	@ 0x50
1001158c:	e7b9      	b.n	10011502 <__sflush_r+0x86>
1001158e:	683b      	ldr	r3, [r7, #0]
10011590:	2b00      	cmp	r3, #0
10011592:	d090      	beq.n	100114b6 <__sflush_r+0x3a>
10011594:	2b1d      	cmp	r3, #29
10011596:	d001      	beq.n	1001159c <__sflush_r+0x120>
10011598:	2b16      	cmp	r3, #22
1001159a:	d1e0      	bne.n	1001155e <__sflush_r+0xe2>
1001159c:	603e      	str	r6, [r7, #0]
1001159e:	e7bc      	b.n	1001151a <__sflush_r+0x9e>
100115a0:	20400001 	.word	0x20400001

100115a4 <_fflush_r>:
100115a4:	b510      	push	{r4, lr}
100115a6:	4604      	mov	r4, r0
100115a8:	b082      	sub	sp, #8
100115aa:	b108      	cbz	r0, 100115b0 <_fflush_r+0xc>
100115ac:	6b43      	ldr	r3, [r0, #52]	@ 0x34
100115ae:	b153      	cbz	r3, 100115c6 <_fflush_r+0x22>
100115b0:	f9b1 000c 	ldrsh.w	r0, [r1, #12]
100115b4:	b908      	cbnz	r0, 100115ba <_fflush_r+0x16>
100115b6:	b002      	add	sp, #8
100115b8:	bd10      	pop	{r4, pc}
100115ba:	4620      	mov	r0, r4
100115bc:	b002      	add	sp, #8
100115be:	e8bd 4010 	ldmia.w	sp!, {r4, lr}
100115c2:	f7ff bf5b 	b.w	1001147c <__sflush_r>
100115c6:	9101      	str	r1, [sp, #4]
100115c8:	f000 fedc 	bl	10012384 <__sinit>
100115cc:	9901      	ldr	r1, [sp, #4]
100115ce:	e7ef      	b.n	100115b0 <_fflush_r+0xc>

100115d0 <fflush>:
100115d0:	b1a0      	cbz	r0, 100115fc <fflush+0x2c>
100115d2:	b538      	push	{r3, r4, r5, lr}
100115d4:	4b0c      	ldr	r3, [pc, #48]	@ (10011608 <fflush+0x38>)
100115d6:	681d      	ldr	r5, [r3, #0]
100115d8:	4604      	mov	r4, r0
100115da:	b10d      	cbz	r5, 100115e0 <fflush+0x10>
100115dc:	6b6b      	ldr	r3, [r5, #52]	@ 0x34
100115de:	b14b      	cbz	r3, 100115f4 <fflush+0x24>
100115e0:	f9b4 000c 	ldrsh.w	r0, [r4, #12]
100115e4:	b900      	cbnz	r0, 100115e8 <fflush+0x18>
100115e6:	bd38      	pop	{r3, r4, r5, pc}
100115e8:	4621      	mov	r1, r4
100115ea:	4628      	mov	r0, r5
100115ec:	e8bd 4038 	ldmia.w	sp!, {r3, r4, r5, lr}
100115f0:	f7ff bf44 	b.w	1001147c <__sflush_r>
100115f4:	4628      	mov	r0, r5
100115f6:	f000 fec5 	bl	10012384 <__sinit>
100115fa:	e7f1      	b.n	100115e0 <fflush+0x10>
100115fc:	4a03      	ldr	r2, [pc, #12]	@ (1001160c <fflush+0x3c>)
100115fe:	4904      	ldr	r1, [pc, #16]	@ (10011610 <fflush+0x40>)
10011600:	4804      	ldr	r0, [pc, #16]	@ (10011614 <fflush+0x44>)
10011602:	f001 b903 	b.w	1001280c <_fwalk_sglue>
10011606:	bf00      	nop
10011608:	20000010 	.word	0x20000010
1001160c:	20000138 	.word	0x20000138
10011610:	100115a5 	.word	0x100115a5
10011614:	20000018 	.word	0x20000018

10011618 <memmove>:
10011618:	4288      	cmp	r0, r1
1001161a:	d90e      	bls.n	1001163a <memmove+0x22>
1001161c:	188b      	adds	r3, r1, r2
1001161e:	4283      	cmp	r3, r0
10011620:	d90b      	bls.n	1001163a <memmove+0x22>
10011622:	eb00 0c02 	add.w	ip, r0, r2
10011626:	2a00      	cmp	r2, #0
10011628:	d06e      	beq.n	10011708 <memmove+0xf0>
1001162a:	4662      	mov	r2, ip
1001162c:	f813 cd01 	ldrb.w	ip, [r3, #-1]!
10011630:	f802 cd01 	strb.w	ip, [r2, #-1]!
10011634:	4299      	cmp	r1, r3
10011636:	d1f9      	bne.n	1001162c <memmove+0x14>
10011638:	4770      	bx	lr
1001163a:	2a0f      	cmp	r2, #15
1001163c:	d80f      	bhi.n	1001165e <memmove+0x46>
1001163e:	4603      	mov	r3, r0
10011640:	f102 3cff 	add.w	ip, r2, #4294967295	@ 0xffffffff
10011644:	2a00      	cmp	r2, #0
10011646:	d05f      	beq.n	10011708 <memmove+0xf0>
10011648:	f10c 0c01 	add.w	ip, ip, #1
1001164c:	3b01      	subs	r3, #1
1001164e:	448c      	add	ip, r1
10011650:	f811 2b01 	ldrb.w	r2, [r1], #1
10011654:	f803 2f01 	strb.w	r2, [r3, #1]!
10011658:	4561      	cmp	r1, ip
1001165a:	d1f9      	bne.n	10011650 <memmove+0x38>
1001165c:	4770      	bx	lr
1001165e:	ea40 0301 	orr.w	r3, r0, r1
10011662:	079b      	lsls	r3, r3, #30
10011664:	d151      	bne.n	1001170a <memmove+0xf2>
10011666:	f1a2 0310 	sub.w	r3, r2, #16
1001166a:	b570      	push	{r4, r5, r6, lr}
1001166c:	f101 0c20 	add.w	ip, r1, #32
10011670:	f023 050f 	bic.w	r5, r3, #15
10011674:	f101 0e10 	add.w	lr, r1, #16
10011678:	f100 0410 	add.w	r4, r0, #16
1001167c:	44ac      	add	ip, r5
1001167e:	091b      	lsrs	r3, r3, #4
10011680:	f85e 5c10 	ldr.w	r5, [lr, #-16]
10011684:	f844 5c10 	str.w	r5, [r4, #-16]
10011688:	f85e 5c0c 	ldr.w	r5, [lr, #-12]
1001168c:	f844 5c0c 	str.w	r5, [r4, #-12]
10011690:	f85e 5c08 	ldr.w	r5, [lr, #-8]
10011694:	f844 5c08 	str.w	r5, [r4, #-8]
10011698:	f85e 5c04 	ldr.w	r5, [lr, #-4]
1001169c:	f844 5c04 	str.w	r5, [r4, #-4]
100116a0:	f10e 0e10 	add.w	lr, lr, #16
100116a4:	45e6      	cmp	lr, ip
100116a6:	f104 0410 	add.w	r4, r4, #16
100116aa:	d1e9      	bne.n	10011680 <memmove+0x68>
100116ac:	3301      	adds	r3, #1
100116ae:	f012 0f0c 	tst.w	r2, #12
100116b2:	eb01 1103 	add.w	r1, r1, r3, lsl #4
100116b6:	f002 040f 	and.w	r4, r2, #15
100116ba:	eb00 1303 	add.w	r3, r0, r3, lsl #4
100116be:	d028      	beq.n	10011712 <memmove+0xfa>
100116c0:	3c04      	subs	r4, #4
100116c2:	f024 0603 	bic.w	r6, r4, #3
100116c6:	ea4f 0c94 	mov.w	ip, r4, lsr #2
100116ca:	441e      	add	r6, r3
100116cc:	1f1c      	subs	r4, r3, #4
100116ce:	468e      	mov	lr, r1
100116d0:	f85e 5b04 	ldr.w	r5, [lr], #4
100116d4:	f844 5f04 	str.w	r5, [r4, #4]!
100116d8:	42b4      	cmp	r4, r6
100116da:	d1f9      	bne.n	100116d0 <memmove+0xb8>
100116dc:	f10c 0401 	add.w	r4, ip, #1
100116e0:	f002 0203 	and.w	r2, r2, #3
100116e4:	eb03 0384 	add.w	r3, r3, r4, lsl #2
100116e8:	eb01 0184 	add.w	r1, r1, r4, lsl #2
100116ec:	f102 3cff 	add.w	ip, r2, #4294967295	@ 0xffffffff
100116f0:	b14a      	cbz	r2, 10011706 <memmove+0xee>
100116f2:	f10c 0c01 	add.w	ip, ip, #1
100116f6:	3b01      	subs	r3, #1
100116f8:	448c      	add	ip, r1
100116fa:	f811 2b01 	ldrb.w	r2, [r1], #1
100116fe:	f803 2f01 	strb.w	r2, [r3, #1]!
10011702:	4561      	cmp	r1, ip
10011704:	d1f9      	bne.n	100116fa <memmove+0xe2>
10011706:	bd70      	pop	{r4, r5, r6, pc}
10011708:	4770      	bx	lr
1001170a:	f102 3cff 	add.w	ip, r2, #4294967295	@ 0xffffffff
1001170e:	4603      	mov	r3, r0
10011710:	e79a      	b.n	10011648 <memmove+0x30>
10011712:	4622      	mov	r2, r4
10011714:	e7ea      	b.n	100116ec <memmove+0xd4>
10011716:	bf00      	nop

10011718 <__errno>:
10011718:	4b01      	ldr	r3, [pc, #4]	@ (10011720 <__errno+0x8>)
1001171a:	6818      	ldr	r0, [r3, #0]
1001171c:	4770      	bx	lr
1001171e:	bf00      	nop
10011720:	20000010 	.word	0x20000010

10011724 <_malloc_trim_r>:
10011724:	e92d 43f8 	stmdb	sp!, {r3, r4, r5, r6, r7, r8, r9, lr}
10011728:	4606      	mov	r6, r0
1001172a:	2008      	movs	r0, #8
1001172c:	4689      	mov	r9, r1
1001172e:	f000 fa71 	bl	10011c14 <sysconf>
10011732:	f8df 809c 	ldr.w	r8, [pc, #156]	@ 100117d0 <_malloc_trim_r+0xac>
10011736:	4605      	mov	r5, r0
10011738:	4630      	mov	r0, r6
1001173a:	f000 fd35 	bl	100121a8 <__malloc_lock>
1001173e:	f8d8 3008 	ldr.w	r3, [r8, #8]
10011742:	685f      	ldr	r7, [r3, #4]
10011744:	f027 0703 	bic.w	r7, r7, #3
10011748:	f1a7 0411 	sub.w	r4, r7, #17
1001174c:	eba4 0409 	sub.w	r4, r4, r9
10011750:	442c      	add	r4, r5
10011752:	fbb4 f4f5 	udiv	r4, r4, r5
10011756:	3c01      	subs	r4, #1
10011758:	fb05 f404 	mul.w	r4, r5, r4
1001175c:	42a5      	cmp	r5, r4
1001175e:	dc08      	bgt.n	10011772 <_malloc_trim_r+0x4e>
10011760:	2100      	movs	r1, #0
10011762:	4630      	mov	r0, r6
10011764:	f001 f81a 	bl	1001279c <_sbrk_r>
10011768:	f8d8 3008 	ldr.w	r3, [r8, #8]
1001176c:	443b      	add	r3, r7
1001176e:	4298      	cmp	r0, r3
10011770:	d005      	beq.n	1001177e <_malloc_trim_r+0x5a>
10011772:	4630      	mov	r0, r6
10011774:	f000 fd1a 	bl	100121ac <__malloc_unlock>
10011778:	2000      	movs	r0, #0
1001177a:	e8bd 83f8 	ldmia.w	sp!, {r3, r4, r5, r6, r7, r8, r9, pc}
1001177e:	4261      	negs	r1, r4
10011780:	4630      	mov	r0, r6
10011782:	f001 f80b 	bl	1001279c <_sbrk_r>
10011786:	3001      	adds	r0, #1
10011788:	d00f      	beq.n	100117aa <_malloc_trim_r+0x86>
1001178a:	4a12      	ldr	r2, [pc, #72]	@ (100117d4 <_malloc_trim_r+0xb0>)
1001178c:	f8d8 3008 	ldr.w	r3, [r8, #8]
10011790:	1b3f      	subs	r7, r7, r4
10011792:	f047 0701 	orr.w	r7, r7, #1
10011796:	605f      	str	r7, [r3, #4]
10011798:	6813      	ldr	r3, [r2, #0]
1001179a:	4630      	mov	r0, r6
1001179c:	1b1b      	subs	r3, r3, r4
1001179e:	6013      	str	r3, [r2, #0]
100117a0:	f000 fd04 	bl	100121ac <__malloc_unlock>
100117a4:	2001      	movs	r0, #1
100117a6:	e8bd 83f8 	ldmia.w	sp!, {r3, r4, r5, r6, r7, r8, r9, pc}
100117aa:	2100      	movs	r1, #0
100117ac:	4630      	mov	r0, r6
100117ae:	f000 fff5 	bl	1001279c <_sbrk_r>
100117b2:	f8d8 2008 	ldr.w	r2, [r8, #8]
100117b6:	1a83      	subs	r3, r0, r2
100117b8:	2b0f      	cmp	r3, #15
100117ba:	ddda      	ble.n	10011772 <_malloc_trim_r+0x4e>
100117bc:	f043 0301 	orr.w	r3, r3, #1
100117c0:	6053      	str	r3, [r2, #4]
100117c2:	4b05      	ldr	r3, [pc, #20]	@ (100117d8 <_malloc_trim_r+0xb4>)
100117c4:	4903      	ldr	r1, [pc, #12]	@ (100117d4 <_malloc_trim_r+0xb0>)
100117c6:	681b      	ldr	r3, [r3, #0]
100117c8:	1ac0      	subs	r0, r0, r3
100117ca:	6008      	str	r0, [r1, #0]
100117cc:	e7d1      	b.n	10011772 <_malloc_trim_r+0x4e>
100117ce:	bf00      	nop
100117d0:	20000148 	.word	0x20000148
100117d4:	20001574 	.word	0x20001574
100117d8:	20000550 	.word	0x20000550

100117dc <_free_r>:
100117dc:	2900      	cmp	r1, #0
100117de:	d07c      	beq.n	100118da <_free_r+0xfe>
100117e0:	b5f8      	push	{r3, r4, r5, r6, r7, lr}
100117e2:	460c      	mov	r4, r1
100117e4:	4606      	mov	r6, r0
100117e6:	f000 fcdf 	bl	100121a8 <__malloc_lock>
100117ea:	f854 3c04 	ldr.w	r3, [r4, #-4]
100117ee:	4f76      	ldr	r7, [pc, #472]	@ (100119c8 <_free_r+0x1ec>)
100117f0:	f1a4 0508 	sub.w	r5, r4, #8
100117f4:	f023 0101 	bic.w	r1, r3, #1
100117f8:	1868      	adds	r0, r5, r1
100117fa:	f8d7 c008 	ldr.w	ip, [r7, #8]
100117fe:	6842      	ldr	r2, [r0, #4]
10011800:	4584      	cmp	ip, r0
10011802:	f022 0203 	bic.w	r2, r2, #3
10011806:	f000 8083 	beq.w	10011910 <_free_r+0x134>
1001180a:	07db      	lsls	r3, r3, #31
1001180c:	6042      	str	r2, [r0, #4]
1001180e:	eb00 0c02 	add.w	ip, r0, r2
10011812:	d433      	bmi.n	1001187c <_free_r+0xa0>
10011814:	f854 4c08 	ldr.w	r4, [r4, #-8]
10011818:	f8dc 3004 	ldr.w	r3, [ip, #4]
1001181c:	1b2d      	subs	r5, r5, r4
1001181e:	4421      	add	r1, r4
10011820:	68ac      	ldr	r4, [r5, #8]
10011822:	f107 0c08 	add.w	ip, r7, #8
10011826:	4564      	cmp	r4, ip
10011828:	f003 0301 	and.w	r3, r3, #1
1001182c:	d064      	beq.n	100118f8 <_free_r+0x11c>
1001182e:	f8d5 e00c 	ldr.w	lr, [r5, #12]
10011832:	f8c4 e00c 	str.w	lr, [r4, #12]
10011836:	f8ce 4008 	str.w	r4, [lr, #8]
1001183a:	2b00      	cmp	r3, #0
1001183c:	f000 8081 	beq.w	10011942 <_free_r+0x166>
10011840:	f041 0301 	orr.w	r3, r1, #1
10011844:	606b      	str	r3, [r5, #4]
10011846:	6001      	str	r1, [r0, #0]
10011848:	f5b1 7f00 	cmp.w	r1, #512	@ 0x200
1001184c:	d222      	bcs.n	10011894 <_free_r+0xb8>
1001184e:	6878      	ldr	r0, [r7, #4]
10011850:	08cb      	lsrs	r3, r1, #3
10011852:	2201      	movs	r2, #1
10011854:	0949      	lsrs	r1, r1, #5
10011856:	3301      	adds	r3, #1
10011858:	408a      	lsls	r2, r1
1001185a:	4302      	orrs	r2, r0
1001185c:	f857 1033 	ldr.w	r1, [r7, r3, lsl #3]
10011860:	607a      	str	r2, [r7, #4]
10011862:	eb07 02c3 	add.w	r2, r7, r3, lsl #3
10011866:	3a08      	subs	r2, #8
10011868:	e9c5 1202 	strd	r1, r2, [r5, #8]
1001186c:	f847 5033 	str.w	r5, [r7, r3, lsl #3]
10011870:	60cd      	str	r5, [r1, #12]
10011872:	4630      	mov	r0, r6
10011874:	e8bd 40f8 	ldmia.w	sp!, {r3, r4, r5, r6, r7, lr}
10011878:	f000 bc98 	b.w	100121ac <__malloc_unlock>
1001187c:	f8dc 3004 	ldr.w	r3, [ip, #4]
10011880:	07db      	lsls	r3, r3, #31
10011882:	d52b      	bpl.n	100118dc <_free_r+0x100>
10011884:	f041 0301 	orr.w	r3, r1, #1
10011888:	f5b1 7f00 	cmp.w	r1, #512	@ 0x200
1001188c:	f844 3c04 	str.w	r3, [r4, #-4]
10011890:	6001      	str	r1, [r0, #0]
10011892:	d3dc      	bcc.n	1001184e <_free_r+0x72>
10011894:	f5b1 6f20 	cmp.w	r1, #2560	@ 0xa00
10011898:	ea4f 2351 	mov.w	r3, r1, lsr #9
1001189c:	d253      	bcs.n	10011946 <_free_r+0x16a>
1001189e:	098b      	lsrs	r3, r1, #6
100118a0:	f103 0039 	add.w	r0, r3, #57	@ 0x39
100118a4:	f103 0238 	add.w	r2, r3, #56	@ 0x38
100118a8:	00c3      	lsls	r3, r0, #3
100118aa:	18f8      	adds	r0, r7, r3
100118ac:	58fb      	ldr	r3, [r7, r3]
100118ae:	3808      	subs	r0, #8
100118b0:	4298      	cmp	r0, r3
100118b2:	d103      	bne.n	100118bc <_free_r+0xe0>
100118b4:	e061      	b.n	1001197a <_free_r+0x19e>
100118b6:	689b      	ldr	r3, [r3, #8]
100118b8:	4298      	cmp	r0, r3
100118ba:	d004      	beq.n	100118c6 <_free_r+0xea>
100118bc:	685a      	ldr	r2, [r3, #4]
100118be:	f022 0203 	bic.w	r2, r2, #3
100118c2:	428a      	cmp	r2, r1
100118c4:	d8f7      	bhi.n	100118b6 <_free_r+0xda>
100118c6:	68d8      	ldr	r0, [r3, #12]
100118c8:	e9c5 3002 	strd	r3, r0, [r5, #8]
100118cc:	6085      	str	r5, [r0, #8]
100118ce:	60dd      	str	r5, [r3, #12]
100118d0:	4630      	mov	r0, r6
100118d2:	e8bd 40f8 	ldmia.w	sp!, {r3, r4, r5, r6, r7, lr}
100118d6:	f000 bc69 	b.w	100121ac <__malloc_unlock>
100118da:	4770      	bx	lr
100118dc:	4411      	add	r1, r2
100118de:	f107 0c08 	add.w	ip, r7, #8
100118e2:	6883      	ldr	r3, [r0, #8]
100118e4:	4563      	cmp	r3, ip
100118e6:	d03f      	beq.n	10011968 <_free_r+0x18c>
100118e8:	68c2      	ldr	r2, [r0, #12]
100118ea:	60da      	str	r2, [r3, #12]
100118ec:	6093      	str	r3, [r2, #8]
100118ee:	f041 0301 	orr.w	r3, r1, #1
100118f2:	606b      	str	r3, [r5, #4]
100118f4:	5069      	str	r1, [r5, r1]
100118f6:	e7a7      	b.n	10011848 <_free_r+0x6c>
100118f8:	2b00      	cmp	r3, #0
100118fa:	d15f      	bne.n	100119bc <_free_r+0x1e0>
100118fc:	440a      	add	r2, r1
100118fe:	e9d0 1302 	ldrd	r1, r3, [r0, #8]
10011902:	60cb      	str	r3, [r1, #12]
10011904:	6099      	str	r1, [r3, #8]
10011906:	f042 0301 	orr.w	r3, r2, #1
1001190a:	606b      	str	r3, [r5, #4]
1001190c:	50aa      	str	r2, [r5, r2]
1001190e:	e7b0      	b.n	10011872 <_free_r+0x96>
10011910:	440a      	add	r2, r1
10011912:	07d9      	lsls	r1, r3, #31
10011914:	d407      	bmi.n	10011926 <_free_r+0x14a>
10011916:	f854 3c08 	ldr.w	r3, [r4, #-8]
1001191a:	1aed      	subs	r5, r5, r3
1001191c:	441a      	add	r2, r3
1001191e:	e9d5 1302 	ldrd	r1, r3, [r5, #8]
10011922:	60cb      	str	r3, [r1, #12]
10011924:	6099      	str	r1, [r3, #8]
10011926:	f042 0301 	orr.w	r3, r2, #1
1001192a:	606b      	str	r3, [r5, #4]
1001192c:	4b27      	ldr	r3, [pc, #156]	@ (100119cc <_free_r+0x1f0>)
1001192e:	60bd      	str	r5, [r7, #8]
10011930:	681b      	ldr	r3, [r3, #0]
10011932:	4293      	cmp	r3, r2
10011934:	d89d      	bhi.n	10011872 <_free_r+0x96>
10011936:	4b26      	ldr	r3, [pc, #152]	@ (100119d0 <_free_r+0x1f4>)
10011938:	4630      	mov	r0, r6
1001193a:	6819      	ldr	r1, [r3, #0]
1001193c:	f7ff fef2 	bl	10011724 <_malloc_trim_r>
10011940:	e797      	b.n	10011872 <_free_r+0x96>
10011942:	4411      	add	r1, r2
10011944:	e7cd      	b.n	100118e2 <_free_r+0x106>
10011946:	2b14      	cmp	r3, #20
10011948:	d908      	bls.n	1001195c <_free_r+0x180>
1001194a:	2b54      	cmp	r3, #84	@ 0x54
1001194c:	d81d      	bhi.n	1001198a <_free_r+0x1ae>
1001194e:	0b0b      	lsrs	r3, r1, #12
10011950:	f103 006f 	add.w	r0, r3, #111	@ 0x6f
10011954:	f103 026e 	add.w	r2, r3, #110	@ 0x6e
10011958:	00c3      	lsls	r3, r0, #3
1001195a:	e7a6      	b.n	100118aa <_free_r+0xce>
1001195c:	f103 005c 	add.w	r0, r3, #92	@ 0x5c
10011960:	f103 025b 	add.w	r2, r3, #91	@ 0x5b
10011964:	00c3      	lsls	r3, r0, #3
10011966:	e7a0      	b.n	100118aa <_free_r+0xce>
10011968:	f041 0301 	orr.w	r3, r1, #1
1001196c:	e9c7 5504 	strd	r5, r5, [r7, #16]
10011970:	e9c5 cc02 	strd	ip, ip, [r5, #8]
10011974:	606b      	str	r3, [r5, #4]
10011976:	5069      	str	r1, [r5, r1]
10011978:	e77b      	b.n	10011872 <_free_r+0x96>
1001197a:	6879      	ldr	r1, [r7, #4]
1001197c:	1092      	asrs	r2, r2, #2
1001197e:	2401      	movs	r4, #1
10011980:	fa04 f202 	lsl.w	r2, r4, r2
10011984:	430a      	orrs	r2, r1
10011986:	607a      	str	r2, [r7, #4]
10011988:	e79e      	b.n	100118c8 <_free_r+0xec>
1001198a:	f5b3 7faa 	cmp.w	r3, #340	@ 0x154
1001198e:	d806      	bhi.n	1001199e <_free_r+0x1c2>
10011990:	0bcb      	lsrs	r3, r1, #15
10011992:	f103 0078 	add.w	r0, r3, #120	@ 0x78
10011996:	f103 0277 	add.w	r2, r3, #119	@ 0x77
1001199a:	00c3      	lsls	r3, r0, #3
1001199c:	e785      	b.n	100118aa <_free_r+0xce>
1001199e:	f240 5254 	movw	r2, #1364	@ 0x554
100119a2:	4293      	cmp	r3, r2
100119a4:	d806      	bhi.n	100119b4 <_free_r+0x1d8>
100119a6:	0c8b      	lsrs	r3, r1, #18
100119a8:	f103 007d 	add.w	r0, r3, #125	@ 0x7d
100119ac:	f103 027c 	add.w	r2, r3, #124	@ 0x7c
100119b0:	00c3      	lsls	r3, r0, #3
100119b2:	e77a      	b.n	100118aa <_free_r+0xce>
100119b4:	f44f 737e 	mov.w	r3, #1016	@ 0x3f8
100119b8:	227e      	movs	r2, #126	@ 0x7e
100119ba:	e776      	b.n	100118aa <_free_r+0xce>
100119bc:	f041 0301 	orr.w	r3, r1, #1
100119c0:	606b      	str	r3, [r5, #4]
100119c2:	6001      	str	r1, [r0, #0]
100119c4:	e755      	b.n	10011872 <_free_r+0x96>
100119c6:	bf00      	nop
100119c8:	20000148 	.word	0x20000148
100119cc:	20000554 	.word	0x20000554
100119d0:	20001570 	.word	0x20001570

100119d4 <memcmp>:
100119d4:	2a03      	cmp	r2, #3
100119d6:	b430      	push	{r4, r5}
100119d8:	d915      	bls.n	10011a06 <memcmp+0x32>
100119da:	ea41 0400 	orr.w	r4, r1, r0
100119de:	07a4      	lsls	r4, r4, #30
100119e0:	4684      	mov	ip, r0
100119e2:	460b      	mov	r3, r1
100119e4:	d004      	beq.n	100119f0 <memcmp+0x1c>
100119e6:	1e54      	subs	r4, r2, #1
100119e8:	e00f      	b.n	10011a0a <memcmp+0x36>
100119ea:	3a04      	subs	r2, #4
100119ec:	2a03      	cmp	r2, #3
100119ee:	d908      	bls.n	10011a02 <memcmp+0x2e>
100119f0:	4619      	mov	r1, r3
100119f2:	4660      	mov	r0, ip
100119f4:	f853 4b04 	ldr.w	r4, [r3], #4
100119f8:	f85c 5b04 	ldr.w	r5, [ip], #4
100119fc:	42a5      	cmp	r5, r4
100119fe:	d0f4      	beq.n	100119ea <memcmp+0x16>
10011a00:	e7f1      	b.n	100119e6 <memcmp+0x12>
10011a02:	4660      	mov	r0, ip
10011a04:	4619      	mov	r1, r3
10011a06:	1e54      	subs	r4, r2, #1
10011a08:	b17a      	cbz	r2, 10011a2a <memcmp+0x56>
10011a0a:	1e43      	subs	r3, r0, #1
10011a0c:	3901      	subs	r1, #1
10011a0e:	1902      	adds	r2, r0, r4
10011a10:	e001      	b.n	10011a16 <memcmp+0x42>
10011a12:	429a      	cmp	r2, r3
10011a14:	d009      	beq.n	10011a2a <memcmp+0x56>
10011a16:	f813 0f01 	ldrb.w	r0, [r3, #1]!
10011a1a:	f811 cf01 	ldrb.w	ip, [r1, #1]!
10011a1e:	4560      	cmp	r0, ip
10011a20:	d0f7      	beq.n	10011a12 <memcmp+0x3e>
10011a22:	eba0 000c 	sub.w	r0, r0, ip
10011a26:	bc30      	pop	{r4, r5}
10011a28:	4770      	bx	lr
10011a2a:	2000      	movs	r0, #0
10011a2c:	bc30      	pop	{r4, r5}
10011a2e:	4770      	bx	lr

10011a30 <_fclose_r>:
10011a30:	b570      	push	{r4, r5, r6, lr}
10011a32:	b139      	cbz	r1, 10011a44 <_fclose_r+0x14>
10011a34:	4606      	mov	r6, r0
10011a36:	460c      	mov	r4, r1
10011a38:	b108      	cbz	r0, 10011a3e <_fclose_r+0xe>
10011a3a:	6b43      	ldr	r3, [r0, #52]	@ 0x34
10011a3c:	b383      	cbz	r3, 10011aa0 <_fclose_r+0x70>
10011a3e:	f9b4 300c 	ldrsh.w	r3, [r4, #12]
10011a42:	b913      	cbnz	r3, 10011a4a <_fclose_r+0x1a>
10011a44:	2500      	movs	r5, #0
10011a46:	4628      	mov	r0, r5
10011a48:	bd70      	pop	{r4, r5, r6, pc}
10011a4a:	4621      	mov	r1, r4
10011a4c:	4630      	mov	r0, r6
10011a4e:	f7ff fd15 	bl	1001147c <__sflush_r>
10011a52:	6ae3      	ldr	r3, [r4, #44]	@ 0x2c
10011a54:	4605      	mov	r5, r0
10011a56:	b133      	cbz	r3, 10011a66 <_fclose_r+0x36>
10011a58:	69e1      	ldr	r1, [r4, #28]
10011a5a:	4630      	mov	r0, r6
10011a5c:	4798      	blx	r3
10011a5e:	2800      	cmp	r0, #0
10011a60:	bfb8      	it	lt
10011a62:	f04f 35ff 	movlt.w	r5, #4294967295	@ 0xffffffff
10011a66:	89a3      	ldrh	r3, [r4, #12]
10011a68:	061b      	lsls	r3, r3, #24
10011a6a:	d41c      	bmi.n	10011aa6 <_fclose_r+0x76>
10011a6c:	6b21      	ldr	r1, [r4, #48]	@ 0x30
10011a6e:	b141      	cbz	r1, 10011a82 <_fclose_r+0x52>
10011a70:	f104 0340 	add.w	r3, r4, #64	@ 0x40
10011a74:	4299      	cmp	r1, r3
10011a76:	d002      	beq.n	10011a7e <_fclose_r+0x4e>
10011a78:	4630      	mov	r0, r6
10011a7a:	f7ff feaf 	bl	100117dc <_free_r>
10011a7e:	2300      	movs	r3, #0
10011a80:	6323      	str	r3, [r4, #48]	@ 0x30
10011a82:	6c61      	ldr	r1, [r4, #68]	@ 0x44
10011a84:	b121      	cbz	r1, 10011a90 <_fclose_r+0x60>
10011a86:	4630      	mov	r0, r6
10011a88:	f7ff fea8 	bl	100117dc <_free_r>
10011a8c:	2300      	movs	r3, #0
10011a8e:	6463      	str	r3, [r4, #68]	@ 0x44
10011a90:	f000 fc88 	bl	100123a4 <__sfp_lock_acquire>
10011a94:	2300      	movs	r3, #0
10011a96:	81a3      	strh	r3, [r4, #12]
10011a98:	f000 fc86 	bl	100123a8 <__sfp_lock_release>
10011a9c:	4628      	mov	r0, r5
10011a9e:	bd70      	pop	{r4, r5, r6, pc}
10011aa0:	f000 fc70 	bl	10012384 <__sinit>
10011aa4:	e7cb      	b.n	10011a3e <_fclose_r+0xe>
10011aa6:	6921      	ldr	r1, [r4, #16]
10011aa8:	4630      	mov	r0, r6
10011aaa:	f7ff fe97 	bl	100117dc <_free_r>
10011aae:	e7dd      	b.n	10011a6c <_fclose_r+0x3c>

10011ab0 <fclose>:
10011ab0:	4b02      	ldr	r3, [pc, #8]	@ (10011abc <fclose+0xc>)
10011ab2:	4601      	mov	r1, r0
10011ab4:	6818      	ldr	r0, [r3, #0]
10011ab6:	f7ff bfbb 	b.w	10011a30 <_fclose_r>
10011aba:	bf00      	nop
10011abc:	20000010 	.word	0x20000010

10011ac0 <malloc>:
10011ac0:	4b02      	ldr	r3, [pc, #8]	@ (10011acc <malloc+0xc>)
10011ac2:	4601      	mov	r1, r0
10011ac4:	6818      	ldr	r0, [r3, #0]
10011ac6:	f002 ba21 	b.w	10013f0c <_malloc_r>
10011aca:	bf00      	nop
10011acc:	20000010 	.word	0x20000010

10011ad0 <free>:
10011ad0:	4b02      	ldr	r3, [pc, #8]	@ (10011adc <free+0xc>)
10011ad2:	4601      	mov	r1, r0
10011ad4:	6818      	ldr	r0, [r3, #0]
10011ad6:	f7ff be81 	b.w	100117dc <_free_r>
10011ada:	bf00      	nop
10011adc:	20000010 	.word	0x20000010

10011ae0 <memcpy>:
10011ae0:	4684      	mov	ip, r0
10011ae2:	ea41 0300 	orr.w	r3, r1, r0
10011ae6:	f013 0303 	ands.w	r3, r3, #3
10011aea:	d16d      	bne.n	10011bc8 <memcpy+0xe8>
10011aec:	3a40      	subs	r2, #64	@ 0x40
10011aee:	d341      	bcc.n	10011b74 <memcpy+0x94>
10011af0:	f851 3b04 	ldr.w	r3, [r1], #4
10011af4:	f840 3b04 	str.w	r3, [r0], #4
10011af8:	f851 3b04 	ldr.w	r3, [r1], #4
10011afc:	f840 3b04 	str.w	r3, [r0], #4
10011b00:	f851 3b04 	ldr.w	r3, [r1], #4
10011b04:	f840 3b04 	str.w	r3, [r0], #4
10011b08:	f851 3b04 	ldr.w	r3, [r1], #4
10011b0c:	f840 3b04 	str.w	r3, [r0], #4
10011b10:	f851 3b04 	ldr.w	r3, [r1], #4
10011b14:	f840 3b04 	str.w	r3, [r0], #4
10011b18:	f851 3b04 	ldr.w	r3, [r1], #4
10011b1c:	f840 3b04 	str.w	r3, [r0], #4
10011b20:	f851 3b04 	ldr.w	r3, [r1], #4
10011b24:	f840 3b04 	str.w	r3, [r0], #4
10011b28:	f851 3b04 	ldr.w	r3, [r1], #4
10011b2c:	f840 3b04 	str.w	r3, [r0], #4
10011b30:	f851 3b04 	ldr.w	r3, [r1], #4
10011b34:	f840 3b04 	str.w	r3, [r0], #4
10011b38:	f851 3b04 	ldr.w	r3, [r1], #4
10011b3c:	f840 3b04 	str.w	r3, [r0], #4
10011b40:	f851 3b04 	ldr.w	r3, [r1], #4
10011b44:	f840 3b04 	str.w	r3, [r0], #4
10011b48:	f851 3b04 	ldr.w	r3, [r1], #4
10011b4c:	f840 3b04 	str.w	r3, [r0], #4
10011b50:	f851 3b04 	ldr.w	r3, [r1], #4
10011b54:	f840 3b04 	str.w	r3, [r0], #4
10011b58:	f851 3b04 	ldr.w	r3, [r1], #4
10011b5c:	f840 3b04 	str.w	r3, [r0], #4
10011b60:	f851 3b04 	ldr.w	r3, [r1], #4
10011b64:	f840 3b04 	str.w	r3, [r0], #4
10011b68:	f851 3b04 	ldr.w	r3, [r1], #4
10011b6c:	f840 3b04 	str.w	r3, [r0], #4
10011b70:	3a40      	subs	r2, #64	@ 0x40
10011b72:	d2bd      	bcs.n	10011af0 <memcpy+0x10>
10011b74:	3230      	adds	r2, #48	@ 0x30
10011b76:	d311      	bcc.n	10011b9c <memcpy+0xbc>
10011b78:	f851 3b04 	ldr.w	r3, [r1], #4
10011b7c:	f840 3b04 	str.w	r3, [r0], #4
10011b80:	f851 3b04 	ldr.w	r3, [r1], #4
10011b84:	f840 3b04 	str.w	r3, [r0], #4
10011b88:	f851 3b04 	ldr.w	r3, [r1], #4
10011b8c:	f840 3b04 	str.w	r3, [r0], #4
10011b90:	f851 3b04 	ldr.w	r3, [r1], #4
10011b94:	f840 3b04 	str.w	r3, [r0], #4
10011b98:	3a10      	subs	r2, #16
10011b9a:	d2ed      	bcs.n	10011b78 <memcpy+0x98>
10011b9c:	320c      	adds	r2, #12
10011b9e:	d305      	bcc.n	10011bac <memcpy+0xcc>
10011ba0:	f851 3b04 	ldr.w	r3, [r1], #4
10011ba4:	f840 3b04 	str.w	r3, [r0], #4
10011ba8:	3a04      	subs	r2, #4
10011baa:	d2f9      	bcs.n	10011ba0 <memcpy+0xc0>
10011bac:	3204      	adds	r2, #4
10011bae:	d008      	beq.n	10011bc2 <memcpy+0xe2>
10011bb0:	07d2      	lsls	r2, r2, #31
10011bb2:	bf1c      	itt	ne
10011bb4:	f811 3b01 	ldrbne.w	r3, [r1], #1
10011bb8:	f800 3b01 	strbne.w	r3, [r0], #1
10011bbc:	d301      	bcc.n	10011bc2 <memcpy+0xe2>
10011bbe:	880b      	ldrh	r3, [r1, #0]
10011bc0:	8003      	strh	r3, [r0, #0]
10011bc2:	4660      	mov	r0, ip
10011bc4:	4770      	bx	lr
10011bc6:	bf00      	nop
10011bc8:	2a08      	cmp	r2, #8
10011bca:	d313      	bcc.n	10011bf4 <memcpy+0x114>
10011bcc:	078b      	lsls	r3, r1, #30
10011bce:	d08d      	beq.n	10011aec <memcpy+0xc>
10011bd0:	f010 0303 	ands.w	r3, r0, #3
10011bd4:	d08a      	beq.n	10011aec <memcpy+0xc>
10011bd6:	f1c3 0304 	rsb	r3, r3, #4
10011bda:	1ad2      	subs	r2, r2, r3
10011bdc:	07db      	lsls	r3, r3, #31
10011bde:	bf1c      	itt	ne
10011be0:	f811 3b01 	ldrbne.w	r3, [r1], #1
10011be4:	f800 3b01 	strbne.w	r3, [r0], #1
10011be8:	d380      	bcc.n	10011aec <memcpy+0xc>
10011bea:	f831 3b02 	ldrh.w	r3, [r1], #2
10011bee:	f820 3b02 	strh.w	r3, [r0], #2
10011bf2:	e77b      	b.n	10011aec <memcpy+0xc>
10011bf4:	3a04      	subs	r2, #4
10011bf6:	d3d9      	bcc.n	10011bac <memcpy+0xcc>
10011bf8:	3a01      	subs	r2, #1
10011bfa:	f811 3b01 	ldrb.w	r3, [r1], #1
10011bfe:	f800 3b01 	strb.w	r3, [r0], #1
10011c02:	d2f9      	bcs.n	10011bf8 <memcpy+0x118>
10011c04:	780b      	ldrb	r3, [r1, #0]
10011c06:	7003      	strb	r3, [r0, #0]
10011c08:	784b      	ldrb	r3, [r1, #1]
10011c0a:	7043      	strb	r3, [r0, #1]
10011c0c:	788b      	ldrb	r3, [r1, #2]
10011c0e:	7083      	strb	r3, [r0, #2]
10011c10:	4660      	mov	r0, ip
10011c12:	4770      	bx	lr

10011c14 <sysconf>:
10011c14:	2808      	cmp	r0, #8
10011c16:	d102      	bne.n	10011c1e <sysconf+0xa>
10011c18:	f44f 5080 	mov.w	r0, #4096	@ 0x1000
10011c1c:	4770      	bx	lr
10011c1e:	b508      	push	{r3, lr}
10011c20:	f7ff fd7a 	bl	10011718 <__errno>
10011c24:	2316      	movs	r3, #22
10011c26:	6003      	str	r3, [r0, #0]
10011c28:	f04f 30ff 	mov.w	r0, #4294967295	@ 0xffffffff
10011c2c:	bd08      	pop	{r3, pc}
10011c2e:	bf00      	nop

10011c30 <__sread>:
10011c30:	b510      	push	{r4, lr}
10011c32:	460c      	mov	r4, r1
10011c34:	f9b1 100e 	ldrsh.w	r1, [r1, #14]
10011c38:	f002 f952 	bl	10013ee0 <_read_r>
10011c3c:	2800      	cmp	r0, #0
10011c3e:	db03      	blt.n	10011c48 <__sread+0x18>
10011c40:	6d23      	ldr	r3, [r4, #80]	@ 0x50
10011c42:	4403      	add	r3, r0
10011c44:	6523      	str	r3, [r4, #80]	@ 0x50
10011c46:	bd10      	pop	{r4, pc}
10011c48:	89a3      	ldrh	r3, [r4, #12]
10011c4a:	f423 5380 	bic.w	r3, r3, #4096	@ 0x1000
10011c4e:	81a3      	strh	r3, [r4, #12]
10011c50:	bd10      	pop	{r4, pc}
10011c52:	bf00      	nop

10011c54 <__seofread>:
10011c54:	2000      	movs	r0, #0
10011c56:	4770      	bx	lr

10011c58 <__swrite>:
10011c58:	e92d 41f0 	stmdb	sp!, {r4, r5, r6, r7, r8, lr}
10011c5c:	460c      	mov	r4, r1
10011c5e:	f9b1 100c 	ldrsh.w	r1, [r1, #12]
10011c62:	461f      	mov	r7, r3
10011c64:	05cb      	lsls	r3, r1, #23
10011c66:	4605      	mov	r5, r0
10011c68:	4616      	mov	r6, r2
10011c6a:	d40b      	bmi.n	10011c84 <__swrite+0x2c>
10011c6c:	f421 5180 	bic.w	r1, r1, #4096	@ 0x1000
10011c70:	81a1      	strh	r1, [r4, #12]
10011c72:	463b      	mov	r3, r7
10011c74:	f9b4 100e 	ldrsh.w	r1, [r4, #14]
10011c78:	4632      	mov	r2, r6
10011c7a:	4628      	mov	r0, r5
10011c7c:	e8bd 41f0 	ldmia.w	sp!, {r4, r5, r6, r7, r8, lr}
10011c80:	f000 b9ea 	b.w	10012058 <_write_r>
10011c84:	f9b4 100e 	ldrsh.w	r1, [r4, #14]
10011c88:	2302      	movs	r3, #2
10011c8a:	2200      	movs	r2, #0
10011c8c:	f003 fc26 	bl	100154dc <_lseek_r>
10011c90:	f9b4 100c 	ldrsh.w	r1, [r4, #12]
10011c94:	e7ea      	b.n	10011c6c <__swrite+0x14>
10011c96:	bf00      	nop

10011c98 <__sseek>:
10011c98:	b510      	push	{r4, lr}
10011c9a:	460c      	mov	r4, r1
10011c9c:	f9b1 100e 	ldrsh.w	r1, [r1, #14]
10011ca0:	f003 fc1c 	bl	100154dc <_lseek_r>
10011ca4:	f9b4 300c 	ldrsh.w	r3, [r4, #12]
10011ca8:	1c42      	adds	r2, r0, #1
10011caa:	bf0e      	itee	eq
10011cac:	f423 5380 	biceq.w	r3, r3, #4096	@ 0x1000
10011cb0:	f443 5380 	orrne.w	r3, r3, #4096	@ 0x1000
10011cb4:	6520      	strne	r0, [r4, #80]	@ 0x50
10011cb6:	81a3      	strh	r3, [r4, #12]
10011cb8:	bd10      	pop	{r4, pc}
10011cba:	bf00      	nop

10011cbc <__sclose>:
10011cbc:	f9b1 100e 	ldrsh.w	r1, [r1, #14]
10011cc0:	f000 bd7e 	b.w	100127c0 <_close_r>

10011cc4 <__libc_init_array>:
10011cc4:	b570      	push	{r4, r5, r6, lr}
10011cc6:	4b0f      	ldr	r3, [pc, #60]	@ (10011d04 <__libc_init_array+0x40>)
10011cc8:	4d0f      	ldr	r5, [pc, #60]	@ (10011d08 <__libc_init_array+0x44>)
10011cca:	42ab      	cmp	r3, r5
10011ccc:	eba3 0605 	sub.w	r6, r3, r5
10011cd0:	d007      	beq.n	10011ce2 <__libc_init_array+0x1e>
10011cd2:	10b6      	asrs	r6, r6, #2
10011cd4:	2400      	movs	r4, #0
10011cd6:	f855 3b04 	ldr.w	r3, [r5], #4
10011cda:	3401      	adds	r4, #1
10011cdc:	4798      	blx	r3
10011cde:	42a6      	cmp	r6, r4
10011ce0:	d8f9      	bhi.n	10011cd6 <__libc_init_array+0x12>
10011ce2:	f008 fbf9 	bl	1001a4d8 <_init>
10011ce6:	4d09      	ldr	r5, [pc, #36]	@ (10011d0c <__libc_init_array+0x48>)
10011ce8:	4b09      	ldr	r3, [pc, #36]	@ (10011d10 <__libc_init_array+0x4c>)
10011cea:	1b5e      	subs	r6, r3, r5
10011cec:	42ab      	cmp	r3, r5
10011cee:	ea4f 06a6 	mov.w	r6, r6, asr #2
10011cf2:	d006      	beq.n	10011d02 <__libc_init_array+0x3e>
10011cf4:	2400      	movs	r4, #0
10011cf6:	f855 3b04 	ldr.w	r3, [r5], #4
10011cfa:	3401      	adds	r4, #1
10011cfc:	4798      	blx	r3
10011cfe:	42a6      	cmp	r6, r4
10011d00:	d8f9      	bhi.n	10011cf6 <__libc_init_array+0x32>
10011d02:	bd70      	pop	{r4, r5, r6, pc}
10011d04:	20000bb8 	.word	0x20000bb8
10011d08:	20000bb8 	.word	0x20000bb8
10011d0c:	20000bb8 	.word	0x20000bb8
10011d10:	20000bc0 	.word	0x20000bc0

10011d14 <_realloc_r>:
10011d14:	e92d 4ff8 	stmdb	sp!, {r3, r4, r5, r6, r7, r8, r9, sl, fp, lr}
10011d18:	4616      	mov	r6, r2
10011d1a:	2900      	cmp	r1, #0
10011d1c:	f000 8096 	beq.w	10011e4c <_realloc_r+0x138>
10011d20:	460c      	mov	r4, r1
10011d22:	4680      	mov	r8, r0
10011d24:	f106 050b 	add.w	r5, r6, #11
10011d28:	f000 fa3e 	bl	100121a8 <__malloc_lock>
10011d2c:	f854 1c04 	ldr.w	r1, [r4, #-4]
10011d30:	2d16      	cmp	r5, #22
10011d32:	f1a4 0908 	sub.w	r9, r4, #8
10011d36:	f021 0703 	bic.w	r7, r1, #3
10011d3a:	d858      	bhi.n	10011dee <_realloc_r+0xda>
10011d3c:	2510      	movs	r5, #16
10011d3e:	42ae      	cmp	r6, r5
10011d40:	d858      	bhi.n	10011df4 <_realloc_r+0xe0>
10011d42:	42af      	cmp	r7, r5
10011d44:	da60      	bge.n	10011e08 <_realloc_r+0xf4>
10011d46:	4bbe      	ldr	r3, [pc, #760]	@ (10012040 <_realloc_r+0x32c>)
10011d48:	689a      	ldr	r2, [r3, #8]
10011d4a:	eb09 0c07 	add.w	ip, r9, r7
10011d4e:	4562      	cmp	r2, ip
10011d50:	f8dc 0004 	ldr.w	r0, [ip, #4]
10011d54:	f000 8090 	beq.w	10011e78 <_realloc_r+0x164>
10011d58:	f020 0301 	bic.w	r3, r0, #1
10011d5c:	4463      	add	r3, ip
10011d5e:	685b      	ldr	r3, [r3, #4]
10011d60:	07db      	lsls	r3, r3, #31
10011d62:	d468      	bmi.n	10011e36 <_realloc_r+0x122>
10011d64:	f020 0003 	bic.w	r0, r0, #3
10011d68:	183b      	adds	r3, r7, r0
10011d6a:	429d      	cmp	r5, r3
10011d6c:	dd47      	ble.n	10011dfe <_realloc_r+0xea>
10011d6e:	07cb      	lsls	r3, r1, #31
10011d70:	d412      	bmi.n	10011d98 <_realloc_r+0x84>
10011d72:	f854 3c08 	ldr.w	r3, [r4, #-8]
10011d76:	eba9 0b03 	sub.w	fp, r9, r3
10011d7a:	f8db 3004 	ldr.w	r3, [fp, #4]
10011d7e:	f023 0203 	bic.w	r2, r3, #3
10011d82:	4410      	add	r0, r2
10011d84:	eb00 0a07 	add.w	sl, r0, r7
10011d88:	4555      	cmp	r5, sl
10011d8a:	f340 80f6 	ble.w	10011f7a <_realloc_r+0x266>
10011d8e:	eb07 0a02 	add.w	sl, r7, r2
10011d92:	4555      	cmp	r5, sl
10011d94:	f340 80cc 	ble.w	10011f30 <_realloc_r+0x21c>
10011d98:	4631      	mov	r1, r6
10011d9a:	4640      	mov	r0, r8
10011d9c:	f002 f8b6 	bl	10013f0c <_malloc_r>
10011da0:	4606      	mov	r6, r0
10011da2:	2800      	cmp	r0, #0
10011da4:	f000 8120 	beq.w	10011fe8 <_realloc_r+0x2d4>
10011da8:	f854 3c04 	ldr.w	r3, [r4, #-4]
10011dac:	f023 0301 	bic.w	r3, r3, #1
10011db0:	444b      	add	r3, r9
10011db2:	f1a0 0208 	sub.w	r2, r0, #8
10011db6:	4293      	cmp	r3, r2
10011db8:	f000 80b4 	beq.w	10011f24 <_realloc_r+0x210>
10011dbc:	1f3a      	subs	r2, r7, #4
10011dbe:	2a24      	cmp	r2, #36	@ 0x24
10011dc0:	f200 80d7 	bhi.w	10011f72 <_realloc_r+0x25e>
10011dc4:	2a13      	cmp	r2, #19
10011dc6:	f200 80a2 	bhi.w	10011f0e <_realloc_r+0x1fa>
10011dca:	4603      	mov	r3, r0
10011dcc:	4622      	mov	r2, r4
10011dce:	6811      	ldr	r1, [r2, #0]
10011dd0:	6019      	str	r1, [r3, #0]
10011dd2:	6851      	ldr	r1, [r2, #4]
10011dd4:	6059      	str	r1, [r3, #4]
10011dd6:	6892      	ldr	r2, [r2, #8]
10011dd8:	609a      	str	r2, [r3, #8]
10011dda:	4621      	mov	r1, r4
10011ddc:	4640      	mov	r0, r8
10011dde:	f7ff fcfd 	bl	100117dc <_free_r>
10011de2:	4640      	mov	r0, r8
10011de4:	f000 f9e2 	bl	100121ac <__malloc_unlock>
10011de8:	4630      	mov	r0, r6
10011dea:	e8bd 8ff8 	ldmia.w	sp!, {r3, r4, r5, r6, r7, r8, r9, sl, fp, pc}
10011dee:	f035 0507 	bics.w	r5, r5, #7
10011df2:	d5a4      	bpl.n	10011d3e <_realloc_r+0x2a>
10011df4:	230c      	movs	r3, #12
10011df6:	f8c8 3000 	str.w	r3, [r8]
10011dfa:	2600      	movs	r6, #0
10011dfc:	e018      	b.n	10011e30 <_realloc_r+0x11c>
10011dfe:	461f      	mov	r7, r3
10011e00:	e9dc 2302 	ldrd	r2, r3, [ip, #8]
10011e04:	60d3      	str	r3, [r2, #12]
10011e06:	609a      	str	r2, [r3, #8]
10011e08:	f8d9 3004 	ldr.w	r3, [r9, #4]
10011e0c:	1b7a      	subs	r2, r7, r5
10011e0e:	2a0f      	cmp	r2, #15
10011e10:	f003 0301 	and.w	r3, r3, #1
10011e14:	eb09 0007 	add.w	r0, r9, r7
10011e18:	d81d      	bhi.n	10011e56 <_realloc_r+0x142>
10011e1a:	433b      	orrs	r3, r7
10011e1c:	f8c9 3004 	str.w	r3, [r9, #4]
10011e20:	6843      	ldr	r3, [r0, #4]
10011e22:	f043 0301 	orr.w	r3, r3, #1
10011e26:	6043      	str	r3, [r0, #4]
10011e28:	4640      	mov	r0, r8
10011e2a:	f000 f9bf 	bl	100121ac <__malloc_unlock>
10011e2e:	4626      	mov	r6, r4
10011e30:	4630      	mov	r0, r6
10011e32:	e8bd 8ff8 	ldmia.w	sp!, {r3, r4, r5, r6, r7, r8, r9, sl, fp, pc}
10011e36:	07c9      	lsls	r1, r1, #31
10011e38:	d4ae      	bmi.n	10011d98 <_realloc_r+0x84>
10011e3a:	f854 3c08 	ldr.w	r3, [r4, #-8]
10011e3e:	eba9 0b03 	sub.w	fp, r9, r3
10011e42:	f8db 3004 	ldr.w	r3, [fp, #4]
10011e46:	f023 0203 	bic.w	r2, r3, #3
10011e4a:	e7a0      	b.n	10011d8e <_realloc_r+0x7a>
10011e4c:	e8bd 4ff8 	ldmia.w	sp!, {r3, r4, r5, r6, r7, r8, r9, sl, fp, lr}
10011e50:	4611      	mov	r1, r2
10011e52:	f002 b85b 	b.w	10013f0c <_malloc_r>
10011e56:	eb09 0105 	add.w	r1, r9, r5
10011e5a:	432b      	orrs	r3, r5
10011e5c:	f042 0201 	orr.w	r2, r2, #1
10011e60:	f8c9 3004 	str.w	r3, [r9, #4]
10011e64:	604a      	str	r2, [r1, #4]
10011e66:	6843      	ldr	r3, [r0, #4]
10011e68:	f043 0301 	orr.w	r3, r3, #1
10011e6c:	6043      	str	r3, [r0, #4]
10011e6e:	3108      	adds	r1, #8
10011e70:	4640      	mov	r0, r8
10011e72:	f7ff fcb3 	bl	100117dc <_free_r>
10011e76:	e7d7      	b.n	10011e28 <_realloc_r+0x114>
10011e78:	f020 0003 	bic.w	r0, r0, #3
10011e7c:	19c2      	adds	r2, r0, r7
10011e7e:	f105 0c10 	add.w	ip, r5, #16
10011e82:	4562      	cmp	r2, ip
10011e84:	f280 8091 	bge.w	10011faa <_realloc_r+0x296>
10011e88:	07ca      	lsls	r2, r1, #31
10011e8a:	d485      	bmi.n	10011d98 <_realloc_r+0x84>
10011e8c:	f854 2c08 	ldr.w	r2, [r4, #-8]
10011e90:	eba9 0b02 	sub.w	fp, r9, r2
10011e94:	f8db 2004 	ldr.w	r2, [fp, #4]
10011e98:	f022 0203 	bic.w	r2, r2, #3
10011e9c:	4410      	add	r0, r2
10011e9e:	eb00 0a07 	add.w	sl, r0, r7
10011ea2:	45d4      	cmp	ip, sl
10011ea4:	f73f af73 	bgt.w	10011d8e <_realloc_r+0x7a>
10011ea8:	465e      	mov	r6, fp
10011eaa:	f8db 100c 	ldr.w	r1, [fp, #12]
10011eae:	f856 0f08 	ldr.w	r0, [r6, #8]!
10011eb2:	1f3a      	subs	r2, r7, #4
10011eb4:	2a24      	cmp	r2, #36	@ 0x24
10011eb6:	60c1      	str	r1, [r0, #12]
10011eb8:	6088      	str	r0, [r1, #8]
10011eba:	f200 80ae 	bhi.w	1001201a <_realloc_r+0x306>
10011ebe:	2a13      	cmp	r2, #19
10011ec0:	f240 80a9 	bls.w	10012016 <_realloc_r+0x302>
10011ec4:	6821      	ldr	r1, [r4, #0]
10011ec6:	f8cb 1008 	str.w	r1, [fp, #8]
10011eca:	6861      	ldr	r1, [r4, #4]
10011ecc:	f8cb 100c 	str.w	r1, [fp, #12]
10011ed0:	2a1b      	cmp	r2, #27
10011ed2:	f200 80a8 	bhi.w	10012026 <_realloc_r+0x312>
10011ed6:	3408      	adds	r4, #8
10011ed8:	f10b 0210 	add.w	r2, fp, #16
10011edc:	6821      	ldr	r1, [r4, #0]
10011ede:	6011      	str	r1, [r2, #0]
10011ee0:	6861      	ldr	r1, [r4, #4]
10011ee2:	6051      	str	r1, [r2, #4]
10011ee4:	68a1      	ldr	r1, [r4, #8]
10011ee6:	6091      	str	r1, [r2, #8]
10011ee8:	eb0b 0105 	add.w	r1, fp, r5
10011eec:	ebaa 0205 	sub.w	r2, sl, r5
10011ef0:	f042 0201 	orr.w	r2, r2, #1
10011ef4:	6099      	str	r1, [r3, #8]
10011ef6:	604a      	str	r2, [r1, #4]
10011ef8:	f8db 3004 	ldr.w	r3, [fp, #4]
10011efc:	f003 0301 	and.w	r3, r3, #1
10011f00:	432b      	orrs	r3, r5
10011f02:	4640      	mov	r0, r8
10011f04:	f8cb 3004 	str.w	r3, [fp, #4]
10011f08:	f000 f950 	bl	100121ac <__malloc_unlock>
10011f0c:	e790      	b.n	10011e30 <_realloc_r+0x11c>
10011f0e:	6823      	ldr	r3, [r4, #0]
10011f10:	6003      	str	r3, [r0, #0]
10011f12:	6863      	ldr	r3, [r4, #4]
10011f14:	6043      	str	r3, [r0, #4]
10011f16:	2a1b      	cmp	r2, #27
10011f18:	d83c      	bhi.n	10011f94 <_realloc_r+0x280>
10011f1a:	f104 0208 	add.w	r2, r4, #8
10011f1e:	f100 0308 	add.w	r3, r0, #8
10011f22:	e754      	b.n	10011dce <_realloc_r+0xba>
10011f24:	f850 3c04 	ldr.w	r3, [r0, #-4]
10011f28:	f023 0303 	bic.w	r3, r3, #3
10011f2c:	441f      	add	r7, r3
10011f2e:	e76b      	b.n	10011e08 <_realloc_r+0xf4>
10011f30:	1f3a      	subs	r2, r7, #4
10011f32:	465e      	mov	r6, fp
10011f34:	f8db 300c 	ldr.w	r3, [fp, #12]
10011f38:	f856 1f08 	ldr.w	r1, [r6, #8]!
10011f3c:	2a24      	cmp	r2, #36	@ 0x24
10011f3e:	60cb      	str	r3, [r1, #12]
10011f40:	6099      	str	r1, [r3, #8]
10011f42:	d822      	bhi.n	10011f8a <_realloc_r+0x276>
10011f44:	2a13      	cmp	r2, #19
10011f46:	d91e      	bls.n	10011f86 <_realloc_r+0x272>
10011f48:	6823      	ldr	r3, [r4, #0]
10011f4a:	f8cb 3008 	str.w	r3, [fp, #8]
10011f4e:	6863      	ldr	r3, [r4, #4]
10011f50:	f8cb 300c 	str.w	r3, [fp, #12]
10011f54:	2a1b      	cmp	r2, #27
10011f56:	d83b      	bhi.n	10011fd0 <_realloc_r+0x2bc>
10011f58:	3408      	adds	r4, #8
10011f5a:	f10b 0310 	add.w	r3, fp, #16
10011f5e:	6822      	ldr	r2, [r4, #0]
10011f60:	601a      	str	r2, [r3, #0]
10011f62:	6862      	ldr	r2, [r4, #4]
10011f64:	605a      	str	r2, [r3, #4]
10011f66:	68a2      	ldr	r2, [r4, #8]
10011f68:	609a      	str	r2, [r3, #8]
10011f6a:	4634      	mov	r4, r6
10011f6c:	4657      	mov	r7, sl
10011f6e:	46d9      	mov	r9, fp
10011f70:	e74a      	b.n	10011e08 <_realloc_r+0xf4>
10011f72:	4621      	mov	r1, r4
10011f74:	f7ff fb50 	bl	10011618 <memmove>
10011f78:	e72f      	b.n	10011dda <_realloc_r+0xc6>
10011f7a:	e9dc 1302 	ldrd	r1, r3, [ip, #8]
10011f7e:	1f3a      	subs	r2, r7, #4
10011f80:	60cb      	str	r3, [r1, #12]
10011f82:	6099      	str	r1, [r3, #8]
10011f84:	e7d5      	b.n	10011f32 <_realloc_r+0x21e>
10011f86:	4633      	mov	r3, r6
10011f88:	e7e9      	b.n	10011f5e <_realloc_r+0x24a>
10011f8a:	4621      	mov	r1, r4
10011f8c:	4630      	mov	r0, r6
10011f8e:	f7ff fb43 	bl	10011618 <memmove>
10011f92:	e7ea      	b.n	10011f6a <_realloc_r+0x256>
10011f94:	68a3      	ldr	r3, [r4, #8]
10011f96:	6083      	str	r3, [r0, #8]
10011f98:	68e3      	ldr	r3, [r4, #12]
10011f9a:	60c3      	str	r3, [r0, #12]
10011f9c:	2a24      	cmp	r2, #36	@ 0x24
10011f9e:	d027      	beq.n	10011ff0 <_realloc_r+0x2dc>
10011fa0:	f104 0210 	add.w	r2, r4, #16
10011fa4:	f100 0310 	add.w	r3, r0, #16
10011fa8:	e711      	b.n	10011dce <_realloc_r+0xba>
10011faa:	eb09 0105 	add.w	r1, r9, r5
10011fae:	6099      	str	r1, [r3, #8]
10011fb0:	1b53      	subs	r3, r2, r5
10011fb2:	f043 0301 	orr.w	r3, r3, #1
10011fb6:	604b      	str	r3, [r1, #4]
10011fb8:	f854 3c04 	ldr.w	r3, [r4, #-4]
10011fbc:	f003 0301 	and.w	r3, r3, #1
10011fc0:	432b      	orrs	r3, r5
10011fc2:	4640      	mov	r0, r8
10011fc4:	f844 3c04 	str.w	r3, [r4, #-4]
10011fc8:	f000 f8f0 	bl	100121ac <__malloc_unlock>
10011fcc:	4626      	mov	r6, r4
10011fce:	e72f      	b.n	10011e30 <_realloc_r+0x11c>
10011fd0:	68a3      	ldr	r3, [r4, #8]
10011fd2:	f8cb 3010 	str.w	r3, [fp, #16]
10011fd6:	68e3      	ldr	r3, [r4, #12]
10011fd8:	f8cb 3014 	str.w	r3, [fp, #20]
10011fdc:	2a24      	cmp	r2, #36	@ 0x24
10011fde:	d010      	beq.n	10012002 <_realloc_r+0x2ee>
10011fe0:	3410      	adds	r4, #16
10011fe2:	f10b 0318 	add.w	r3, fp, #24
10011fe6:	e7ba      	b.n	10011f5e <_realloc_r+0x24a>
10011fe8:	4640      	mov	r0, r8
10011fea:	f000 f8df 	bl	100121ac <__malloc_unlock>
10011fee:	e704      	b.n	10011dfa <_realloc_r+0xe6>
10011ff0:	6923      	ldr	r3, [r4, #16]
10011ff2:	6103      	str	r3, [r0, #16]
10011ff4:	6961      	ldr	r1, [r4, #20]
10011ff6:	6141      	str	r1, [r0, #20]
10011ff8:	f104 0218 	add.w	r2, r4, #24
10011ffc:	f100 0318 	add.w	r3, r0, #24
10012000:	e6e5      	b.n	10011dce <_realloc_r+0xba>
10012002:	6923      	ldr	r3, [r4, #16]
10012004:	f8cb 3018 	str.w	r3, [fp, #24]
10012008:	6963      	ldr	r3, [r4, #20]
1001200a:	f8cb 301c 	str.w	r3, [fp, #28]
1001200e:	3418      	adds	r4, #24
10012010:	f10b 0320 	add.w	r3, fp, #32
10012014:	e7a3      	b.n	10011f5e <_realloc_r+0x24a>
10012016:	4632      	mov	r2, r6
10012018:	e760      	b.n	10011edc <_realloc_r+0x1c8>
1001201a:	4621      	mov	r1, r4
1001201c:	4630      	mov	r0, r6
1001201e:	f7ff fafb 	bl	10011618 <memmove>
10012022:	4b07      	ldr	r3, [pc, #28]	@ (10012040 <_realloc_r+0x32c>)
10012024:	e760      	b.n	10011ee8 <_realloc_r+0x1d4>
10012026:	68a1      	ldr	r1, [r4, #8]
10012028:	f8cb 1010 	str.w	r1, [fp, #16]
1001202c:	68e1      	ldr	r1, [r4, #12]
1001202e:	f8cb 1014 	str.w	r1, [fp, #20]
10012032:	2a24      	cmp	r2, #36	@ 0x24
10012034:	d006      	beq.n	10012044 <_realloc_r+0x330>
10012036:	3410      	adds	r4, #16
10012038:	f10b 0218 	add.w	r2, fp, #24
1001203c:	e74e      	b.n	10011edc <_realloc_r+0x1c8>
1001203e:	bf00      	nop
10012040:	20000148 	.word	0x20000148
10012044:	6922      	ldr	r2, [r4, #16]
10012046:	f8cb 2018 	str.w	r2, [fp, #24]
1001204a:	6962      	ldr	r2, [r4, #20]
1001204c:	f8cb 201c 	str.w	r2, [fp, #28]
10012050:	3418      	adds	r4, #24
10012052:	f10b 0220 	add.w	r2, fp, #32
10012056:	e741      	b.n	10011edc <_realloc_r+0x1c8>

10012058 <_write_r>:
10012058:	b538      	push	{r3, r4, r5, lr}
1001205a:	460c      	mov	r4, r1
1001205c:	4d08      	ldr	r5, [pc, #32]	@ (10012080 <_write_r+0x28>)
1001205e:	4684      	mov	ip, r0
10012060:	4611      	mov	r1, r2
10012062:	4620      	mov	r0, r4
10012064:	461a      	mov	r2, r3
10012066:	2300      	movs	r3, #0
10012068:	602b      	str	r3, [r5, #0]
1001206a:	4664      	mov	r4, ip
1001206c:	f7fd fffe 	bl	1001006c <_write>
10012070:	1c43      	adds	r3, r0, #1
10012072:	d000      	beq.n	10012076 <_write_r+0x1e>
10012074:	bd38      	pop	{r3, r4, r5, pc}
10012076:	682b      	ldr	r3, [r5, #0]
10012078:	2b00      	cmp	r3, #0
1001207a:	d0fb      	beq.n	10012074 <_write_r+0x1c>
1001207c:	6023      	str	r3, [r4, #0]
1001207e:	bd38      	pop	{r3, r4, r5, pc}
10012080:	200015a8 	.word	0x200015a8

10012084 <_fstat_r>:
10012084:	b570      	push	{r4, r5, r6, lr}
10012086:	460c      	mov	r4, r1
10012088:	4d08      	ldr	r5, [pc, #32]	@ (100120ac <_fstat_r+0x28>)
1001208a:	4603      	mov	r3, r0
1001208c:	2600      	movs	r6, #0
1001208e:	4620      	mov	r0, r4
10012090:	4611      	mov	r1, r2
10012092:	461c      	mov	r4, r3
10012094:	602e      	str	r6, [r5, #0]
10012096:	f7fd ffb7 	bl	10010008 <_fstat>
1001209a:	1c43      	adds	r3, r0, #1
1001209c:	d000      	beq.n	100120a0 <_fstat_r+0x1c>
1001209e:	bd70      	pop	{r4, r5, r6, pc}
100120a0:	682b      	ldr	r3, [r5, #0]
100120a2:	2b00      	cmp	r3, #0
100120a4:	d0fb      	beq.n	1001209e <_fstat_r+0x1a>
100120a6:	6023      	str	r3, [r4, #0]
100120a8:	bd70      	pop	{r4, r5, r6, pc}
100120aa:	bf00      	nop
100120ac:	200015a8 	.word	0x200015a8

100120b0 <_fwrite_r>:
100120b0:	e92d 41f0 	stmdb	sp!, {r4, r5, r6, r7, r8, lr}
100120b4:	b086      	sub	sp, #24
100120b6:	fb02 f803 	mul.w	r8, r2, r3
100120ba:	461c      	mov	r4, r3
100120bc:	ab01      	add	r3, sp, #4
100120be:	9303      	str	r3, [sp, #12]
100120c0:	2301      	movs	r3, #1
100120c2:	9e0c      	ldr	r6, [sp, #48]	@ 0x30
100120c4:	9101      	str	r1, [sp, #4]
100120c6:	4617      	mov	r7, r2
100120c8:	f8cd 8008 	str.w	r8, [sp, #8]
100120cc:	f8cd 8014 	str.w	r8, [sp, #20]
100120d0:	9304      	str	r3, [sp, #16]
100120d2:	4605      	mov	r5, r0
100120d4:	b108      	cbz	r0, 100120da <_fwrite_r+0x2a>
100120d6:	6b43      	ldr	r3, [r0, #52]	@ 0x34
100120d8:	b313      	cbz	r3, 10012120 <_fwrite_r+0x70>
100120da:	f9b6 200c 	ldrsh.w	r2, [r6, #12]
100120de:	6e73      	ldr	r3, [r6, #100]	@ 0x64
100120e0:	0491      	lsls	r1, r2, #18
100120e2:	d405      	bmi.n	100120f0 <_fwrite_r+0x40>
100120e4:	f442 5200 	orr.w	r2, r2, #8192	@ 0x2000
100120e8:	f423 5300 	bic.w	r3, r3, #8192	@ 0x2000
100120ec:	81b2      	strh	r2, [r6, #12]
100120ee:	6673      	str	r3, [r6, #100]	@ 0x64
100120f0:	049b      	lsls	r3, r3, #18
100120f2:	d503      	bpl.n	100120fc <_fwrite_r+0x4c>
100120f4:	2000      	movs	r0, #0
100120f6:	b006      	add	sp, #24
100120f8:	e8bd 81f0 	ldmia.w	sp!, {r4, r5, r6, r7, r8, pc}
100120fc:	4631      	mov	r1, r6
100120fe:	4628      	mov	r0, r5
10012100:	aa03      	add	r2, sp, #12
10012102:	f000 f9a5 	bl	10012450 <__sfvwrite_r>
10012106:	b138      	cbz	r0, 10012118 <_fwrite_r+0x68>
10012108:	9b05      	ldr	r3, [sp, #20]
1001210a:	eba8 0803 	sub.w	r8, r8, r3
1001210e:	fbb8 f0f7 	udiv	r0, r8, r7
10012112:	b006      	add	sp, #24
10012114:	e8bd 81f0 	ldmia.w	sp!, {r4, r5, r6, r7, r8, pc}
10012118:	4620      	mov	r0, r4
1001211a:	b006      	add	sp, #24
1001211c:	e8bd 81f0 	ldmia.w	sp!, {r4, r5, r6, r7, r8, pc}
10012120:	f000 f930 	bl	10012384 <__sinit>
10012124:	e7d9      	b.n	100120da <_fwrite_r+0x2a>
10012126:	bf00      	nop

10012128 <fwrite>:
10012128:	e92d 41f0 	stmdb	sp!, {r4, r5, r6, r7, r8, lr}
1001212c:	4c1d      	ldr	r4, [pc, #116]	@ (100121a4 <fwrite+0x7c>)
1001212e:	b086      	sub	sp, #24
10012130:	f8d4 8000 	ldr.w	r8, [r4]
10012134:	9001      	str	r0, [sp, #4]
10012136:	461c      	mov	r4, r3
10012138:	ab01      	add	r3, sp, #4
1001213a:	fb02 f701 	mul.w	r7, r2, r1
1001213e:	9303      	str	r3, [sp, #12]
10012140:	2301      	movs	r3, #1
10012142:	460e      	mov	r6, r1
10012144:	4615      	mov	r5, r2
10012146:	9702      	str	r7, [sp, #8]
10012148:	9705      	str	r7, [sp, #20]
1001214a:	9304      	str	r3, [sp, #16]
1001214c:	f1b8 0f00 	cmp.w	r8, #0
10012150:	d002      	beq.n	10012158 <fwrite+0x30>
10012152:	f8d8 3034 	ldr.w	r3, [r8, #52]	@ 0x34
10012156:	b30b      	cbz	r3, 1001219c <fwrite+0x74>
10012158:	f9b4 200c 	ldrsh.w	r2, [r4, #12]
1001215c:	6e63      	ldr	r3, [r4, #100]	@ 0x64
1001215e:	0491      	lsls	r1, r2, #18
10012160:	d405      	bmi.n	1001216e <fwrite+0x46>
10012162:	f442 5200 	orr.w	r2, r2, #8192	@ 0x2000
10012166:	f423 5300 	bic.w	r3, r3, #8192	@ 0x2000
1001216a:	81a2      	strh	r2, [r4, #12]
1001216c:	6663      	str	r3, [r4, #100]	@ 0x64
1001216e:	049b      	lsls	r3, r3, #18
10012170:	d503      	bpl.n	1001217a <fwrite+0x52>
10012172:	2000      	movs	r0, #0
10012174:	b006      	add	sp, #24
10012176:	e8bd 81f0 	ldmia.w	sp!, {r4, r5, r6, r7, r8, pc}
1001217a:	4621      	mov	r1, r4
1001217c:	4640      	mov	r0, r8
1001217e:	aa03      	add	r2, sp, #12
10012180:	f000 f966 	bl	10012450 <__sfvwrite_r>
10012184:	b130      	cbz	r0, 10012194 <fwrite+0x6c>
10012186:	9b05      	ldr	r3, [sp, #20]
10012188:	1aff      	subs	r7, r7, r3
1001218a:	fbb7 f0f6 	udiv	r0, r7, r6
1001218e:	b006      	add	sp, #24
10012190:	e8bd 81f0 	ldmia.w	sp!, {r4, r5, r6, r7, r8, pc}
10012194:	4628      	mov	r0, r5
10012196:	b006      	add	sp, #24
10012198:	e8bd 81f0 	ldmia.w	sp!, {r4, r5, r6, r7, r8, pc}
1001219c:	4640      	mov	r0, r8
1001219e:	f000 f8f1 	bl	10012384 <__sinit>
100121a2:	e7d9      	b.n	10012158 <fwrite+0x30>
100121a4:	20000010 	.word	0x20000010

100121a8 <__malloc_lock>:
100121a8:	4770      	bx	lr
100121aa:	bf00      	nop

100121ac <__malloc_unlock>:
100121ac:	4770      	bx	lr
100121ae:	bf00      	nop

100121b0 <__fp_lock>:
100121b0:	2000      	movs	r0, #0
100121b2:	4770      	bx	lr

100121b4 <stdio_exit_handler>:
100121b4:	4a02      	ldr	r2, [pc, #8]	@ (100121c0 <stdio_exit_handler+0xc>)
100121b6:	4903      	ldr	r1, [pc, #12]	@ (100121c4 <stdio_exit_handler+0x10>)
100121b8:	4803      	ldr	r0, [pc, #12]	@ (100121c8 <stdio_exit_handler+0x14>)
100121ba:	f000 bb27 	b.w	1001280c <_fwalk_sglue>
100121be:	bf00      	nop
100121c0:	20000138 	.word	0x20000138
100121c4:	10011a31 	.word	0x10011a31
100121c8:	20000018 	.word	0x20000018

100121cc <cleanup_stdio>:
100121cc:	4b0c      	ldr	r3, [pc, #48]	@ (10012200 <cleanup_stdio+0x34>)
100121ce:	6841      	ldr	r1, [r0, #4]
100121d0:	4299      	cmp	r1, r3
100121d2:	b510      	push	{r4, lr}
100121d4:	4604      	mov	r4, r0
100121d6:	d001      	beq.n	100121dc <cleanup_stdio+0x10>
100121d8:	f7ff fc2a 	bl	10011a30 <_fclose_r>
100121dc:	68a1      	ldr	r1, [r4, #8]
100121de:	4b09      	ldr	r3, [pc, #36]	@ (10012204 <cleanup_stdio+0x38>)
100121e0:	4299      	cmp	r1, r3
100121e2:	d002      	beq.n	100121ea <cleanup_stdio+0x1e>
100121e4:	4620      	mov	r0, r4
100121e6:	f7ff fc23 	bl	10011a30 <_fclose_r>
100121ea:	68e1      	ldr	r1, [r4, #12]
100121ec:	4b06      	ldr	r3, [pc, #24]	@ (10012208 <cleanup_stdio+0x3c>)
100121ee:	4299      	cmp	r1, r3
100121f0:	d004      	beq.n	100121fc <cleanup_stdio+0x30>
100121f2:	4620      	mov	r0, r4
100121f4:	e8bd 4010 	ldmia.w	sp!, {r4, lr}
100121f8:	f7ff bc1a 	b.w	10011a30 <_fclose_r>
100121fc:	bd10      	pop	{r4, pc}
100121fe:	bf00      	nop
10012200:	20001434 	.word	0x20001434
10012204:	2000149c 	.word	0x2000149c
10012208:	20001504 	.word	0x20001504

1001220c <__fp_unlock>:
1001220c:	2000      	movs	r0, #0
1001220e:	4770      	bx	lr

10012210 <global_stdio_init.part.0>:
10012210:	e92d 43f8 	stmdb	sp!, {r3, r4, r5, r6, r7, r8, r9, lr}
10012214:	4c2a      	ldr	r4, [pc, #168]	@ (100122c0 <global_stdio_init.part.0+0xb0>)
10012216:	492b      	ldr	r1, [pc, #172]	@ (100122c4 <global_stdio_init.part.0+0xb4>)
10012218:	f8df 90ac 	ldr.w	r9, [pc, #172]	@ 100122c8 <global_stdio_init.part.0+0xb8>
1001221c:	f8df 80ac 	ldr.w	r8, [pc, #172]	@ 100122cc <global_stdio_init.part.0+0xbc>
10012220:	4f2b      	ldr	r7, [pc, #172]	@ (100122d0 <global_stdio_init.part.0+0xc0>)
10012222:	f8c4 1138 	str.w	r1, [r4, #312]	@ 0x138
10012226:	2500      	movs	r5, #0
10012228:	2304      	movs	r3, #4
1001222a:	2208      	movs	r2, #8
1001222c:	4629      	mov	r1, r5
1001222e:	f104 005c 	add.w	r0, r4, #92	@ 0x5c
10012232:	4e28      	ldr	r6, [pc, #160]	@ (100122d4 <global_stdio_init.part.0+0xc4>)
10012234:	60e3      	str	r3, [r4, #12]
10012236:	e9c4 5500 	strd	r5, r5, [r4]
1001223a:	e9c4 5504 	strd	r5, r5, [r4, #16]
1001223e:	60a5      	str	r5, [r4, #8]
10012240:	6665      	str	r5, [r4, #100]	@ 0x64
10012242:	61a5      	str	r5, [r4, #24]
10012244:	f7ff f8c8 	bl	100113d8 <memset>
10012248:	4b23      	ldr	r3, [pc, #140]	@ (100122d8 <global_stdio_init.part.0+0xc8>)
1001224a:	6763      	str	r3, [r4, #116]	@ 0x74
1001224c:	2208      	movs	r2, #8
1001224e:	4629      	mov	r1, r5
10012250:	f104 00c4 	add.w	r0, r4, #196	@ 0xc4
10012254:	e9c4 4907 	strd	r4, r9, [r4, #28]
10012258:	e9c4 8709 	strd	r8, r7, [r4, #36]	@ 0x24
1001225c:	e9c4 551a 	strd	r5, r5, [r4, #104]	@ 0x68
10012260:	e9c4 551e 	strd	r5, r5, [r4, #120]	@ 0x78
10012264:	6725      	str	r5, [r4, #112]	@ 0x70
10012266:	f8c4 50cc 	str.w	r5, [r4, #204]	@ 0xcc
1001226a:	f8c4 5080 	str.w	r5, [r4, #128]	@ 0x80
1001226e:	62e6      	str	r6, [r4, #44]	@ 0x2c
10012270:	f7ff f8b2 	bl	100113d8 <memset>
10012274:	4b19      	ldr	r3, [pc, #100]	@ (100122dc <global_stdio_init.part.0+0xcc>)
10012276:	f8c4 30dc 	str.w	r3, [r4, #220]	@ 0xdc
1001227a:	4629      	mov	r1, r5
1001227c:	f104 0368 	add.w	r3, r4, #104	@ 0x68
10012280:	2208      	movs	r2, #8
10012282:	f504 7096 	add.w	r0, r4, #300	@ 0x12c
10012286:	f8c4 3084 	str.w	r3, [r4, #132]	@ 0x84
1001228a:	e9c4 9822 	strd	r9, r8, [r4, #136]	@ 0x88
1001228e:	e9c4 7624 	strd	r7, r6, [r4, #144]	@ 0x90
10012292:	e9c4 5534 	strd	r5, r5, [r4, #208]	@ 0xd0
10012296:	e9c4 5538 	strd	r5, r5, [r4, #224]	@ 0xe0
1001229a:	f8c4 50d8 	str.w	r5, [r4, #216]	@ 0xd8
1001229e:	f8c4 5134 	str.w	r5, [r4, #308]	@ 0x134
100122a2:	f8c4 50e8 	str.w	r5, [r4, #232]	@ 0xe8
100122a6:	f7ff f897 	bl	100113d8 <memset>
100122aa:	f104 03d0 	add.w	r3, r4, #208	@ 0xd0
100122ae:	e9c4 983c 	strd	r9, r8, [r4, #240]	@ 0xf0
100122b2:	e9c4 763e 	strd	r7, r6, [r4, #248]	@ 0xf8
100122b6:	f8c4 30ec 	str.w	r3, [r4, #236]	@ 0xec
100122ba:	e8bd 83f8 	ldmia.w	sp!, {r3, r4, r5, r6, r7, r8, r9, pc}
100122be:	bf00      	nop
100122c0:	20001434 	.word	0x20001434
100122c4:	100121b5 	.word	0x100121b5
100122c8:	10011c31 	.word	0x10011c31
100122cc:	10011c59 	.word	0x10011c59
100122d0:	10011c99 	.word	0x10011c99
100122d4:	10011cbd 	.word	0x10011cbd
100122d8:	00010009 	.word	0x00010009
100122dc:	00020012 	.word	0x00020012

100122e0 <__sfp>:
100122e0:	b5f8      	push	{r3, r4, r5, r6, r7, lr}
100122e2:	4b25      	ldr	r3, [pc, #148]	@ (10012378 <__sfp+0x98>)
100122e4:	f8d3 3138 	ldr.w	r3, [r3, #312]	@ 0x138
100122e8:	4606      	mov	r6, r0
100122ea:	2b00      	cmp	r3, #0
100122ec:	d03c      	beq.n	10012368 <__sfp+0x88>
100122ee:	4f23      	ldr	r7, [pc, #140]	@ (1001237c <__sfp+0x9c>)
100122f0:	e9d7 3401 	ldrd	r3, r4, [r7, #4]
100122f4:	3b01      	subs	r3, #1
100122f6:	d504      	bpl.n	10012302 <__sfp+0x22>
100122f8:	e01d      	b.n	10012336 <__sfp+0x56>
100122fa:	1c5a      	adds	r2, r3, #1
100122fc:	f104 0468 	add.w	r4, r4, #104	@ 0x68
10012300:	d019      	beq.n	10012336 <__sfp+0x56>
10012302:	f9b4 500c 	ldrsh.w	r5, [r4, #12]
10012306:	3b01      	subs	r3, #1
10012308:	2d00      	cmp	r5, #0
1001230a:	d1f6      	bne.n	100122fa <__sfp+0x1a>
1001230c:	4b1c      	ldr	r3, [pc, #112]	@ (10012380 <__sfp+0xa0>)
1001230e:	60e3      	str	r3, [r4, #12]
10012310:	e9c4 5501 	strd	r5, r5, [r4, #4]
10012314:	e9c4 5504 	strd	r5, r5, [r4, #16]
10012318:	6665      	str	r5, [r4, #100]	@ 0x64
1001231a:	6025      	str	r5, [r4, #0]
1001231c:	61a5      	str	r5, [r4, #24]
1001231e:	2208      	movs	r2, #8
10012320:	4629      	mov	r1, r5
10012322:	f104 005c 	add.w	r0, r4, #92	@ 0x5c
10012326:	f7ff f857 	bl	100113d8 <memset>
1001232a:	e9c4 550c 	strd	r5, r5, [r4, #48]	@ 0x30
1001232e:	e9c4 5511 	strd	r5, r5, [r4, #68]	@ 0x44
10012332:	4620      	mov	r0, r4
10012334:	bdf8      	pop	{r3, r4, r5, r6, r7, pc}
10012336:	683d      	ldr	r5, [r7, #0]
10012338:	b10d      	cbz	r5, 1001233e <__sfp+0x5e>
1001233a:	462f      	mov	r7, r5
1001233c:	e7d8      	b.n	100122f0 <__sfp+0x10>
1001233e:	f44f 71d6 	mov.w	r1, #428	@ 0x1ac
10012342:	4630      	mov	r0, r6
10012344:	f001 fde2 	bl	10013f0c <_malloc_r>
10012348:	4604      	mov	r4, r0
1001234a:	b180      	cbz	r0, 1001236e <__sfp+0x8e>
1001234c:	2304      	movs	r3, #4
1001234e:	e9c0 5300 	strd	r5, r3, [r0]
10012352:	300c      	adds	r0, #12
10012354:	4629      	mov	r1, r5
10012356:	60a0      	str	r0, [r4, #8]
10012358:	f44f 72d0 	mov.w	r2, #416	@ 0x1a0
1001235c:	4625      	mov	r5, r4
1001235e:	f7ff f83b 	bl	100113d8 <memset>
10012362:	603c      	str	r4, [r7, #0]
10012364:	462f      	mov	r7, r5
10012366:	e7c3      	b.n	100122f0 <__sfp+0x10>
10012368:	f7ff ff52 	bl	10012210 <global_stdio_init.part.0>
1001236c:	e7bf      	b.n	100122ee <__sfp+0xe>
1001236e:	230c      	movs	r3, #12
10012370:	6038      	str	r0, [r7, #0]
10012372:	6033      	str	r3, [r6, #0]
10012374:	e7dd      	b.n	10012332 <__sfp+0x52>
10012376:	bf00      	nop
10012378:	20001434 	.word	0x20001434
1001237c:	20000138 	.word	0x20000138
10012380:	ffff0001 	.word	0xffff0001

10012384 <__sinit>:
10012384:	6b43      	ldr	r3, [r0, #52]	@ 0x34
10012386:	b103      	cbz	r3, 1001238a <__sinit+0x6>
10012388:	4770      	bx	lr
1001238a:	4b04      	ldr	r3, [pc, #16]	@ (1001239c <__sinit+0x18>)
1001238c:	4a04      	ldr	r2, [pc, #16]	@ (100123a0 <__sinit+0x1c>)
1001238e:	f8d3 3138 	ldr.w	r3, [r3, #312]	@ 0x138
10012392:	6342      	str	r2, [r0, #52]	@ 0x34
10012394:	2b00      	cmp	r3, #0
10012396:	d1f7      	bne.n	10012388 <__sinit+0x4>
10012398:	e73a      	b.n	10012210 <global_stdio_init.part.0>
1001239a:	bf00      	nop
1001239c:	20001434 	.word	0x20001434
100123a0:	100121cd 	.word	0x100121cd

100123a4 <__sfp_lock_acquire>:
100123a4:	4770      	bx	lr
100123a6:	bf00      	nop

100123a8 <__sfp_lock_release>:
100123a8:	4770      	bx	lr
100123aa:	bf00      	nop

100123ac <__fp_lock_all>:
100123ac:	4a02      	ldr	r2, [pc, #8]	@ (100123b8 <__fp_lock_all+0xc>)
100123ae:	4903      	ldr	r1, [pc, #12]	@ (100123bc <__fp_lock_all+0x10>)
100123b0:	2000      	movs	r0, #0
100123b2:	f000 ba2b 	b.w	1001280c <_fwalk_sglue>
100123b6:	bf00      	nop
100123b8:	20000138 	.word	0x20000138
100123bc:	100121b1 	.word	0x100121b1

100123c0 <__fp_unlock_all>:
100123c0:	4a02      	ldr	r2, [pc, #8]	@ (100123cc <__fp_unlock_all+0xc>)
100123c2:	4903      	ldr	r1, [pc, #12]	@ (100123d0 <__fp_unlock_all+0x10>)
100123c4:	2000      	movs	r0, #0
100123c6:	f000 ba21 	b.w	1001280c <_fwalk_sglue>
100123ca:	bf00      	nop
100123cc:	20000138 	.word	0x20000138
100123d0:	1001220d 	.word	0x1001220d

100123d4 <_puts_r>:
100123d4:	b570      	push	{r4, r5, r6, lr}
100123d6:	4604      	mov	r4, r0
100123d8:	b08a      	sub	sp, #40	@ 0x28
100123da:	4608      	mov	r0, r1
100123dc:	460d      	mov	r5, r1
100123de:	f7fe ff8f 	bl	10011300 <strlen>
100123e2:	4e16      	ldr	r6, [pc, #88]	@ (1001243c <_puts_r+0x68>)
100123e4:	6b62      	ldr	r2, [r4, #52]	@ 0x34
100123e6:	9007      	str	r0, [sp, #28]
100123e8:	2101      	movs	r1, #1
100123ea:	1843      	adds	r3, r0, r1
100123ec:	e9cd 6108 	strd	r6, r1, [sp, #32]
100123f0:	2002      	movs	r0, #2
100123f2:	a906      	add	r1, sp, #24
100123f4:	9103      	str	r1, [sp, #12]
100123f6:	9506      	str	r5, [sp, #24]
100123f8:	68a1      	ldr	r1, [r4, #8]
100123fa:	9305      	str	r3, [sp, #20]
100123fc:	9004      	str	r0, [sp, #16]
100123fe:	b1a2      	cbz	r2, 1001242a <_puts_r+0x56>
10012400:	f9b1 200c 	ldrsh.w	r2, [r1, #12]
10012404:	6e4b      	ldr	r3, [r1, #100]	@ 0x64
10012406:	0490      	lsls	r0, r2, #18
10012408:	d405      	bmi.n	10012416 <_puts_r+0x42>
1001240a:	f442 5200 	orr.w	r2, r2, #8192	@ 0x2000
1001240e:	f423 5300 	bic.w	r3, r3, #8192	@ 0x2000
10012412:	818a      	strh	r2, [r1, #12]
10012414:	664b      	str	r3, [r1, #100]	@ 0x64
10012416:	049b      	lsls	r3, r3, #18
10012418:	d40d      	bmi.n	10012436 <_puts_r+0x62>
1001241a:	aa03      	add	r2, sp, #12
1001241c:	4620      	mov	r0, r4
1001241e:	f000 f817 	bl	10012450 <__sfvwrite_r>
10012422:	b940      	cbnz	r0, 10012436 <_puts_r+0x62>
10012424:	200a      	movs	r0, #10
10012426:	b00a      	add	sp, #40	@ 0x28
10012428:	bd70      	pop	{r4, r5, r6, pc}
1001242a:	4620      	mov	r0, r4
1001242c:	9101      	str	r1, [sp, #4]
1001242e:	f7ff ffa9 	bl	10012384 <__sinit>
10012432:	9901      	ldr	r1, [sp, #4]
10012434:	e7e4      	b.n	10012400 <_puts_r+0x2c>
10012436:	f04f 30ff 	mov.w	r0, #4294967295	@ 0xffffffff
1001243a:	e7f4      	b.n	10012426 <_puts_r+0x52>
1001243c:	10017e64 	.word	0x10017e64

10012440 <puts>:
10012440:	4b02      	ldr	r3, [pc, #8]	@ (1001244c <puts+0xc>)
10012442:	4601      	mov	r1, r0
10012444:	6818      	ldr	r0, [r3, #0]
10012446:	f7ff bfc5 	b.w	100123d4 <_puts_r>
1001244a:	bf00      	nop
1001244c:	20000010 	.word	0x20000010

10012450 <__sfvwrite_r>:
10012450:	6893      	ldr	r3, [r2, #8]
10012452:	2b00      	cmp	r3, #0
10012454:	f000 80f6 	beq.w	10012644 <__sfvwrite_r+0x1f4>
10012458:	e92d 4ff0 	stmdb	sp!, {r4, r5, r6, r7, r8, r9, sl, fp, lr}
1001245c:	f9b1 c00c 	ldrsh.w	ip, [r1, #12]
10012460:	f01c 0f08 	tst.w	ip, #8
10012464:	b083      	sub	sp, #12
10012466:	4690      	mov	r8, r2
10012468:	4681      	mov	r9, r0
1001246a:	460c      	mov	r4, r1
1001246c:	d031      	beq.n	100124d2 <__sfvwrite_r+0x82>
1001246e:	690b      	ldr	r3, [r1, #16]
10012470:	b37b      	cbz	r3, 100124d2 <__sfvwrite_r+0x82>
10012472:	f01c 0702 	ands.w	r7, ip, #2
10012476:	f8d8 6000 	ldr.w	r6, [r8]
1001247a:	d038      	beq.n	100124ee <__sfvwrite_r+0x9e>
1001247c:	2700      	movs	r7, #0
1001247e:	f8d4 b024 	ldr.w	fp, [r4, #36]	@ 0x24
10012482:	69e1      	ldr	r1, [r4, #28]
10012484:	f8df a2bc 	ldr.w	sl, [pc, #700]	@ 10012744 <__sfvwrite_r+0x2f4>
10012488:	463d      	mov	r5, r7
1001248a:	4555      	cmp	r5, sl
1001248c:	462b      	mov	r3, r5
1001248e:	463a      	mov	r2, r7
10012490:	bf28      	it	cs
10012492:	4653      	movcs	r3, sl
10012494:	4648      	mov	r0, r9
10012496:	b1c5      	cbz	r5, 100124ca <__sfvwrite_r+0x7a>
10012498:	47d8      	blx	fp
1001249a:	2800      	cmp	r0, #0
1001249c:	f340 80c8 	ble.w	10012630 <__sfvwrite_r+0x1e0>
100124a0:	f8d8 3008 	ldr.w	r3, [r8, #8]
100124a4:	1a1b      	subs	r3, r3, r0
100124a6:	4407      	add	r7, r0
100124a8:	1a2d      	subs	r5, r5, r0
100124aa:	f8c8 3008 	str.w	r3, [r8, #8]
100124ae:	2b00      	cmp	r3, #0
100124b0:	f000 80b4 	beq.w	1001261c <__sfvwrite_r+0x1cc>
100124b4:	4555      	cmp	r5, sl
100124b6:	462b      	mov	r3, r5
100124b8:	f8d4 b024 	ldr.w	fp, [r4, #36]	@ 0x24
100124bc:	69e1      	ldr	r1, [r4, #28]
100124be:	bf28      	it	cs
100124c0:	4653      	movcs	r3, sl
100124c2:	463a      	mov	r2, r7
100124c4:	4648      	mov	r0, r9
100124c6:	2d00      	cmp	r5, #0
100124c8:	d1e6      	bne.n	10012498 <__sfvwrite_r+0x48>
100124ca:	e9d6 7500 	ldrd	r7, r5, [r6]
100124ce:	3608      	adds	r6, #8
100124d0:	e7db      	b.n	1001248a <__sfvwrite_r+0x3a>
100124d2:	4621      	mov	r1, r4
100124d4:	4648      	mov	r0, r9
100124d6:	f002 ff9f 	bl	10015418 <__swsetup_r>
100124da:	2800      	cmp	r0, #0
100124dc:	f040 80ad 	bne.w	1001263a <__sfvwrite_r+0x1ea>
100124e0:	f9b4 c00c 	ldrsh.w	ip, [r4, #12]
100124e4:	f8d8 6000 	ldr.w	r6, [r8]
100124e8:	f01c 0702 	ands.w	r7, ip, #2
100124ec:	d1c6      	bne.n	1001247c <__sfvwrite_r+0x2c>
100124ee:	f01c 0a01 	ands.w	sl, ip, #1
100124f2:	d163      	bne.n	100125bc <__sfvwrite_r+0x16c>
100124f4:	6823      	ldr	r3, [r4, #0]
100124f6:	68a1      	ldr	r1, [r4, #8]
100124f8:	4657      	mov	r7, sl
100124fa:	4618      	mov	r0, r3
100124fc:	468b      	mov	fp, r1
100124fe:	2f00      	cmp	r7, #0
10012500:	d058      	beq.n	100125b4 <__sfvwrite_r+0x164>
10012502:	f41c 7f00 	tst.w	ip, #512	@ 0x200
10012506:	f000 80b1 	beq.w	1001266c <__sfvwrite_r+0x21c>
1001250a:	42b9      	cmp	r1, r7
1001250c:	460a      	mov	r2, r1
1001250e:	f200 80dd 	bhi.w	100126cc <__sfvwrite_r+0x27c>
10012512:	f41c 6f90 	tst.w	ip, #1152	@ 0x480
10012516:	d02f      	beq.n	10012578 <__sfvwrite_r+0x128>
10012518:	6921      	ldr	r1, [r4, #16]
1001251a:	6962      	ldr	r2, [r4, #20]
1001251c:	1a5d      	subs	r5, r3, r1
1001251e:	eb02 0242 	add.w	r2, r2, r2, lsl #1
10012522:	eb02 72d2 	add.w	r2, r2, r2, lsr #31
10012526:	1c6b      	adds	r3, r5, #1
10012528:	1052      	asrs	r2, r2, #1
1001252a:	443b      	add	r3, r7
1001252c:	4293      	cmp	r3, r2
1001252e:	bf92      	itee	ls
10012530:	4693      	movls	fp, r2
10012532:	469b      	movhi	fp, r3
10012534:	461a      	movhi	r2, r3
10012536:	f41c 6f80 	tst.w	ip, #1024	@ 0x400
1001253a:	f000 80e6 	beq.w	1001270a <__sfvwrite_r+0x2ba>
1001253e:	4611      	mov	r1, r2
10012540:	4648      	mov	r0, r9
10012542:	f001 fce3 	bl	10013f0c <_malloc_r>
10012546:	2800      	cmp	r0, #0
10012548:	f000 80f5 	beq.w	10012736 <__sfvwrite_r+0x2e6>
1001254c:	462a      	mov	r2, r5
1001254e:	6921      	ldr	r1, [r4, #16]
10012550:	9001      	str	r0, [sp, #4]
10012552:	f7ff fac5 	bl	10011ae0 <memcpy>
10012556:	89a2      	ldrh	r2, [r4, #12]
10012558:	9b01      	ldr	r3, [sp, #4]
1001255a:	f422 6290 	bic.w	r2, r2, #1152	@ 0x480
1001255e:	f042 0280 	orr.w	r2, r2, #128	@ 0x80
10012562:	81a2      	strh	r2, [r4, #12]
10012564:	1958      	adds	r0, r3, r5
10012566:	ebab 0505 	sub.w	r5, fp, r5
1001256a:	f8c4 b014 	str.w	fp, [r4, #20]
1001256e:	6123      	str	r3, [r4, #16]
10012570:	60a5      	str	r5, [r4, #8]
10012572:	6020      	str	r0, [r4, #0]
10012574:	46bb      	mov	fp, r7
10012576:	463a      	mov	r2, r7
10012578:	4651      	mov	r1, sl
1001257a:	9201      	str	r2, [sp, #4]
1001257c:	f7ff f84c 	bl	10011618 <memmove>
10012580:	68a1      	ldr	r1, [r4, #8]
10012582:	6823      	ldr	r3, [r4, #0]
10012584:	9a01      	ldr	r2, [sp, #4]
10012586:	eba1 010b 	sub.w	r1, r1, fp
1001258a:	441a      	add	r2, r3
1001258c:	463d      	mov	r5, r7
1001258e:	60a1      	str	r1, [r4, #8]
10012590:	6022      	str	r2, [r4, #0]
10012592:	2700      	movs	r7, #0
10012594:	f8d8 3008 	ldr.w	r3, [r8, #8]
10012598:	1b5b      	subs	r3, r3, r5
1001259a:	44aa      	add	sl, r5
1001259c:	f8c8 3008 	str.w	r3, [r8, #8]
100125a0:	2b00      	cmp	r3, #0
100125a2:	d03b      	beq.n	1001261c <__sfvwrite_r+0x1cc>
100125a4:	6823      	ldr	r3, [r4, #0]
100125a6:	68a1      	ldr	r1, [r4, #8]
100125a8:	f9b4 c00c 	ldrsh.w	ip, [r4, #12]
100125ac:	4618      	mov	r0, r3
100125ae:	468b      	mov	fp, r1
100125b0:	2f00      	cmp	r7, #0
100125b2:	d1a6      	bne.n	10012502 <__sfvwrite_r+0xb2>
100125b4:	e9d6 a700 	ldrd	sl, r7, [r6]
100125b8:	3608      	adds	r6, #8
100125ba:	e79e      	b.n	100124fa <__sfvwrite_r+0xaa>
100125bc:	4638      	mov	r0, r7
100125be:	46bb      	mov	fp, r7
100125c0:	463d      	mov	r5, r7
100125c2:	2d00      	cmp	r5, #0
100125c4:	d040      	beq.n	10012648 <__sfvwrite_r+0x1f8>
100125c6:	2800      	cmp	r0, #0
100125c8:	d045      	beq.n	10012656 <__sfvwrite_r+0x206>
100125ca:	463a      	mov	r2, r7
100125cc:	e9d4 c304 	ldrd	ip, r3, [r4, #16]
100125d0:	6820      	ldr	r0, [r4, #0]
100125d2:	68a1      	ldr	r1, [r4, #8]
100125d4:	42aa      	cmp	r2, r5
100125d6:	bf28      	it	cs
100125d8:	462a      	movcs	r2, r5
100125da:	4560      	cmp	r0, ip
100125dc:	d904      	bls.n	100125e8 <__sfvwrite_r+0x198>
100125de:	eb01 0a03 	add.w	sl, r1, r3
100125e2:	4552      	cmp	r2, sl
100125e4:	f300 8082 	bgt.w	100126ec <__sfvwrite_r+0x29c>
100125e8:	4293      	cmp	r3, r2
100125ea:	dc72      	bgt.n	100126d2 <__sfvwrite_r+0x282>
100125ec:	69e1      	ldr	r1, [r4, #28]
100125ee:	f8d4 c024 	ldr.w	ip, [r4, #36]	@ 0x24
100125f2:	465a      	mov	r2, fp
100125f4:	4648      	mov	r0, r9
100125f6:	47e0      	blx	ip
100125f8:	f1b0 0a00 	subs.w	sl, r0, #0
100125fc:	dd18      	ble.n	10012630 <__sfvwrite_r+0x1e0>
100125fe:	ebb7 070a 	subs.w	r7, r7, sl
10012602:	d00f      	beq.n	10012624 <__sfvwrite_r+0x1d4>
10012604:	2001      	movs	r0, #1
10012606:	f8d8 3008 	ldr.w	r3, [r8, #8]
1001260a:	eba3 030a 	sub.w	r3, r3, sl
1001260e:	44d3      	add	fp, sl
10012610:	eba5 050a 	sub.w	r5, r5, sl
10012614:	f8c8 3008 	str.w	r3, [r8, #8]
10012618:	2b00      	cmp	r3, #0
1001261a:	d1d2      	bne.n	100125c2 <__sfvwrite_r+0x172>
1001261c:	2000      	movs	r0, #0
1001261e:	b003      	add	sp, #12
10012620:	e8bd 8ff0 	ldmia.w	sp!, {r4, r5, r6, r7, r8, r9, sl, fp, pc}
10012624:	4621      	mov	r1, r4
10012626:	4648      	mov	r0, r9
10012628:	f7fe ffbc 	bl	100115a4 <_fflush_r>
1001262c:	2800      	cmp	r0, #0
1001262e:	d0ea      	beq.n	10012606 <__sfvwrite_r+0x1b6>
10012630:	f9b4 300c 	ldrsh.w	r3, [r4, #12]
10012634:	f043 0340 	orr.w	r3, r3, #64	@ 0x40
10012638:	81a3      	strh	r3, [r4, #12]
1001263a:	f04f 30ff 	mov.w	r0, #4294967295	@ 0xffffffff
1001263e:	b003      	add	sp, #12
10012640:	e8bd 8ff0 	ldmia.w	sp!, {r4, r5, r6, r7, r8, r9, sl, fp, pc}
10012644:	2000      	movs	r0, #0
10012646:	4770      	bx	lr
10012648:	6875      	ldr	r5, [r6, #4]
1001264a:	4633      	mov	r3, r6
1001264c:	3608      	adds	r6, #8
1001264e:	2d00      	cmp	r5, #0
10012650:	d0fa      	beq.n	10012648 <__sfvwrite_r+0x1f8>
10012652:	f8d3 b000 	ldr.w	fp, [r3]
10012656:	462a      	mov	r2, r5
10012658:	210a      	movs	r1, #10
1001265a:	4658      	mov	r0, fp
1001265c:	f001 fbf0 	bl	10013e40 <memchr>
10012660:	2800      	cmp	r0, #0
10012662:	d065      	beq.n	10012730 <__sfvwrite_r+0x2e0>
10012664:	3001      	adds	r0, #1
10012666:	eba0 070b 	sub.w	r7, r0, fp
1001266a:	e7ae      	b.n	100125ca <__sfvwrite_r+0x17a>
1001266c:	6922      	ldr	r2, [r4, #16]
1001266e:	429a      	cmp	r2, r3
10012670:	d314      	bcc.n	1001269c <__sfvwrite_r+0x24c>
10012672:	6962      	ldr	r2, [r4, #20]
10012674:	42ba      	cmp	r2, r7
10012676:	d811      	bhi.n	1001269c <__sfvwrite_r+0x24c>
10012678:	f06f 4300 	mvn.w	r3, #2147483648	@ 0x80000000
1001267c:	42bb      	cmp	r3, r7
1001267e:	bf28      	it	cs
10012680:	463b      	movcs	r3, r7
10012682:	6a65      	ldr	r5, [r4, #36]	@ 0x24
10012684:	fb93 f3f2 	sdiv	r3, r3, r2
10012688:	69e1      	ldr	r1, [r4, #28]
1001268a:	fb02 f303 	mul.w	r3, r2, r3
1001268e:	4648      	mov	r0, r9
10012690:	4652      	mov	r2, sl
10012692:	47a8      	blx	r5
10012694:	1e05      	subs	r5, r0, #0
10012696:	ddcb      	ble.n	10012630 <__sfvwrite_r+0x1e0>
10012698:	1b7f      	subs	r7, r7, r5
1001269a:	e77b      	b.n	10012594 <__sfvwrite_r+0x144>
1001269c:	42b9      	cmp	r1, r7
1001269e:	bf28      	it	cs
100126a0:	4639      	movcs	r1, r7
100126a2:	460d      	mov	r5, r1
100126a4:	4618      	mov	r0, r3
100126a6:	460a      	mov	r2, r1
100126a8:	4651      	mov	r1, sl
100126aa:	f7fe ffb5 	bl	10011618 <memmove>
100126ae:	68a1      	ldr	r1, [r4, #8]
100126b0:	6823      	ldr	r3, [r4, #0]
100126b2:	1b49      	subs	r1, r1, r5
100126b4:	442b      	add	r3, r5
100126b6:	60a1      	str	r1, [r4, #8]
100126b8:	6023      	str	r3, [r4, #0]
100126ba:	2900      	cmp	r1, #0
100126bc:	d1ec      	bne.n	10012698 <__sfvwrite_r+0x248>
100126be:	4621      	mov	r1, r4
100126c0:	4648      	mov	r0, r9
100126c2:	f7fe ff6f 	bl	100115a4 <_fflush_r>
100126c6:	2800      	cmp	r0, #0
100126c8:	d0e6      	beq.n	10012698 <__sfvwrite_r+0x248>
100126ca:	e7b1      	b.n	10012630 <__sfvwrite_r+0x1e0>
100126cc:	46bb      	mov	fp, r7
100126ce:	463a      	mov	r2, r7
100126d0:	e752      	b.n	10012578 <__sfvwrite_r+0x128>
100126d2:	4659      	mov	r1, fp
100126d4:	9201      	str	r2, [sp, #4]
100126d6:	f7fe ff9f 	bl	10011618 <memmove>
100126da:	9a01      	ldr	r2, [sp, #4]
100126dc:	68a3      	ldr	r3, [r4, #8]
100126de:	1a9b      	subs	r3, r3, r2
100126e0:	60a3      	str	r3, [r4, #8]
100126e2:	6823      	ldr	r3, [r4, #0]
100126e4:	4413      	add	r3, r2
100126e6:	6023      	str	r3, [r4, #0]
100126e8:	4692      	mov	sl, r2
100126ea:	e788      	b.n	100125fe <__sfvwrite_r+0x1ae>
100126ec:	4659      	mov	r1, fp
100126ee:	4652      	mov	r2, sl
100126f0:	f7fe ff92 	bl	10011618 <memmove>
100126f4:	6823      	ldr	r3, [r4, #0]
100126f6:	4453      	add	r3, sl
100126f8:	6023      	str	r3, [r4, #0]
100126fa:	4621      	mov	r1, r4
100126fc:	4648      	mov	r0, r9
100126fe:	f7fe ff51 	bl	100115a4 <_fflush_r>
10012702:	2800      	cmp	r0, #0
10012704:	f43f af7b 	beq.w	100125fe <__sfvwrite_r+0x1ae>
10012708:	e792      	b.n	10012630 <__sfvwrite_r+0x1e0>
1001270a:	4648      	mov	r0, r9
1001270c:	f7ff fb02 	bl	10011d14 <_realloc_r>
10012710:	4603      	mov	r3, r0
10012712:	2800      	cmp	r0, #0
10012714:	f47f af26 	bne.w	10012564 <__sfvwrite_r+0x114>
10012718:	6921      	ldr	r1, [r4, #16]
1001271a:	4648      	mov	r0, r9
1001271c:	f7ff f85e 	bl	100117dc <_free_r>
10012720:	f9b4 300c 	ldrsh.w	r3, [r4, #12]
10012724:	220c      	movs	r2, #12
10012726:	f8c9 2000 	str.w	r2, [r9]
1001272a:	f023 0380 	bic.w	r3, r3, #128	@ 0x80
1001272e:	e781      	b.n	10012634 <__sfvwrite_r+0x1e4>
10012730:	1c6a      	adds	r2, r5, #1
10012732:	4617      	mov	r7, r2
10012734:	e74a      	b.n	100125cc <__sfvwrite_r+0x17c>
10012736:	220c      	movs	r2, #12
10012738:	f9b4 300c 	ldrsh.w	r3, [r4, #12]
1001273c:	f8c9 2000 	str.w	r2, [r9]
10012740:	e778      	b.n	10012634 <__sfvwrite_r+0x1e4>
10012742:	bf00      	nop
10012744:	7ffffc00 	.word	0x7ffffc00

10012748 <atexit>:
10012748:	2300      	movs	r3, #0
1001274a:	4601      	mov	r1, r0
1001274c:	461a      	mov	r2, r3
1001274e:	4618      	mov	r0, r3
10012750:	f002 bee4 	b.w	1001551c <__register_exitproc>

10012754 <_printf_r>:
10012754:	b40e      	push	{r1, r2, r3}
10012756:	b500      	push	{lr}
10012758:	b082      	sub	sp, #8
1001275a:	ab03      	add	r3, sp, #12
1001275c:	6881      	ldr	r1, [r0, #8]
1001275e:	f853 2b04 	ldr.w	r2, [r3], #4
10012762:	9301      	str	r3, [sp, #4]
10012764:	f000 f874 	bl	10012850 <_vfprintf_r>
10012768:	b002      	add	sp, #8
1001276a:	f85d eb04 	ldr.w	lr, [sp], #4
1001276e:	b003      	add	sp, #12
10012770:	4770      	bx	lr
10012772:	bf00      	nop

10012774 <printf>:
10012774:	b40f      	push	{r0, r1, r2, r3}
10012776:	b500      	push	{lr}
10012778:	4907      	ldr	r1, [pc, #28]	@ (10012798 <printf+0x24>)
1001277a:	b083      	sub	sp, #12
1001277c:	ab04      	add	r3, sp, #16
1001277e:	6808      	ldr	r0, [r1, #0]
10012780:	f853 2b04 	ldr.w	r2, [r3], #4
10012784:	6881      	ldr	r1, [r0, #8]
10012786:	9301      	str	r3, [sp, #4]
10012788:	f000 f862 	bl	10012850 <_vfprintf_r>
1001278c:	b003      	add	sp, #12
1001278e:	f85d eb04 	ldr.w	lr, [sp], #4
10012792:	b004      	add	sp, #16
10012794:	4770      	bx	lr
10012796:	bf00      	nop
10012798:	20000010 	.word	0x20000010

1001279c <_sbrk_r>:
1001279c:	b538      	push	{r3, r4, r5, lr}
1001279e:	4d07      	ldr	r5, [pc, #28]	@ (100127bc <_sbrk_r+0x20>)
100127a0:	2200      	movs	r2, #0
100127a2:	4604      	mov	r4, r0
100127a4:	4608      	mov	r0, r1
100127a6:	602a      	str	r2, [r5, #0]
100127a8:	f7fd fdaa 	bl	10010300 <_sbrk>
100127ac:	1c43      	adds	r3, r0, #1
100127ae:	d000      	beq.n	100127b2 <_sbrk_r+0x16>
100127b0:	bd38      	pop	{r3, r4, r5, pc}
100127b2:	682b      	ldr	r3, [r5, #0]
100127b4:	2b00      	cmp	r3, #0
100127b6:	d0fb      	beq.n	100127b0 <_sbrk_r+0x14>
100127b8:	6023      	str	r3, [r4, #0]
100127ba:	bd38      	pop	{r3, r4, r5, pc}
100127bc:	200015a8 	.word	0x200015a8

100127c0 <_close_r>:
100127c0:	b538      	push	{r3, r4, r5, lr}
100127c2:	4d07      	ldr	r5, [pc, #28]	@ (100127e0 <_close_r+0x20>)
100127c4:	2200      	movs	r2, #0
100127c6:	4604      	mov	r4, r0
100127c8:	4608      	mov	r0, r1
100127ca:	602a      	str	r2, [r5, #0]
100127cc:	f7fd fc10 	bl	1000fff0 <_close>
100127d0:	1c43      	adds	r3, r0, #1
100127d2:	d000      	beq.n	100127d6 <_close_r+0x16>
100127d4:	bd38      	pop	{r3, r4, r5, pc}
100127d6:	682b      	ldr	r3, [r5, #0]
100127d8:	2b00      	cmp	r3, #0
100127da:	d0fb      	beq.n	100127d4 <_close_r+0x14>
100127dc:	6023      	str	r3, [r4, #0]
100127de:	bd38      	pop	{r3, r4, r5, pc}
100127e0:	200015a8 	.word	0x200015a8

100127e4 <__libc_fini_array>:
100127e4:	b538      	push	{r3, r4, r5, lr}
100127e6:	4d07      	ldr	r5, [pc, #28]	@ (10012804 <__libc_fini_array+0x20>)
100127e8:	4c07      	ldr	r4, [pc, #28]	@ (10012808 <__libc_fini_array+0x24>)
100127ea:	1b2c      	subs	r4, r5, r4
100127ec:	10a4      	asrs	r4, r4, #2
100127ee:	d005      	beq.n	100127fc <__libc_fini_array+0x18>
100127f0:	3c01      	subs	r4, #1
100127f2:	f855 3d04 	ldr.w	r3, [r5, #-4]!
100127f6:	4798      	blx	r3
100127f8:	2c00      	cmp	r4, #0
100127fa:	d1f9      	bne.n	100127f0 <__libc_fini_array+0xc>
100127fc:	e8bd 4038 	ldmia.w	sp!, {r3, r4, r5, lr}
10012800:	f007 be70 	b.w	1001a4e4 <_fini>
10012804:	20000bc4 	.word	0x20000bc4
10012808:	20000bc0 	.word	0x20000bc0

1001280c <_fwalk_sglue>:
1001280c:	e92d 43f8 	stmdb	sp!, {r3, r4, r5, r6, r7, r8, r9, lr}
10012810:	4607      	mov	r7, r0
10012812:	4688      	mov	r8, r1
10012814:	4616      	mov	r6, r2
10012816:	f04f 0900 	mov.w	r9, #0
1001281a:	e9d6 5401 	ldrd	r5, r4, [r6, #4]
1001281e:	3d01      	subs	r5, #1
10012820:	d410      	bmi.n	10012844 <_fwalk_sglue+0x38>
10012822:	89a3      	ldrh	r3, [r4, #12]
10012824:	2b01      	cmp	r3, #1
10012826:	d908      	bls.n	1001283a <_fwalk_sglue+0x2e>
10012828:	f9b4 300e 	ldrsh.w	r3, [r4, #14]
1001282c:	3301      	adds	r3, #1
1001282e:	4621      	mov	r1, r4
10012830:	4638      	mov	r0, r7
10012832:	d002      	beq.n	1001283a <_fwalk_sglue+0x2e>
10012834:	47c0      	blx	r8
10012836:	ea49 0900 	orr.w	r9, r9, r0
1001283a:	3d01      	subs	r5, #1
1001283c:	1c6b      	adds	r3, r5, #1
1001283e:	f104 0468 	add.w	r4, r4, #104	@ 0x68
10012842:	d1ee      	bne.n	10012822 <_fwalk_sglue+0x16>
10012844:	6836      	ldr	r6, [r6, #0]
10012846:	2e00      	cmp	r6, #0
10012848:	d1e7      	bne.n	1001281a <_fwalk_sglue+0xe>
1001284a:	4648      	mov	r0, r9
1001284c:	e8bd 83f8 	ldmia.w	sp!, {r3, r4, r5, r6, r7, r8, r9, pc}

10012850 <_vfprintf_r>:
10012850:	e92d 4ff0 	stmdb	sp!, {r4, r5, r6, r7, r8, r9, sl, fp, lr}
10012854:	b0c3      	sub	sp, #268	@ 0x10c
10012856:	461c      	mov	r4, r3
10012858:	9108      	str	r1, [sp, #32]
1001285a:	4691      	mov	r9, r2
1001285c:	930d      	str	r3, [sp, #52]	@ 0x34
1001285e:	4605      	mov	r5, r0
10012860:	900c      	str	r0, [sp, #48]	@ 0x30
10012862:	f003 fc1d 	bl	100160a0 <_localeconv_r>
10012866:	6802      	ldr	r2, [r0, #0]
10012868:	9214      	str	r2, [sp, #80]	@ 0x50
1001286a:	4610      	mov	r0, r2
1001286c:	f7fe fd48 	bl	10011300 <strlen>
10012870:	9013      	str	r0, [sp, #76]	@ 0x4c
10012872:	b11d      	cbz	r5, 1001287c <_vfprintf_r+0x2c>
10012874:	6b6b      	ldr	r3, [r5, #52]	@ 0x34
10012876:	2b00      	cmp	r3, #0
10012878:	f001 801b 	beq.w	100138b2 <_vfprintf_r+0x1062>
1001287c:	9908      	ldr	r1, [sp, #32]
1001287e:	f9b1 200c 	ldrsh.w	r2, [r1, #12]
10012882:	6e4b      	ldr	r3, [r1, #100]	@ 0x64
10012884:	0490      	lsls	r0, r2, #18
10012886:	d405      	bmi.n	10012894 <_vfprintf_r+0x44>
10012888:	f442 5200 	orr.w	r2, r2, #8192	@ 0x2000
1001288c:	f423 5300 	bic.w	r3, r3, #8192	@ 0x2000
10012890:	818a      	strh	r2, [r1, #12]
10012892:	664b      	str	r3, [r1, #100]	@ 0x64
10012894:	049f      	lsls	r7, r3, #18
10012896:	f101 8143 	bmi.w	10013b20 <_vfprintf_r+0x12d0>
1001289a:	9a08      	ldr	r2, [sp, #32]
1001289c:	f9b2 300c 	ldrsh.w	r3, [r2, #12]
100128a0:	071e      	lsls	r6, r3, #28
100128a2:	f140 80dd 	bpl.w	10012a60 <_vfprintf_r+0x210>
100128a6:	6912      	ldr	r2, [r2, #16]
100128a8:	2a00      	cmp	r2, #0
100128aa:	f000 80d9 	beq.w	10012a60 <_vfprintf_r+0x210>
100128ae:	f003 031a 	and.w	r3, r3, #26
100128b2:	2b0a      	cmp	r3, #10
100128b4:	f000 80e3 	beq.w	10012a7e <_vfprintf_r+0x22e>
100128b8:	2300      	movs	r3, #0
100128ba:	e9cd 3326 	strd	r3, r3, [sp, #152]	@ 0x98
100128be:	e9cd 3315 	strd	r3, r3, [sp, #84]	@ 0x54
100128c2:	9312      	str	r3, [sp, #72]	@ 0x48
100128c4:	930a      	str	r3, [sp, #40]	@ 0x28
100128c6:	2400      	movs	r4, #0
100128c8:	2300      	movs	r3, #0
100128ca:	e9cd 3410 	strd	r3, r4, [sp, #64]	@ 0x40
100128ce:	aa32      	add	r2, sp, #200	@ 0xc8
100128d0:	9225      	str	r2, [sp, #148]	@ 0x94
100128d2:	4692      	mov	sl, r2
100128d4:	46cb      	mov	fp, r9
100128d6:	f89b 3000 	ldrb.w	r3, [fp]
100128da:	2b00      	cmp	r3, #0
100128dc:	f000 815f 	beq.w	10012b9e <_vfprintf_r+0x34e>
100128e0:	465c      	mov	r4, fp
100128e2:	e004      	b.n	100128ee <_vfprintf_r+0x9e>
100128e4:	f814 3f01 	ldrb.w	r3, [r4, #1]!
100128e8:	2b00      	cmp	r3, #0
100128ea:	f000 813c 	beq.w	10012b66 <_vfprintf_r+0x316>
100128ee:	2b25      	cmp	r3, #37	@ 0x25
100128f0:	d1f8      	bne.n	100128e4 <_vfprintf_r+0x94>
100128f2:	ebb4 050b 	subs.w	r5, r4, fp
100128f6:	f040 8139 	bne.w	10012b6c <_vfprintf_r+0x31c>
100128fa:	7823      	ldrb	r3, [r4, #0]
100128fc:	2b00      	cmp	r3, #0
100128fe:	f000 814e 	beq.w	10012b9e <_vfprintf_r+0x34e>
10012902:	f04f 0300 	mov.w	r3, #0
10012906:	f88d 3077 	strb.w	r3, [sp, #119]	@ 0x77
1001290a:	2700      	movs	r7, #0
1001290c:	7863      	ldrb	r3, [r4, #1]
1001290e:	9709      	str	r7, [sp, #36]	@ 0x24
10012910:	f104 0b01 	add.w	fp, r4, #1
10012914:	f04f 39ff 	mov.w	r9, #4294967295	@ 0xffffffff
10012918:	f10b 0b01 	add.w	fp, fp, #1
1001291c:	4698      	mov	r8, r3
1001291e:	f1a8 0320 	sub.w	r3, r8, #32
10012922:	2b58      	cmp	r3, #88	@ 0x58
10012924:	f200 8148 	bhi.w	10012bb8 <_vfprintf_r+0x368>
10012928:	e8df f013 	tbh	[pc, r3, lsl #1]
1001292c:	0146027b 	.word	0x0146027b
10012930:	02760146 	.word	0x02760146
10012934:	01460146 	.word	0x01460146
10012938:	01460146 	.word	0x01460146
1001293c:	01460146 	.word	0x01460146
10012940:	0270023e 	.word	0x0270023e
10012944:	02490146 	.word	0x02490146
10012948:	0146024e 	.word	0x0146024e
1001294c:	0059026b 	.word	0x0059026b
10012950:	00590059 	.word	0x00590059
10012954:	00590059 	.word	0x00590059
10012958:	00590059 	.word	0x00590059
1001295c:	00590059 	.word	0x00590059
10012960:	01460146 	.word	0x01460146
10012964:	01460146 	.word	0x01460146
10012968:	01460146 	.word	0x01460146
1001296c:	01460146 	.word	0x01460146
10012970:	01460146 	.word	0x01460146
10012974:	01c10068 	.word	0x01c10068
10012978:	01c10146 	.word	0x01c10146
1001297c:	01460146 	.word	0x01460146
10012980:	01460146 	.word	0x01460146
10012984:	014602a6 	.word	0x014602a6
10012988:	00b80146 	.word	0x00b80146
1001298c:	01460146 	.word	0x01460146
10012990:	01460146 	.word	0x01460146
10012994:	00c90146 	.word	0x00c90146
10012998:	01460146 	.word	0x01460146
1001299c:	0146064d 	.word	0x0146064d
100129a0:	01460146 	.word	0x01460146
100129a4:	01460146 	.word	0x01460146
100129a8:	01460146 	.word	0x01460146
100129ac:	01460146 	.word	0x01460146
100129b0:	02980146 	.word	0x02980146
100129b4:	01c1006a 	.word	0x01c1006a
100129b8:	01c101c1 	.word	0x01c101c1
100129bc:	006a0293 	.word	0x006a0293
100129c0:	01460146 	.word	0x01460146
100129c4:	01460286 	.word	0x01460286
100129c8:	00ba02e2 	.word	0x00ba02e2
100129cc:	02cc02d1 	.word	0x02cc02d1
100129d0:	02ab0146 	.word	0x02ab0146
100129d4:	00cb0146 	.word	0x00cb0146
100129d8:	01460146 	.word	0x01460146
100129dc:	066d      	.short	0x066d
100129de:	f1a8 0330 	sub.w	r3, r8, #48	@ 0x30
100129e2:	2200      	movs	r2, #0
100129e4:	f81b 8b01 	ldrb.w	r8, [fp], #1
100129e8:	eb02 0282 	add.w	r2, r2, r2, lsl #2
100129ec:	eb03 0242 	add.w	r2, r3, r2, lsl #1
100129f0:	f1a8 0330 	sub.w	r3, r8, #48	@ 0x30
100129f4:	2b09      	cmp	r3, #9
100129f6:	d9f5      	bls.n	100129e4 <_vfprintf_r+0x194>
100129f8:	9209      	str	r2, [sp, #36]	@ 0x24
100129fa:	e790      	b.n	1001291e <_vfprintf_r+0xce>
100129fc:	f047 0710 	orr.w	r7, r7, #16
10012a00:	06bd      	lsls	r5, r7, #26
10012a02:	f140 81aa 	bpl.w	10012d5a <_vfprintf_r+0x50a>
10012a06:	9b0d      	ldr	r3, [sp, #52]	@ 0x34
10012a08:	3307      	adds	r3, #7
10012a0a:	f023 0307 	bic.w	r3, r3, #7
10012a0e:	461a      	mov	r2, r3
10012a10:	6859      	ldr	r1, [r3, #4]
10012a12:	f852 3b08 	ldr.w	r3, [r2], #8
10012a16:	920d      	str	r2, [sp, #52]	@ 0x34
10012a18:	460a      	mov	r2, r1
10012a1a:	2900      	cmp	r1, #0
10012a1c:	f2c0 81af 	blt.w	10012d7e <_vfprintf_r+0x52e>
10012a20:	f1b9 0f00 	cmp.w	r9, #0
10012a24:	f89d 4077 	ldrb.w	r4, [sp, #119]	@ 0x77
10012a28:	f2c0 81b0 	blt.w	10012d8c <_vfprintf_r+0x53c>
10012a2c:	f027 0180 	bic.w	r1, r7, #128	@ 0x80
10012a30:	9106      	str	r1, [sp, #24]
10012a32:	ea53 0102 	orrs.w	r1, r3, r2
10012a36:	f040 81a8 	bne.w	10012d8a <_vfprintf_r+0x53a>
10012a3a:	2101      	movs	r1, #1
10012a3c:	f1b9 0f00 	cmp.w	r9, #0
10012a40:	f040 834b 	bne.w	100130da <_vfprintf_r+0x88a>
10012a44:	2900      	cmp	r1, #0
10012a46:	f040 84e9 	bne.w	1001341c <_vfprintf_r+0xbcc>
10012a4a:	f017 0301 	ands.w	r3, r7, #1
10012a4e:	930b      	str	r3, [sp, #44]	@ 0x2c
10012a50:	f000 8529 	beq.w	100134a6 <_vfprintf_r+0xc56>
10012a54:	2330      	movs	r3, #48	@ 0x30
10012a56:	f88d 30c7 	strb.w	r3, [sp, #199]	@ 0xc7
10012a5a:	f10d 05c7 	add.w	r5, sp, #199	@ 0xc7
10012a5e:	e06e      	b.n	10012b3e <_vfprintf_r+0x2ee>
10012a60:	9d08      	ldr	r5, [sp, #32]
10012a62:	980c      	ldr	r0, [sp, #48]	@ 0x30
10012a64:	4629      	mov	r1, r5
10012a66:	f002 fcd7 	bl	10015418 <__swsetup_r>
10012a6a:	2800      	cmp	r0, #0
10012a6c:	f041 8058 	bne.w	10013b20 <_vfprintf_r+0x12d0>
10012a70:	f9b5 300c 	ldrsh.w	r3, [r5, #12]
10012a74:	f003 031a 	and.w	r3, r3, #26
10012a78:	2b0a      	cmp	r3, #10
10012a7a:	f47f af1d 	bne.w	100128b8 <_vfprintf_r+0x68>
10012a7e:	9b08      	ldr	r3, [sp, #32]
10012a80:	f9b3 300e 	ldrsh.w	r3, [r3, #14]
10012a84:	2b00      	cmp	r3, #0
10012a86:	f6ff af17 	blt.w	100128b8 <_vfprintf_r+0x68>
10012a8a:	9908      	ldr	r1, [sp, #32]
10012a8c:	980c      	ldr	r0, [sp, #48]	@ 0x30
10012a8e:	4623      	mov	r3, r4
10012a90:	464a      	mov	r2, r9
10012a92:	b043      	add	sp, #268	@ 0x10c
10012a94:	e8bd 4ff0 	ldmia.w	sp!, {r4, r5, r6, r7, r8, r9, sl, fp, lr}
10012a98:	f001 b8fe 	b.w	10013c98 <__sbprintf>
10012a9c:	f047 0710 	orr.w	r7, r7, #16
10012aa0:	f017 0220 	ands.w	r2, r7, #32
10012aa4:	f000 814a 	beq.w	10012d3c <_vfprintf_r+0x4ec>
10012aa8:	9b0d      	ldr	r3, [sp, #52]	@ 0x34
10012aaa:	3307      	adds	r3, #7
10012aac:	f023 0307 	bic.w	r3, r3, #7
10012ab0:	4619      	mov	r1, r3
10012ab2:	685a      	ldr	r2, [r3, #4]
10012ab4:	f851 3b08 	ldr.w	r3, [r1], #8
10012ab8:	910d      	str	r1, [sp, #52]	@ 0x34
10012aba:	2100      	movs	r1, #0
10012abc:	e00f      	b.n	10012ade <_vfprintf_r+0x28e>
10012abe:	f047 0710 	orr.w	r7, r7, #16
10012ac2:	f017 0220 	ands.w	r2, r7, #32
10012ac6:	f000 812f 	beq.w	10012d28 <_vfprintf_r+0x4d8>
10012aca:	9b0d      	ldr	r3, [sp, #52]	@ 0x34
10012acc:	3307      	adds	r3, #7
10012ace:	f023 0307 	bic.w	r3, r3, #7
10012ad2:	4619      	mov	r1, r3
10012ad4:	685a      	ldr	r2, [r3, #4]
10012ad6:	f851 3b08 	ldr.w	r3, [r1], #8
10012ada:	910d      	str	r1, [sp, #52]	@ 0x34
10012adc:	2101      	movs	r1, #1
10012ade:	2400      	movs	r4, #0
10012ae0:	f1b9 0f00 	cmp.w	r9, #0
10012ae4:	f88d 4077 	strb.w	r4, [sp, #119]	@ 0x77
10012ae8:	db06      	blt.n	10012af8 <_vfprintf_r+0x2a8>
10012aea:	f027 0080 	bic.w	r0, r7, #128	@ 0x80
10012aee:	9006      	str	r0, [sp, #24]
10012af0:	ea53 0002 	orrs.w	r0, r3, r2
10012af4:	d0a2      	beq.n	10012a3c <_vfprintf_r+0x1ec>
10012af6:	9f06      	ldr	r7, [sp, #24]
10012af8:	2901      	cmp	r1, #1
10012afa:	f000 8147 	beq.w	10012d8c <_vfprintf_r+0x53c>
10012afe:	2902      	cmp	r1, #2
10012b00:	f000 82f5 	beq.w	100130ee <_vfprintf_r+0x89e>
10012b04:	ad32      	add	r5, sp, #200	@ 0xc8
10012b06:	f003 0107 	and.w	r1, r3, #7
10012b0a:	08db      	lsrs	r3, r3, #3
10012b0c:	ea43 7342 	orr.w	r3, r3, r2, lsl #29
10012b10:	08d2      	lsrs	r2, r2, #3
10012b12:	3130      	adds	r1, #48	@ 0x30
10012b14:	ea53 0602 	orrs.w	r6, r3, r2
10012b18:	4628      	mov	r0, r5
10012b1a:	f805 1d01 	strb.w	r1, [r5, #-1]!
10012b1e:	d1f2      	bne.n	10012b06 <_vfprintf_r+0x2b6>
10012b20:	07fb      	lsls	r3, r7, #31
10012b22:	f140 82f2 	bpl.w	1001310a <_vfprintf_r+0x8ba>
10012b26:	2930      	cmp	r1, #48	@ 0x30
10012b28:	f000 82ef 	beq.w	1001310a <_vfprintf_r+0x8ba>
10012b2c:	2330      	movs	r3, #48	@ 0x30
10012b2e:	3802      	subs	r0, #2
10012b30:	f805 3c01 	strb.w	r3, [r5, #-1]
10012b34:	ab32      	add	r3, sp, #200	@ 0xc8
10012b36:	1a1b      	subs	r3, r3, r0
10012b38:	9706      	str	r7, [sp, #24]
10012b3a:	930b      	str	r3, [sp, #44]	@ 0x2c
10012b3c:	4605      	mov	r5, r0
10012b3e:	9b0b      	ldr	r3, [sp, #44]	@ 0x2c
10012b40:	454b      	cmp	r3, r9
10012b42:	bfb8      	it	lt
10012b44:	464b      	movlt	r3, r9
10012b46:	9307      	str	r3, [sp, #28]
10012b48:	2300      	movs	r3, #0
10012b4a:	930f      	str	r3, [sp, #60]	@ 0x3c
10012b4c:	b114      	cbz	r4, 10012b54 <_vfprintf_r+0x304>
10012b4e:	9b07      	ldr	r3, [sp, #28]
10012b50:	3301      	adds	r3, #1
10012b52:	9307      	str	r3, [sp, #28]
10012b54:	9b06      	ldr	r3, [sp, #24]
10012b56:	f013 0302 	ands.w	r3, r3, #2
10012b5a:	d03f      	beq.n	10012bdc <_vfprintf_r+0x38c>
10012b5c:	9b07      	ldr	r3, [sp, #28]
10012b5e:	3302      	adds	r3, #2
10012b60:	9307      	str	r3, [sp, #28]
10012b62:	2302      	movs	r3, #2
10012b64:	e03a      	b.n	10012bdc <_vfprintf_r+0x38c>
10012b66:	ebb4 050b 	subs.w	r5, r4, fp
10012b6a:	d018      	beq.n	10012b9e <_vfprintf_r+0x34e>
10012b6c:	9b27      	ldr	r3, [sp, #156]	@ 0x9c
10012b6e:	442b      	add	r3, r5
10012b70:	9327      	str	r3, [sp, #156]	@ 0x9c
10012b72:	9b26      	ldr	r3, [sp, #152]	@ 0x98
10012b74:	3301      	adds	r3, #1
10012b76:	2b07      	cmp	r3, #7
10012b78:	e9ca b500 	strd	fp, r5, [sl]
10012b7c:	9326      	str	r3, [sp, #152]	@ 0x98
10012b7e:	dc05      	bgt.n	10012b8c <_vfprintf_r+0x33c>
10012b80:	f10a 0a08 	add.w	sl, sl, #8
10012b84:	9b0a      	ldr	r3, [sp, #40]	@ 0x28
10012b86:	442b      	add	r3, r5
10012b88:	930a      	str	r3, [sp, #40]	@ 0x28
10012b8a:	e6b6      	b.n	100128fa <_vfprintf_r+0xaa>
10012b8c:	9908      	ldr	r1, [sp, #32]
10012b8e:	980c      	ldr	r0, [sp, #48]	@ 0x30
10012b90:	aa25      	add	r2, sp, #148	@ 0x94
10012b92:	f002 fd07 	bl	100155a4 <__sprint_r>
10012b96:	b930      	cbnz	r0, 10012ba6 <_vfprintf_r+0x356>
10012b98:	f10d 0ac8 	add.w	sl, sp, #200	@ 0xc8
10012b9c:	e7f2      	b.n	10012b84 <_vfprintf_r+0x334>
10012b9e:	9b27      	ldr	r3, [sp, #156]	@ 0x9c
10012ba0:	2b00      	cmp	r3, #0
10012ba2:	f040 870d 	bne.w	100139c0 <_vfprintf_r+0x1170>
10012ba6:	9b08      	ldr	r3, [sp, #32]
10012ba8:	899b      	ldrh	r3, [r3, #12]
10012baa:	065b      	lsls	r3, r3, #25
10012bac:	f100 87b8 	bmi.w	10013b20 <_vfprintf_r+0x12d0>
10012bb0:	980a      	ldr	r0, [sp, #40]	@ 0x28
10012bb2:	b043      	add	sp, #268	@ 0x10c
10012bb4:	e8bd 8ff0 	ldmia.w	sp!, {r4, r5, r6, r7, r8, r9, sl, fp, pc}
10012bb8:	f1b8 0f00 	cmp.w	r8, #0
10012bbc:	d0ef      	beq.n	10012b9e <_vfprintf_r+0x34e>
10012bbe:	2300      	movs	r3, #0
10012bc0:	f88d 3077 	strb.w	r3, [sp, #119]	@ 0x77
10012bc4:	2301      	movs	r3, #1
10012bc6:	f88d 80a0 	strb.w	r8, [sp, #160]	@ 0xa0
10012bca:	9307      	str	r3, [sp, #28]
10012bcc:	930b      	str	r3, [sp, #44]	@ 0x2c
10012bce:	ad28      	add	r5, sp, #160	@ 0xa0
10012bd0:	f04f 0900 	mov.w	r9, #0
10012bd4:	9706      	str	r7, [sp, #24]
10012bd6:	f8cd 903c 	str.w	r9, [sp, #60]	@ 0x3c
10012bda:	464b      	mov	r3, r9
10012bdc:	9a06      	ldr	r2, [sp, #24]
10012bde:	9c27      	ldr	r4, [sp, #156]	@ 0x9c
10012be0:	f012 0284 	ands.w	r2, r2, #132	@ 0x84
10012be4:	920e      	str	r2, [sp, #56]	@ 0x38
10012be6:	d105      	bne.n	10012bf4 <_vfprintf_r+0x3a4>
10012be8:	9a09      	ldr	r2, [sp, #36]	@ 0x24
10012bea:	9907      	ldr	r1, [sp, #28]
10012bec:	1a56      	subs	r6, r2, r1
10012bee:	2e00      	cmp	r6, #0
10012bf0:	f300 82fb 	bgt.w	100131ea <_vfprintf_r+0x99a>
10012bf4:	f89d 2077 	ldrb.w	r2, [sp, #119]	@ 0x77
10012bf8:	b18a      	cbz	r2, 10012c1e <_vfprintf_r+0x3ce>
10012bfa:	9a26      	ldr	r2, [sp, #152]	@ 0x98
10012bfc:	f10d 0177 	add.w	r1, sp, #119	@ 0x77
10012c00:	3201      	adds	r2, #1
10012c02:	3401      	adds	r4, #1
10012c04:	f8ca 1000 	str.w	r1, [sl]
10012c08:	2a07      	cmp	r2, #7
10012c0a:	f04f 0101 	mov.w	r1, #1
10012c0e:	9427      	str	r4, [sp, #156]	@ 0x9c
10012c10:	9226      	str	r2, [sp, #152]	@ 0x98
10012c12:	f8ca 1004 	str.w	r1, [sl, #4]
10012c16:	f300 8323 	bgt.w	10013260 <_vfprintf_r+0xa10>
10012c1a:	f10a 0a08 	add.w	sl, sl, #8
10012c1e:	b183      	cbz	r3, 10012c42 <_vfprintf_r+0x3f2>
10012c20:	9a26      	ldr	r2, [sp, #152]	@ 0x98
10012c22:	a91e      	add	r1, sp, #120	@ 0x78
10012c24:	3201      	adds	r2, #1
10012c26:	3402      	adds	r4, #2
10012c28:	f8ca 1000 	str.w	r1, [sl]
10012c2c:	2a07      	cmp	r2, #7
10012c2e:	f04f 0102 	mov.w	r1, #2
10012c32:	9427      	str	r4, [sp, #156]	@ 0x9c
10012c34:	9226      	str	r2, [sp, #152]	@ 0x98
10012c36:	f8ca 1004 	str.w	r1, [sl, #4]
10012c3a:	f300 831f 	bgt.w	1001327c <_vfprintf_r+0xa2c>
10012c3e:	f10a 0a08 	add.w	sl, sl, #8
10012c42:	9b0e      	ldr	r3, [sp, #56]	@ 0x38
10012c44:	2b80      	cmp	r3, #128	@ 0x80
10012c46:	f000 81c7 	beq.w	10012fd8 <_vfprintf_r+0x788>
10012c4a:	9b0b      	ldr	r3, [sp, #44]	@ 0x2c
10012c4c:	eba9 0603 	sub.w	r6, r9, r3
10012c50:	2e00      	cmp	r6, #0
10012c52:	f300 8203 	bgt.w	1001305c <_vfprintf_r+0x80c>
10012c56:	9b06      	ldr	r3, [sp, #24]
10012c58:	05de      	lsls	r6, r3, #23
10012c5a:	f100 8156 	bmi.w	10012f0a <_vfprintf_r+0x6ba>
10012c5e:	9b0b      	ldr	r3, [sp, #44]	@ 0x2c
10012c60:	f8ca 3004 	str.w	r3, [sl, #4]
10012c64:	441c      	add	r4, r3
10012c66:	9b26      	ldr	r3, [sp, #152]	@ 0x98
10012c68:	f8ca 5000 	str.w	r5, [sl]
10012c6c:	3301      	adds	r3, #1
10012c6e:	2b07      	cmp	r3, #7
10012c70:	9427      	str	r4, [sp, #156]	@ 0x9c
10012c72:	9326      	str	r3, [sp, #152]	@ 0x98
10012c74:	f300 8262 	bgt.w	1001313c <_vfprintf_r+0x8ec>
10012c78:	f10a 0a08 	add.w	sl, sl, #8
10012c7c:	9b06      	ldr	r3, [sp, #24]
10012c7e:	075a      	lsls	r2, r3, #29
10012c80:	d505      	bpl.n	10012c8e <_vfprintf_r+0x43e>
10012c82:	9b09      	ldr	r3, [sp, #36]	@ 0x24
10012c84:	9a07      	ldr	r2, [sp, #28]
10012c86:	1a9d      	subs	r5, r3, r2
10012c88:	2d00      	cmp	r5, #0
10012c8a:	f300 8303 	bgt.w	10013294 <_vfprintf_r+0xa44>
10012c8e:	e9dd 2309 	ldrd	r2, r3, [sp, #36]	@ 0x24
10012c92:	9907      	ldr	r1, [sp, #28]
10012c94:	428a      	cmp	r2, r1
10012c96:	bfac      	ite	ge
10012c98:	189b      	addge	r3, r3, r2
10012c9a:	185b      	addlt	r3, r3, r1
10012c9c:	930a      	str	r3, [sp, #40]	@ 0x28
10012c9e:	2c00      	cmp	r4, #0
10012ca0:	f040 8238 	bne.w	10013114 <_vfprintf_r+0x8c4>
10012ca4:	2300      	movs	r3, #0
10012ca6:	9326      	str	r3, [sp, #152]	@ 0x98
10012ca8:	f10d 0ac8 	add.w	sl, sp, #200	@ 0xc8
10012cac:	e613      	b.n	100128d6 <_vfprintf_r+0x86>
10012cae:	9b0d      	ldr	r3, [sp, #52]	@ 0x34
10012cb0:	3307      	adds	r3, #7
10012cb2:	f023 0307 	bic.w	r3, r3, #7
10012cb6:	e8f3 4502 	ldrd	r4, r5, [r3], #8
10012cba:	930d      	str	r3, [sp, #52]	@ 0x34
10012cbc:	f025 4300 	bic.w	r3, r5, #2147483648	@ 0x80000000
10012cc0:	9319      	str	r3, [sp, #100]	@ 0x64
10012cc2:	9418      	str	r4, [sp, #96]	@ 0x60
10012cc4:	e9dd 0118 	ldrd	r0, r1, [sp, #96]	@ 0x60
10012cc8:	4bbd      	ldr	r3, [pc, #756]	@ (10012fc0 <_vfprintf_r+0x770>)
10012cca:	f04f 32ff 	mov.w	r2, #4294967295	@ 0xffffffff
10012cce:	e9cd 4510 	strd	r4, r5, [sp, #64]	@ 0x40
10012cd2:	f004 fdd5 	bl	10017880 <__aeabi_dcmpun>
10012cd6:	2800      	cmp	r0, #0
10012cd8:	f040 83f0 	bne.w	100134bc <_vfprintf_r+0xc6c>
10012cdc:	e9dd 0118 	ldrd	r0, r1, [sp, #96]	@ 0x60
10012ce0:	4bb7      	ldr	r3, [pc, #732]	@ (10012fc0 <_vfprintf_r+0x770>)
10012ce2:	f04f 32ff 	mov.w	r2, #4294967295	@ 0xffffffff
10012ce6:	f004 fdad 	bl	10017844 <__aeabi_dcmple>
10012cea:	2800      	cmp	r0, #0
10012cec:	f040 83e6 	bne.w	100134bc <_vfprintf_r+0xc6c>
10012cf0:	2200      	movs	r2, #0
10012cf2:	2300      	movs	r3, #0
10012cf4:	4620      	mov	r0, r4
10012cf6:	4629      	mov	r1, r5
10012cf8:	f004 fd9a 	bl	10017830 <__aeabi_dcmplt>
10012cfc:	2800      	cmp	r0, #0
10012cfe:	f040 8649 	bne.w	10013994 <_vfprintf_r+0x1144>
10012d02:	f89d 4077 	ldrb.w	r4, [sp, #119]	@ 0x77
10012d06:	4daf      	ldr	r5, [pc, #700]	@ (10012fc4 <_vfprintf_r+0x774>)
10012d08:	f027 0380 	bic.w	r3, r7, #128	@ 0x80
10012d0c:	9306      	str	r3, [sp, #24]
10012d0e:	4bae      	ldr	r3, [pc, #696]	@ (10012fc8 <_vfprintf_r+0x778>)
10012d10:	f1b8 0f47 	cmp.w	r8, #71	@ 0x47
10012d14:	bfd8      	it	le
10012d16:	461d      	movle	r5, r3
10012d18:	f04f 0900 	mov.w	r9, #0
10012d1c:	2303      	movs	r3, #3
10012d1e:	9307      	str	r3, [sp, #28]
10012d20:	930b      	str	r3, [sp, #44]	@ 0x2c
10012d22:	f8cd 903c 	str.w	r9, [sp, #60]	@ 0x3c
10012d26:	e711      	b.n	10012b4c <_vfprintf_r+0x2fc>
10012d28:	990d      	ldr	r1, [sp, #52]	@ 0x34
10012d2a:	f851 3b04 	ldr.w	r3, [r1], #4
10012d2e:	910d      	str	r1, [sp, #52]	@ 0x34
10012d30:	f017 0110 	ands.w	r1, r7, #16
10012d34:	f000 83ba 	beq.w	100134ac <_vfprintf_r+0xc5c>
10012d38:	2101      	movs	r1, #1
10012d3a:	e6d0      	b.n	10012ade <_vfprintf_r+0x28e>
10012d3c:	990d      	ldr	r1, [sp, #52]	@ 0x34
10012d3e:	f851 3b04 	ldr.w	r3, [r1], #4
10012d42:	910d      	str	r1, [sp, #52]	@ 0x34
10012d44:	f017 0110 	ands.w	r1, r7, #16
10012d48:	f47f aeb7 	bne.w	10012aba <_vfprintf_r+0x26a>
10012d4c:	f017 0240 	ands.w	r2, r7, #64	@ 0x40
10012d50:	f43f aeb3 	beq.w	10012aba <_vfprintf_r+0x26a>
10012d54:	460a      	mov	r2, r1
10012d56:	b29b      	uxth	r3, r3
10012d58:	e6af      	b.n	10012aba <_vfprintf_r+0x26a>
10012d5a:	9a0d      	ldr	r2, [sp, #52]	@ 0x34
10012d5c:	06fc      	lsls	r4, r7, #27
10012d5e:	f852 3b04 	ldr.w	r3, [r2], #4
10012d62:	920d      	str	r2, [sp, #52]	@ 0x34
10012d64:	d406      	bmi.n	10012d74 <_vfprintf_r+0x524>
10012d66:	0678      	lsls	r0, r7, #25
10012d68:	d504      	bpl.n	10012d74 <_vfprintf_r+0x524>
10012d6a:	f343 32c0 	sbfx	r2, r3, #15, #1
10012d6e:	4611      	mov	r1, r2
10012d70:	b21b      	sxth	r3, r3
10012d72:	e652      	b.n	10012a1a <_vfprintf_r+0x1ca>
10012d74:	17da      	asrs	r2, r3, #31
10012d76:	4611      	mov	r1, r2
10012d78:	2900      	cmp	r1, #0
10012d7a:	f6bf ae51 	bge.w	10012a20 <_vfprintf_r+0x1d0>
10012d7e:	425b      	negs	r3, r3
10012d80:	eb62 0242 	sbc.w	r2, r2, r2, lsl #1
10012d84:	242d      	movs	r4, #45	@ 0x2d
10012d86:	2101      	movs	r1, #1
10012d88:	e6aa      	b.n	10012ae0 <_vfprintf_r+0x290>
10012d8a:	9f06      	ldr	r7, [sp, #24]
10012d8c:	2b0a      	cmp	r3, #10
10012d8e:	f172 0100 	sbcs.w	r1, r2, #0
10012d92:	f080 8504 	bcs.w	1001379e <_vfprintf_r+0xf4e>
10012d96:	3330      	adds	r3, #48	@ 0x30
10012d98:	f88d 30c7 	strb.w	r3, [sp, #199]	@ 0xc7
10012d9c:	2301      	movs	r3, #1
10012d9e:	9706      	str	r7, [sp, #24]
10012da0:	930b      	str	r3, [sp, #44]	@ 0x2c
10012da2:	f10d 05c7 	add.w	r5, sp, #199	@ 0xc7
10012da6:	e6ca      	b.n	10012b3e <_vfprintf_r+0x2ee>
10012da8:	9b0d      	ldr	r3, [sp, #52]	@ 0x34
10012daa:	f853 2b04 	ldr.w	r2, [r3], #4
10012dae:	9209      	str	r2, [sp, #36]	@ 0x24
10012db0:	2a00      	cmp	r2, #0
10012db2:	f280 8373 	bge.w	1001349c <_vfprintf_r+0xc4c>
10012db6:	9a09      	ldr	r2, [sp, #36]	@ 0x24
10012db8:	930d      	str	r3, [sp, #52]	@ 0x34
10012dba:	4252      	negs	r2, r2
10012dbc:	9209      	str	r2, [sp, #36]	@ 0x24
10012dbe:	f89b 3000 	ldrb.w	r3, [fp]
10012dc2:	f047 0704 	orr.w	r7, r7, #4
10012dc6:	e5a7      	b.n	10012918 <_vfprintf_r+0xc8>
10012dc8:	465a      	mov	r2, fp
10012dca:	f812 8b01 	ldrb.w	r8, [r2], #1
10012dce:	f1b8 0f2a 	cmp.w	r8, #42	@ 0x2a
10012dd2:	f000 872f 	beq.w	10013c34 <_vfprintf_r+0x13e4>
10012dd6:	f1a8 0330 	sub.w	r3, r8, #48	@ 0x30
10012dda:	2b09      	cmp	r3, #9
10012ddc:	bf98      	it	ls
10012dde:	f04f 0900 	movls.w	r9, #0
10012de2:	f200 86ae 	bhi.w	10013b42 <_vfprintf_r+0x12f2>
10012de6:	f812 8b01 	ldrb.w	r8, [r2], #1
10012dea:	eb09 0989 	add.w	r9, r9, r9, lsl #2
10012dee:	eb03 0949 	add.w	r9, r3, r9, lsl #1
10012df2:	f1a8 0330 	sub.w	r3, r8, #48	@ 0x30
10012df6:	2b09      	cmp	r3, #9
10012df8:	d9f5      	bls.n	10012de6 <_vfprintf_r+0x596>
10012dfa:	ea49 79e9 	orr.w	r9, r9, r9, asr #31
10012dfe:	4693      	mov	fp, r2
10012e00:	e58d      	b.n	1001291e <_vfprintf_r+0xce>
10012e02:	f89b 3000 	ldrb.w	r3, [fp]
10012e06:	f047 0780 	orr.w	r7, r7, #128	@ 0x80
10012e0a:	e585      	b.n	10012918 <_vfprintf_r+0xc8>
10012e0c:	232b      	movs	r3, #43	@ 0x2b
10012e0e:	f88d 3077 	strb.w	r3, [sp, #119]	@ 0x77
10012e12:	f89b 3000 	ldrb.w	r3, [fp]
10012e16:	e57f      	b.n	10012918 <_vfprintf_r+0xc8>
10012e18:	f89b 3000 	ldrb.w	r3, [fp]
10012e1c:	f047 0701 	orr.w	r7, r7, #1
10012e20:	e57a      	b.n	10012918 <_vfprintf_r+0xc8>
10012e22:	f89d 2077 	ldrb.w	r2, [sp, #119]	@ 0x77
10012e26:	f89b 3000 	ldrb.w	r3, [fp]
10012e2a:	2a00      	cmp	r2, #0
10012e2c:	f47f ad74 	bne.w	10012918 <_vfprintf_r+0xc8>
10012e30:	2220      	movs	r2, #32
10012e32:	f88d 2077 	strb.w	r2, [sp, #119]	@ 0x77
10012e36:	e56f      	b.n	10012918 <_vfprintf_r+0xc8>
10012e38:	f89b 3000 	ldrb.w	r3, [fp]
10012e3c:	2b6c      	cmp	r3, #108	@ 0x6c
10012e3e:	bf03      	ittte	eq
10012e40:	f89b 3001 	ldrbeq.w	r3, [fp, #1]
10012e44:	f047 0720 	orreq.w	r7, r7, #32
10012e48:	f10b 0b01 	addeq.w	fp, fp, #1
10012e4c:	f047 0710 	orrne.w	r7, r7, #16
10012e50:	e562      	b.n	10012918 <_vfprintf_r+0xc8>
10012e52:	f89b 3000 	ldrb.w	r3, [fp]
10012e56:	f047 0740 	orr.w	r7, r7, #64	@ 0x40
10012e5a:	e55d      	b.n	10012918 <_vfprintf_r+0xc8>
10012e5c:	9b0d      	ldr	r3, [sp, #52]	@ 0x34
10012e5e:	2200      	movs	r2, #0
10012e60:	f88d 2077 	strb.w	r2, [sp, #119]	@ 0x77
10012e64:	f853 2b04 	ldr.w	r2, [r3], #4
10012e68:	930d      	str	r3, [sp, #52]	@ 0x34
10012e6a:	2301      	movs	r3, #1
10012e6c:	f88d 20a0 	strb.w	r2, [sp, #160]	@ 0xa0
10012e70:	9307      	str	r3, [sp, #28]
10012e72:	930b      	str	r3, [sp, #44]	@ 0x2c
10012e74:	ad28      	add	r5, sp, #160	@ 0xa0
10012e76:	e6ab      	b.n	10012bd0 <_vfprintf_r+0x380>
10012e78:	f89b 3000 	ldrb.w	r3, [fp]
10012e7c:	f047 0708 	orr.w	r7, r7, #8
10012e80:	e54a      	b.n	10012918 <_vfprintf_r+0xc8>
10012e82:	9c0d      	ldr	r4, [sp, #52]	@ 0x34
10012e84:	f854 5b04 	ldr.w	r5, [r4], #4
10012e88:	2600      	movs	r6, #0
10012e8a:	f88d 6077 	strb.w	r6, [sp, #119]	@ 0x77
10012e8e:	2d00      	cmp	r5, #0
10012e90:	f000 83c8 	beq.w	10013624 <_vfprintf_r+0xdd4>
10012e94:	f1b9 0f00 	cmp.w	r9, #0
10012e98:	f2c0 851d 	blt.w	100138d6 <_vfprintf_r+0x1086>
10012e9c:	464a      	mov	r2, r9
10012e9e:	4631      	mov	r1, r6
10012ea0:	4628      	mov	r0, r5
10012ea2:	f000 ffcd 	bl	10013e40 <memchr>
10012ea6:	2800      	cmp	r0, #0
10012ea8:	f000 863f 	beq.w	10013b2a <_vfprintf_r+0x12da>
10012eac:	1b43      	subs	r3, r0, r5
10012eae:	930b      	str	r3, [sp, #44]	@ 0x2c
10012eb0:	ea23 73e3 	bic.w	r3, r3, r3, asr #31
10012eb4:	940d      	str	r4, [sp, #52]	@ 0x34
10012eb6:	46b1      	mov	r9, r6
10012eb8:	f89d 4077 	ldrb.w	r4, [sp, #119]	@ 0x77
10012ebc:	9706      	str	r7, [sp, #24]
10012ebe:	9307      	str	r3, [sp, #28]
10012ec0:	960f      	str	r6, [sp, #60]	@ 0x3c
10012ec2:	e643      	b.n	10012b4c <_vfprintf_r+0x2fc>
10012ec4:	f89b 3000 	ldrb.w	r3, [fp]
10012ec8:	f047 0720 	orr.w	r7, r7, #32
10012ecc:	e524      	b.n	10012918 <_vfprintf_r+0xc8>
10012ece:	9a0d      	ldr	r2, [sp, #52]	@ 0x34
10012ed0:	f852 3b04 	ldr.w	r3, [r2], #4
10012ed4:	920d      	str	r2, [sp, #52]	@ 0x34
10012ed6:	f647 0230 	movw	r2, #30768	@ 0x7830
10012eda:	f8ad 2078 	strh.w	r2, [sp, #120]	@ 0x78
10012ede:	4a3b      	ldr	r2, [pc, #236]	@ (10012fcc <_vfprintf_r+0x77c>)
10012ee0:	9215      	str	r2, [sp, #84]	@ 0x54
10012ee2:	f047 0702 	orr.w	r7, r7, #2
10012ee6:	2200      	movs	r2, #0
10012ee8:	2102      	movs	r1, #2
10012eea:	f04f 0878 	mov.w	r8, #120	@ 0x78
10012eee:	e5f6      	b.n	10012ade <_vfprintf_r+0x28e>
10012ef0:	06bd      	lsls	r5, r7, #26
10012ef2:	f140 835f 	bpl.w	100135b4 <_vfprintf_r+0xd64>
10012ef6:	9b0d      	ldr	r3, [sp, #52]	@ 0x34
10012ef8:	9a0a      	ldr	r2, [sp, #40]	@ 0x28
10012efa:	681b      	ldr	r3, [r3, #0]
10012efc:	601a      	str	r2, [r3, #0]
10012efe:	17d2      	asrs	r2, r2, #31
10012f00:	605a      	str	r2, [r3, #4]
10012f02:	9b0d      	ldr	r3, [sp, #52]	@ 0x34
10012f04:	3304      	adds	r3, #4
10012f06:	930d      	str	r3, [sp, #52]	@ 0x34
10012f08:	e4e5      	b.n	100128d6 <_vfprintf_r+0x86>
10012f0a:	f1b8 0f65 	cmp.w	r8, #101	@ 0x65
10012f0e:	f340 8121 	ble.w	10013154 <_vfprintf_r+0x904>
10012f12:	e9dd 0110 	ldrd	r0, r1, [sp, #64]	@ 0x40
10012f16:	2200      	movs	r2, #0
10012f18:	2300      	movs	r3, #0
10012f1a:	f004 fc7f 	bl	1001781c <__aeabi_dcmpeq>
10012f1e:	2800      	cmp	r0, #0
10012f20:	f000 81f5 	beq.w	1001330e <_vfprintf_r+0xabe>
10012f24:	9b26      	ldr	r3, [sp, #152]	@ 0x98
10012f26:	4a2a      	ldr	r2, [pc, #168]	@ (10012fd0 <_vfprintf_r+0x780>)
10012f28:	f8ca 2000 	str.w	r2, [sl]
10012f2c:	3301      	adds	r3, #1
10012f2e:	3401      	adds	r4, #1
10012f30:	2201      	movs	r2, #1
10012f32:	2b07      	cmp	r3, #7
10012f34:	9427      	str	r4, [sp, #156]	@ 0x9c
10012f36:	9326      	str	r3, [sp, #152]	@ 0x98
10012f38:	f8ca 2004 	str.w	r2, [sl, #4]
10012f3c:	f300 84ac 	bgt.w	10013898 <_vfprintf_r+0x1048>
10012f40:	f10a 0a08 	add.w	sl, sl, #8
10012f44:	9b1f      	ldr	r3, [sp, #124]	@ 0x7c
10012f46:	9a12      	ldr	r2, [sp, #72]	@ 0x48
10012f48:	4293      	cmp	r3, r2
10012f4a:	f280 82a2 	bge.w	10013492 <_vfprintf_r+0xc42>
10012f4e:	9b13      	ldr	r3, [sp, #76]	@ 0x4c
10012f50:	9a14      	ldr	r2, [sp, #80]	@ 0x50
10012f52:	441c      	add	r4, r3
10012f54:	e9ca 2300 	strd	r2, r3, [sl]
10012f58:	9b26      	ldr	r3, [sp, #152]	@ 0x98
10012f5a:	9427      	str	r4, [sp, #156]	@ 0x9c
10012f5c:	3301      	adds	r3, #1
10012f5e:	2b07      	cmp	r3, #7
10012f60:	9326      	str	r3, [sp, #152]	@ 0x98
10012f62:	f300 8353 	bgt.w	1001360c <_vfprintf_r+0xdbc>
10012f66:	f10a 0a08 	add.w	sl, sl, #8
10012f6a:	9b12      	ldr	r3, [sp, #72]	@ 0x48
10012f6c:	1e5d      	subs	r5, r3, #1
10012f6e:	2d00      	cmp	r5, #0
10012f70:	f77f ae84 	ble.w	10012c7c <_vfprintf_r+0x42c>
10012f74:	2d10      	cmp	r5, #16
10012f76:	9b26      	ldr	r3, [sp, #152]	@ 0x98
10012f78:	4f16      	ldr	r7, [pc, #88]	@ (10012fd4 <_vfprintf_r+0x784>)
10012f7a:	f340 80d4 	ble.w	10013126 <_vfprintf_r+0x8d6>
10012f7e:	f8dd 8030 	ldr.w	r8, [sp, #48]	@ 0x30
10012f82:	f8dd 9020 	ldr.w	r9, [sp, #32]
10012f86:	2610      	movs	r6, #16
10012f88:	e005      	b.n	10012f96 <_vfprintf_r+0x746>
10012f8a:	f10a 0a08 	add.w	sl, sl, #8
10012f8e:	3d10      	subs	r5, #16
10012f90:	2d10      	cmp	r5, #16
10012f92:	f340 80c8 	ble.w	10013126 <_vfprintf_r+0x8d6>
10012f96:	3301      	adds	r3, #1
10012f98:	3410      	adds	r4, #16
10012f9a:	2b07      	cmp	r3, #7
10012f9c:	e9ca 7600 	strd	r7, r6, [sl]
10012fa0:	e9cd 3426 	strd	r3, r4, [sp, #152]	@ 0x98
10012fa4:	ddf1      	ble.n	10012f8a <_vfprintf_r+0x73a>
10012fa6:	aa25      	add	r2, sp, #148	@ 0x94
10012fa8:	4649      	mov	r1, r9
10012faa:	4640      	mov	r0, r8
10012fac:	f002 fafa 	bl	100155a4 <__sprint_r>
10012fb0:	2800      	cmp	r0, #0
10012fb2:	f47f adf8 	bne.w	10012ba6 <_vfprintf_r+0x356>
10012fb6:	e9dd 3426 	ldrd	r3, r4, [sp, #152]	@ 0x98
10012fba:	f10d 0ac8 	add.w	sl, sp, #200	@ 0xc8
10012fbe:	e7e6      	b.n	10012f8e <_vfprintf_r+0x73e>
10012fc0:	7fefffff 	.word	0x7fefffff
10012fc4:	100180a4 	.word	0x100180a4
10012fc8:	100180a0 	.word	0x100180a0
10012fcc:	100180c4 	.word	0x100180c4
10012fd0:	100180e0 	.word	0x100180e0
10012fd4:	1001a380 	.word	0x1001a380
10012fd8:	9b09      	ldr	r3, [sp, #36]	@ 0x24
10012fda:	9a07      	ldr	r2, [sp, #28]
10012fdc:	1a9e      	subs	r6, r3, r2
10012fde:	2e00      	cmp	r6, #0
10012fe0:	f77f ae33 	ble.w	10012c4a <_vfprintf_r+0x3fa>
10012fe4:	2e10      	cmp	r6, #16
10012fe6:	9b26      	ldr	r3, [sp, #152]	@ 0x98
10012fe8:	4faf      	ldr	r7, [pc, #700]	@ (100132a8 <_vfprintf_r+0xa58>)
10012fea:	dd24      	ble.n	10013036 <_vfprintf_r+0x7e6>
10012fec:	4652      	mov	r2, sl
10012fee:	4621      	mov	r1, r4
10012ff0:	46aa      	mov	sl, r5
10012ff2:	9c0c      	ldr	r4, [sp, #48]	@ 0x30
10012ff4:	9d08      	ldr	r5, [sp, #32]
10012ff6:	e004      	b.n	10013002 <_vfprintf_r+0x7b2>
10012ff8:	3e10      	subs	r6, #16
10012ffa:	2e10      	cmp	r6, #16
10012ffc:	f102 0208 	add.w	r2, r2, #8
10013000:	dd16      	ble.n	10013030 <_vfprintf_r+0x7e0>
10013002:	3301      	adds	r3, #1
10013004:	3110      	adds	r1, #16
10013006:	2010      	movs	r0, #16
10013008:	2b07      	cmp	r3, #7
1001300a:	e9cd 3126 	strd	r3, r1, [sp, #152]	@ 0x98
1001300e:	6017      	str	r7, [r2, #0]
10013010:	6050      	str	r0, [r2, #4]
10013012:	ddf1      	ble.n	10012ff8 <_vfprintf_r+0x7a8>
10013014:	aa25      	add	r2, sp, #148	@ 0x94
10013016:	4629      	mov	r1, r5
10013018:	4620      	mov	r0, r4
1001301a:	f002 fac3 	bl	100155a4 <__sprint_r>
1001301e:	2800      	cmp	r0, #0
10013020:	f47f adc1 	bne.w	10012ba6 <_vfprintf_r+0x356>
10013024:	3e10      	subs	r6, #16
10013026:	2e10      	cmp	r6, #16
10013028:	e9dd 3126 	ldrd	r3, r1, [sp, #152]	@ 0x98
1001302c:	aa32      	add	r2, sp, #200	@ 0xc8
1001302e:	dce8      	bgt.n	10013002 <_vfprintf_r+0x7b2>
10013030:	4655      	mov	r5, sl
10013032:	460c      	mov	r4, r1
10013034:	4692      	mov	sl, r2
10013036:	3301      	adds	r3, #1
10013038:	4434      	add	r4, r6
1001303a:	2b07      	cmp	r3, #7
1001303c:	e9cd 3426 	strd	r3, r4, [sp, #152]	@ 0x98
10013040:	f8ca 7000 	str.w	r7, [sl]
10013044:	f8ca 6004 	str.w	r6, [sl, #4]
10013048:	f300 8438 	bgt.w	100138bc <_vfprintf_r+0x106c>
1001304c:	9b0b      	ldr	r3, [sp, #44]	@ 0x2c
1001304e:	eba9 0603 	sub.w	r6, r9, r3
10013052:	2e00      	cmp	r6, #0
10013054:	f10a 0a08 	add.w	sl, sl, #8
10013058:	f77f adfd 	ble.w	10012c56 <_vfprintf_r+0x406>
1001305c:	2e10      	cmp	r6, #16
1001305e:	9b26      	ldr	r3, [sp, #152]	@ 0x98
10013060:	4f91      	ldr	r7, [pc, #580]	@ (100132a8 <_vfprintf_r+0xa58>)
10013062:	dd2c      	ble.n	100130be <_vfprintf_r+0x86e>
10013064:	4652      	mov	r2, sl
10013066:	4621      	mov	r1, r4
10013068:	46b2      	mov	sl, r6
1001306a:	9c0c      	ldr	r4, [sp, #48]	@ 0x30
1001306c:	462e      	mov	r6, r5
1001306e:	f04f 0910 	mov.w	r9, #16
10013072:	9d08      	ldr	r5, [sp, #32]
10013074:	e006      	b.n	10013084 <_vfprintf_r+0x834>
10013076:	f1aa 0a10 	sub.w	sl, sl, #16
1001307a:	f1ba 0f10 	cmp.w	sl, #16
1001307e:	f102 0208 	add.w	r2, r2, #8
10013082:	dd18      	ble.n	100130b6 <_vfprintf_r+0x866>
10013084:	3301      	adds	r3, #1
10013086:	4888      	ldr	r0, [pc, #544]	@ (100132a8 <_vfprintf_r+0xa58>)
10013088:	3110      	adds	r1, #16
1001308a:	2b07      	cmp	r3, #7
1001308c:	e9c2 0900 	strd	r0, r9, [r2]
10013090:	e9cd 3126 	strd	r3, r1, [sp, #152]	@ 0x98
10013094:	ddef      	ble.n	10013076 <_vfprintf_r+0x826>
10013096:	aa25      	add	r2, sp, #148	@ 0x94
10013098:	4629      	mov	r1, r5
1001309a:	4620      	mov	r0, r4
1001309c:	f002 fa82 	bl	100155a4 <__sprint_r>
100130a0:	2800      	cmp	r0, #0
100130a2:	f47f ad80 	bne.w	10012ba6 <_vfprintf_r+0x356>
100130a6:	f1aa 0a10 	sub.w	sl, sl, #16
100130aa:	f1ba 0f10 	cmp.w	sl, #16
100130ae:	e9dd 3126 	ldrd	r3, r1, [sp, #152]	@ 0x98
100130b2:	aa32      	add	r2, sp, #200	@ 0xc8
100130b4:	dce6      	bgt.n	10013084 <_vfprintf_r+0x834>
100130b6:	4635      	mov	r5, r6
100130b8:	460c      	mov	r4, r1
100130ba:	4656      	mov	r6, sl
100130bc:	4692      	mov	sl, r2
100130be:	3301      	adds	r3, #1
100130c0:	4434      	add	r4, r6
100130c2:	2b07      	cmp	r3, #7
100130c4:	e9cd 3426 	strd	r3, r4, [sp, #152]	@ 0x98
100130c8:	f8ca 7000 	str.w	r7, [sl]
100130cc:	f8ca 6004 	str.w	r6, [sl, #4]
100130d0:	f300 81d2 	bgt.w	10013478 <_vfprintf_r+0xc28>
100130d4:	f10a 0a08 	add.w	sl, sl, #8
100130d8:	e5bd      	b.n	10012c56 <_vfprintf_r+0x406>
100130da:	2901      	cmp	r1, #1
100130dc:	9f06      	ldr	r7, [sp, #24]
100130de:	f04f 0300 	mov.w	r3, #0
100130e2:	f43f ae58 	beq.w	10012d96 <_vfprintf_r+0x546>
100130e6:	2902      	cmp	r1, #2
100130e8:	461a      	mov	r2, r3
100130ea:	f47f ad0b 	bne.w	10012b04 <_vfprintf_r+0x2b4>
100130ee:	9815      	ldr	r0, [sp, #84]	@ 0x54
100130f0:	ad32      	add	r5, sp, #200	@ 0xc8
100130f2:	f003 010f 	and.w	r1, r3, #15
100130f6:	091b      	lsrs	r3, r3, #4
100130f8:	5c41      	ldrb	r1, [r0, r1]
100130fa:	f805 1d01 	strb.w	r1, [r5, #-1]!
100130fe:	ea43 7302 	orr.w	r3, r3, r2, lsl #28
10013102:	0912      	lsrs	r2, r2, #4
10013104:	ea53 0102 	orrs.w	r1, r3, r2
10013108:	d1f3      	bne.n	100130f2 <_vfprintf_r+0x8a2>
1001310a:	ab32      	add	r3, sp, #200	@ 0xc8
1001310c:	1b5b      	subs	r3, r3, r5
1001310e:	9706      	str	r7, [sp, #24]
10013110:	930b      	str	r3, [sp, #44]	@ 0x2c
10013112:	e514      	b.n	10012b3e <_vfprintf_r+0x2ee>
10013114:	9908      	ldr	r1, [sp, #32]
10013116:	980c      	ldr	r0, [sp, #48]	@ 0x30
10013118:	aa25      	add	r2, sp, #148	@ 0x94
1001311a:	f002 fa43 	bl	100155a4 <__sprint_r>
1001311e:	2800      	cmp	r0, #0
10013120:	f43f adc0 	beq.w	10012ca4 <_vfprintf_r+0x454>
10013124:	e53f      	b.n	10012ba6 <_vfprintf_r+0x356>
10013126:	3301      	adds	r3, #1
10013128:	442c      	add	r4, r5
1001312a:	2b07      	cmp	r3, #7
1001312c:	f8ca 7000 	str.w	r7, [sl]
10013130:	f8ca 5004 	str.w	r5, [sl, #4]
10013134:	e9cd 3426 	strd	r3, r4, [sp, #152]	@ 0x98
10013138:	f77f ad9e 	ble.w	10012c78 <_vfprintf_r+0x428>
1001313c:	9908      	ldr	r1, [sp, #32]
1001313e:	980c      	ldr	r0, [sp, #48]	@ 0x30
10013140:	aa25      	add	r2, sp, #148	@ 0x94
10013142:	f002 fa2f 	bl	100155a4 <__sprint_r>
10013146:	2800      	cmp	r0, #0
10013148:	f47f ad2d 	bne.w	10012ba6 <_vfprintf_r+0x356>
1001314c:	9c27      	ldr	r4, [sp, #156]	@ 0x9c
1001314e:	f10d 0ac8 	add.w	sl, sp, #200	@ 0xc8
10013152:	e593      	b.n	10012c7c <_vfprintf_r+0x42c>
10013154:	9b12      	ldr	r3, [sp, #72]	@ 0x48
10013156:	9e26      	ldr	r6, [sp, #152]	@ 0x98
10013158:	2b01      	cmp	r3, #1
1001315a:	f104 0401 	add.w	r4, r4, #1
1001315e:	f106 0601 	add.w	r6, r6, #1
10013162:	f10a 0808 	add.w	r8, sl, #8
10013166:	f340 813e 	ble.w	100133e6 <_vfprintf_r+0xb96>
1001316a:	2301      	movs	r3, #1
1001316c:	2e07      	cmp	r6, #7
1001316e:	e9cd 6426 	strd	r6, r4, [sp, #152]	@ 0x98
10013172:	f8ca 5000 	str.w	r5, [sl]
10013176:	f8ca 3004 	str.w	r3, [sl, #4]
1001317a:	f300 82f6 	bgt.w	1001376a <_vfprintf_r+0xf1a>
1001317e:	9b13      	ldr	r3, [sp, #76]	@ 0x4c
10013180:	9a14      	ldr	r2, [sp, #80]	@ 0x50
10013182:	3601      	adds	r6, #1
10013184:	441c      	add	r4, r3
10013186:	2e07      	cmp	r6, #7
10013188:	e9c8 2300 	strd	r2, r3, [r8]
1001318c:	e9cd 6426 	strd	r6, r4, [sp, #152]	@ 0x98
10013190:	f300 82f8 	bgt.w	10013784 <_vfprintf_r+0xf34>
10013194:	f108 0808 	add.w	r8, r8, #8
10013198:	9b12      	ldr	r3, [sp, #72]	@ 0x48
1001319a:	e9dd 0110 	ldrd	r0, r1, [sp, #64]	@ 0x40
1001319e:	f103 39ff 	add.w	r9, r3, #4294967295	@ 0xffffffff
100131a2:	2200      	movs	r2, #0
100131a4:	2300      	movs	r3, #0
100131a6:	f004 fb39 	bl	1001781c <__aeabi_dcmpeq>
100131aa:	2800      	cmp	r0, #0
100131ac:	f040 813b 	bne.w	10013426 <_vfprintf_r+0xbd6>
100131b0:	3601      	adds	r6, #1
100131b2:	3501      	adds	r5, #1
100131b4:	444c      	add	r4, r9
100131b6:	2e07      	cmp	r6, #7
100131b8:	e9cd 6426 	strd	r6, r4, [sp, #152]	@ 0x98
100131bc:	f8c8 5000 	str.w	r5, [r8]
100131c0:	f8c8 9004 	str.w	r9, [r8, #4]
100131c4:	f300 811d 	bgt.w	10013402 <_vfprintf_r+0xbb2>
100131c8:	f108 0808 	add.w	r8, r8, #8
100131cc:	9b16      	ldr	r3, [sp, #88]	@ 0x58
100131ce:	f8c8 3004 	str.w	r3, [r8, #4]
100131d2:	3601      	adds	r6, #1
100131d4:	441c      	add	r4, r3
100131d6:	2e07      	cmp	r6, #7
100131d8:	ab21      	add	r3, sp, #132	@ 0x84
100131da:	e9cd 6426 	strd	r6, r4, [sp, #152]	@ 0x98
100131de:	f8c8 3000 	str.w	r3, [r8]
100131e2:	dcab      	bgt.n	1001313c <_vfprintf_r+0x8ec>
100131e4:	f108 0a08 	add.w	sl, r8, #8
100131e8:	e548      	b.n	10012c7c <_vfprintf_r+0x42c>
100131ea:	2e10      	cmp	r6, #16
100131ec:	9a26      	ldr	r2, [sp, #152]	@ 0x98
100131ee:	4f2f      	ldr	r7, [pc, #188]	@ (100132ac <_vfprintf_r+0xa5c>)
100131f0:	dd28      	ble.n	10013244 <_vfprintf_r+0x9f4>
100131f2:	4651      	mov	r1, sl
100131f4:	4620      	mov	r0, r4
100131f6:	46ca      	mov	sl, r9
100131f8:	9c0c      	ldr	r4, [sp, #48]	@ 0x30
100131fa:	9317      	str	r3, [sp, #92]	@ 0x5c
100131fc:	46a9      	mov	r9, r5
100131fe:	9d08      	ldr	r5, [sp, #32]
10013200:	e004      	b.n	1001320c <_vfprintf_r+0x9bc>
10013202:	3e10      	subs	r6, #16
10013204:	2e10      	cmp	r6, #16
10013206:	f101 0108 	add.w	r1, r1, #8
1001320a:	dd16      	ble.n	1001323a <_vfprintf_r+0x9ea>
1001320c:	3201      	adds	r2, #1
1001320e:	3010      	adds	r0, #16
10013210:	2310      	movs	r3, #16
10013212:	2a07      	cmp	r2, #7
10013214:	e9cd 2026 	strd	r2, r0, [sp, #152]	@ 0x98
10013218:	600f      	str	r7, [r1, #0]
1001321a:	604b      	str	r3, [r1, #4]
1001321c:	ddf1      	ble.n	10013202 <_vfprintf_r+0x9b2>
1001321e:	aa25      	add	r2, sp, #148	@ 0x94
10013220:	4629      	mov	r1, r5
10013222:	4620      	mov	r0, r4
10013224:	f002 f9be 	bl	100155a4 <__sprint_r>
10013228:	2800      	cmp	r0, #0
1001322a:	f47f acbc 	bne.w	10012ba6 <_vfprintf_r+0x356>
1001322e:	3e10      	subs	r6, #16
10013230:	2e10      	cmp	r6, #16
10013232:	e9dd 2026 	ldrd	r2, r0, [sp, #152]	@ 0x98
10013236:	a932      	add	r1, sp, #200	@ 0xc8
10013238:	dce8      	bgt.n	1001320c <_vfprintf_r+0x9bc>
1001323a:	9b17      	ldr	r3, [sp, #92]	@ 0x5c
1001323c:	464d      	mov	r5, r9
1001323e:	4604      	mov	r4, r0
10013240:	46d1      	mov	r9, sl
10013242:	468a      	mov	sl, r1
10013244:	3201      	adds	r2, #1
10013246:	4434      	add	r4, r6
10013248:	2a07      	cmp	r2, #7
1001324a:	e9cd 2426 	strd	r2, r4, [sp, #152]	@ 0x98
1001324e:	f8ca 7000 	str.w	r7, [sl]
10013252:	f8ca 6004 	str.w	r6, [sl, #4]
10013256:	f300 82dc 	bgt.w	10013812 <_vfprintf_r+0xfc2>
1001325a:	f10a 0a08 	add.w	sl, sl, #8
1001325e:	e4c9      	b.n	10012bf4 <_vfprintf_r+0x3a4>
10013260:	9908      	ldr	r1, [sp, #32]
10013262:	980c      	ldr	r0, [sp, #48]	@ 0x30
10013264:	9317      	str	r3, [sp, #92]	@ 0x5c
10013266:	aa25      	add	r2, sp, #148	@ 0x94
10013268:	f002 f99c 	bl	100155a4 <__sprint_r>
1001326c:	2800      	cmp	r0, #0
1001326e:	f47f ac9a 	bne.w	10012ba6 <_vfprintf_r+0x356>
10013272:	9c27      	ldr	r4, [sp, #156]	@ 0x9c
10013274:	9b17      	ldr	r3, [sp, #92]	@ 0x5c
10013276:	f10d 0ac8 	add.w	sl, sp, #200	@ 0xc8
1001327a:	e4d0      	b.n	10012c1e <_vfprintf_r+0x3ce>
1001327c:	9908      	ldr	r1, [sp, #32]
1001327e:	980c      	ldr	r0, [sp, #48]	@ 0x30
10013280:	aa25      	add	r2, sp, #148	@ 0x94
10013282:	f002 f98f 	bl	100155a4 <__sprint_r>
10013286:	2800      	cmp	r0, #0
10013288:	f47f ac8d 	bne.w	10012ba6 <_vfprintf_r+0x356>
1001328c:	9c27      	ldr	r4, [sp, #156]	@ 0x9c
1001328e:	f10d 0ac8 	add.w	sl, sp, #200	@ 0xc8
10013292:	e4d6      	b.n	10012c42 <_vfprintf_r+0x3f2>
10013294:	2d10      	cmp	r5, #16
10013296:	9b26      	ldr	r3, [sp, #152]	@ 0x98
10013298:	4f04      	ldr	r7, [pc, #16]	@ (100132ac <_vfprintf_r+0xa5c>)
1001329a:	dd25      	ble.n	100132e8 <_vfprintf_r+0xa98>
1001329c:	f8dd 8030 	ldr.w	r8, [sp, #48]	@ 0x30
100132a0:	f8dd 9020 	ldr.w	r9, [sp, #32]
100132a4:	2610      	movs	r6, #16
100132a6:	e008      	b.n	100132ba <_vfprintf_r+0xa6a>
100132a8:	1001a380 	.word	0x1001a380
100132ac:	1001a370 	.word	0x1001a370
100132b0:	3d10      	subs	r5, #16
100132b2:	2d10      	cmp	r5, #16
100132b4:	f10a 0a08 	add.w	sl, sl, #8
100132b8:	dd16      	ble.n	100132e8 <_vfprintf_r+0xa98>
100132ba:	3301      	adds	r3, #1
100132bc:	3410      	adds	r4, #16
100132be:	2b07      	cmp	r3, #7
100132c0:	e9ca 7600 	strd	r7, r6, [sl]
100132c4:	e9cd 3426 	strd	r3, r4, [sp, #152]	@ 0x98
100132c8:	ddf2      	ble.n	100132b0 <_vfprintf_r+0xa60>
100132ca:	aa25      	add	r2, sp, #148	@ 0x94
100132cc:	4649      	mov	r1, r9
100132ce:	4640      	mov	r0, r8
100132d0:	f002 f968 	bl	100155a4 <__sprint_r>
100132d4:	2800      	cmp	r0, #0
100132d6:	f47f ac66 	bne.w	10012ba6 <_vfprintf_r+0x356>
100132da:	3d10      	subs	r5, #16
100132dc:	2d10      	cmp	r5, #16
100132de:	e9dd 3426 	ldrd	r3, r4, [sp, #152]	@ 0x98
100132e2:	f10d 0ac8 	add.w	sl, sp, #200	@ 0xc8
100132e6:	dce8      	bgt.n	100132ba <_vfprintf_r+0xa6a>
100132e8:	3301      	adds	r3, #1
100132ea:	442c      	add	r4, r5
100132ec:	2b07      	cmp	r3, #7
100132ee:	e9ca 7500 	strd	r7, r5, [sl]
100132f2:	e9cd 3426 	strd	r3, r4, [sp, #152]	@ 0x98
100132f6:	f77f acca 	ble.w	10012c8e <_vfprintf_r+0x43e>
100132fa:	9908      	ldr	r1, [sp, #32]
100132fc:	980c      	ldr	r0, [sp, #48]	@ 0x30
100132fe:	aa25      	add	r2, sp, #148	@ 0x94
10013300:	f002 f950 	bl	100155a4 <__sprint_r>
10013304:	2800      	cmp	r0, #0
10013306:	f47f ac4e 	bne.w	10012ba6 <_vfprintf_r+0x356>
1001330a:	9c27      	ldr	r4, [sp, #156]	@ 0x9c
1001330c:	e4bf      	b.n	10012c8e <_vfprintf_r+0x43e>
1001330e:	991f      	ldr	r1, [sp, #124]	@ 0x7c
10013310:	2900      	cmp	r1, #0
10013312:	f340 828d 	ble.w	10013830 <_vfprintf_r+0xfe0>
10013316:	9f0f      	ldr	r7, [sp, #60]	@ 0x3c
10013318:	9b12      	ldr	r3, [sp, #72]	@ 0x48
1001331a:	429f      	cmp	r7, r3
1001331c:	bfa8      	it	ge
1001331e:	461f      	movge	r7, r3
10013320:	2f00      	cmp	r7, #0
10013322:	dd0b      	ble.n	1001333c <_vfprintf_r+0xaec>
10013324:	9b26      	ldr	r3, [sp, #152]	@ 0x98
10013326:	3301      	adds	r3, #1
10013328:	443c      	add	r4, r7
1001332a:	2b07      	cmp	r3, #7
1001332c:	e9ca 5700 	strd	r5, r7, [sl]
10013330:	9427      	str	r4, [sp, #156]	@ 0x9c
10013332:	9326      	str	r3, [sp, #152]	@ 0x98
10013334:	f300 83d6 	bgt.w	10013ae4 <_vfprintf_r+0x1294>
10013338:	f10a 0a08 	add.w	sl, sl, #8
1001333c:	9e0f      	ldr	r6, [sp, #60]	@ 0x3c
1001333e:	2f00      	cmp	r7, #0
10013340:	bfa8      	it	ge
10013342:	1bf6      	subge	r6, r6, r7
10013344:	2e00      	cmp	r6, #0
10013346:	f300 8177 	bgt.w	10013638 <_vfprintf_r+0xde8>
1001334a:	9b1f      	ldr	r3, [sp, #124]	@ 0x7c
1001334c:	9a12      	ldr	r2, [sp, #72]	@ 0x48
1001334e:	4293      	cmp	r3, r2
10013350:	f2c0 81a1 	blt.w	10013696 <_vfprintf_r+0xe46>
10013354:	9a06      	ldr	r2, [sp, #24]
10013356:	07d0      	lsls	r0, r2, #31
10013358:	f100 819d 	bmi.w	10013696 <_vfprintf_r+0xe46>
1001335c:	9a12      	ldr	r2, [sp, #72]	@ 0x48
1001335e:	990f      	ldr	r1, [sp, #60]	@ 0x3c
10013360:	1ad3      	subs	r3, r2, r3
10013362:	1a56      	subs	r6, r2, r1
10013364:	429e      	cmp	r6, r3
10013366:	bfa8      	it	ge
10013368:	461e      	movge	r6, r3
1001336a:	2e00      	cmp	r6, #0
1001336c:	dd0e      	ble.n	1001338c <_vfprintf_r+0xb3c>
1001336e:	9a26      	ldr	r2, [sp, #152]	@ 0x98
10013370:	f8ca 6004 	str.w	r6, [sl, #4]
10013374:	3201      	adds	r2, #1
10013376:	440d      	add	r5, r1
10013378:	4434      	add	r4, r6
1001337a:	2a07      	cmp	r2, #7
1001337c:	f8ca 5000 	str.w	r5, [sl]
10013380:	9427      	str	r4, [sp, #156]	@ 0x9c
10013382:	9226      	str	r2, [sp, #152]	@ 0x98
10013384:	f300 83ba 	bgt.w	10013afc <_vfprintf_r+0x12ac>
10013388:	f10a 0a08 	add.w	sl, sl, #8
1001338c:	2e00      	cmp	r6, #0
1001338e:	bfac      	ite	ge
10013390:	1b9d      	subge	r5, r3, r6
10013392:	461d      	movlt	r5, r3
10013394:	2d00      	cmp	r5, #0
10013396:	f77f ac71 	ble.w	10012c7c <_vfprintf_r+0x42c>
1001339a:	2d10      	cmp	r5, #16
1001339c:	9b26      	ldr	r3, [sp, #152]	@ 0x98
1001339e:	4fac      	ldr	r7, [pc, #688]	@ (10013650 <_vfprintf_r+0xe00>)
100133a0:	f77f aec1 	ble.w	10013126 <_vfprintf_r+0x8d6>
100133a4:	f8dd 8030 	ldr.w	r8, [sp, #48]	@ 0x30
100133a8:	f8dd 9020 	ldr.w	r9, [sp, #32]
100133ac:	2610      	movs	r6, #16
100133ae:	e005      	b.n	100133bc <_vfprintf_r+0xb6c>
100133b0:	f10a 0a08 	add.w	sl, sl, #8
100133b4:	3d10      	subs	r5, #16
100133b6:	2d10      	cmp	r5, #16
100133b8:	f77f aeb5 	ble.w	10013126 <_vfprintf_r+0x8d6>
100133bc:	3301      	adds	r3, #1
100133be:	3410      	adds	r4, #16
100133c0:	2b07      	cmp	r3, #7
100133c2:	e9ca 7600 	strd	r7, r6, [sl]
100133c6:	e9cd 3426 	strd	r3, r4, [sp, #152]	@ 0x98
100133ca:	ddf1      	ble.n	100133b0 <_vfprintf_r+0xb60>
100133cc:	aa25      	add	r2, sp, #148	@ 0x94
100133ce:	4649      	mov	r1, r9
100133d0:	4640      	mov	r0, r8
100133d2:	f002 f8e7 	bl	100155a4 <__sprint_r>
100133d6:	2800      	cmp	r0, #0
100133d8:	f47f abe5 	bne.w	10012ba6 <_vfprintf_r+0x356>
100133dc:	e9dd 3426 	ldrd	r3, r4, [sp, #152]	@ 0x98
100133e0:	f10d 0ac8 	add.w	sl, sp, #200	@ 0xc8
100133e4:	e7e6      	b.n	100133b4 <_vfprintf_r+0xb64>
100133e6:	9b06      	ldr	r3, [sp, #24]
100133e8:	07d9      	lsls	r1, r3, #31
100133ea:	f53f aebe 	bmi.w	1001316a <_vfprintf_r+0x91a>
100133ee:	2301      	movs	r3, #1
100133f0:	2e07      	cmp	r6, #7
100133f2:	e9cd 6426 	strd	r6, r4, [sp, #152]	@ 0x98
100133f6:	f8ca 5000 	str.w	r5, [sl]
100133fa:	f8ca 3004 	str.w	r3, [sl, #4]
100133fe:	f77f aee5 	ble.w	100131cc <_vfprintf_r+0x97c>
10013402:	9908      	ldr	r1, [sp, #32]
10013404:	980c      	ldr	r0, [sp, #48]	@ 0x30
10013406:	aa25      	add	r2, sp, #148	@ 0x94
10013408:	f002 f8cc 	bl	100155a4 <__sprint_r>
1001340c:	2800      	cmp	r0, #0
1001340e:	f47f abca 	bne.w	10012ba6 <_vfprintf_r+0x356>
10013412:	e9dd 6426 	ldrd	r6, r4, [sp, #152]	@ 0x98
10013416:	f10d 08c8 	add.w	r8, sp, #200	@ 0xc8
1001341a:	e6d7      	b.n	100131cc <_vfprintf_r+0x97c>
1001341c:	f8cd 902c 	str.w	r9, [sp, #44]	@ 0x2c
10013420:	ad32      	add	r5, sp, #200	@ 0xc8
10013422:	f7ff bb8c 	b.w	10012b3e <_vfprintf_r+0x2ee>
10013426:	9b12      	ldr	r3, [sp, #72]	@ 0x48
10013428:	2b01      	cmp	r3, #1
1001342a:	f77f aecf 	ble.w	100131cc <_vfprintf_r+0x97c>
1001342e:	2b11      	cmp	r3, #17
10013430:	4f87      	ldr	r7, [pc, #540]	@ (10013650 <_vfprintf_r+0xe00>)
10013432:	f340 8295 	ble.w	10013960 <_vfprintf_r+0x1110>
10013436:	f8dd a030 	ldr.w	sl, [sp, #48]	@ 0x30
1001343a:	2510      	movs	r5, #16
1001343c:	e007      	b.n	1001344e <_vfprintf_r+0xbfe>
1001343e:	f108 0808 	add.w	r8, r8, #8
10013442:	f1a9 0910 	sub.w	r9, r9, #16
10013446:	f1b9 0f10 	cmp.w	r9, #16
1001344a:	f340 8289 	ble.w	10013960 <_vfprintf_r+0x1110>
1001344e:	3601      	adds	r6, #1
10013450:	3410      	adds	r4, #16
10013452:	2e07      	cmp	r6, #7
10013454:	e9c8 7500 	strd	r7, r5, [r8]
10013458:	e9cd 6426 	strd	r6, r4, [sp, #152]	@ 0x98
1001345c:	ddef      	ble.n	1001343e <_vfprintf_r+0xbee>
1001345e:	9908      	ldr	r1, [sp, #32]
10013460:	aa25      	add	r2, sp, #148	@ 0x94
10013462:	4650      	mov	r0, sl
10013464:	f002 f89e 	bl	100155a4 <__sprint_r>
10013468:	2800      	cmp	r0, #0
1001346a:	f47f ab9c 	bne.w	10012ba6 <_vfprintf_r+0x356>
1001346e:	e9dd 6426 	ldrd	r6, r4, [sp, #152]	@ 0x98
10013472:	f10d 08c8 	add.w	r8, sp, #200	@ 0xc8
10013476:	e7e4      	b.n	10013442 <_vfprintf_r+0xbf2>
10013478:	9908      	ldr	r1, [sp, #32]
1001347a:	980c      	ldr	r0, [sp, #48]	@ 0x30
1001347c:	aa25      	add	r2, sp, #148	@ 0x94
1001347e:	f002 f891 	bl	100155a4 <__sprint_r>
10013482:	2800      	cmp	r0, #0
10013484:	f47f ab8f 	bne.w	10012ba6 <_vfprintf_r+0x356>
10013488:	9c27      	ldr	r4, [sp, #156]	@ 0x9c
1001348a:	f10d 0ac8 	add.w	sl, sp, #200	@ 0xc8
1001348e:	f7ff bbe2 	b.w	10012c56 <_vfprintf_r+0x406>
10013492:	9b06      	ldr	r3, [sp, #24]
10013494:	07dd      	lsls	r5, r3, #31
10013496:	f57f abf1 	bpl.w	10012c7c <_vfprintf_r+0x42c>
1001349a:	e558      	b.n	10012f4e <_vfprintf_r+0x6fe>
1001349c:	930d      	str	r3, [sp, #52]	@ 0x34
1001349e:	f89b 3000 	ldrb.w	r3, [fp]
100134a2:	f7ff ba39 	b.w	10012918 <_vfprintf_r+0xc8>
100134a6:	ad32      	add	r5, sp, #200	@ 0xc8
100134a8:	f7ff bb49 	b.w	10012b3e <_vfprintf_r+0x2ee>
100134ac:	f017 0240 	ands.w	r2, r7, #64	@ 0x40
100134b0:	bf1c      	itt	ne
100134b2:	460a      	movne	r2, r1
100134b4:	b29b      	uxthne	r3, r3
100134b6:	2101      	movs	r1, #1
100134b8:	f7ff bb11 	b.w	10012ade <_vfprintf_r+0x28e>
100134bc:	e9dd 0110 	ldrd	r0, r1, [sp, #64]	@ 0x40
100134c0:	4602      	mov	r2, r0
100134c2:	460b      	mov	r3, r1
100134c4:	f004 f9dc 	bl	10017880 <__aeabi_dcmpun>
100134c8:	2800      	cmp	r0, #0
100134ca:	f040 837b 	bne.w	10013bc4 <_vfprintf_r+0x1374>
100134ce:	f1b9 3fff 	cmp.w	r9, #4294967295	@ 0xffffffff
100134d2:	f028 0620 	bic.w	r6, r8, #32
100134d6:	f000 8320 	beq.w	10013b1a <_vfprintf_r+0x12ca>
100134da:	2e47      	cmp	r6, #71	@ 0x47
100134dc:	d104      	bne.n	100134e8 <_vfprintf_r+0xc98>
100134de:	f1b9 0f00 	cmp.w	r9, #0
100134e2:	bf08      	it	eq
100134e4:	f04f 0901 	moveq.w	r9, #1
100134e8:	e9dd 1210 	ldrd	r1, r2, [sp, #64]	@ 0x40
100134ec:	f447 7080 	orr.w	r0, r7, #256	@ 0x100
100134f0:	2a00      	cmp	r2, #0
100134f2:	9006      	str	r0, [sp, #24]
100134f4:	f2c0 82da 	blt.w	10013aac <_vfprintf_r+0x125c>
100134f8:	2300      	movs	r3, #0
100134fa:	930e      	str	r3, [sp, #56]	@ 0x38
100134fc:	e9dd 3410 	ldrd	r3, r4, [sp, #64]	@ 0x40
10013500:	e9cd 341a 	strd	r3, r4, [sp, #104]	@ 0x68
10013504:	f1b8 0f65 	cmp.w	r8, #101	@ 0x65
10013508:	f000 82a5 	beq.w	10013a56 <_vfprintf_r+0x1206>
1001350c:	f300 82e2 	bgt.w	10013ad4 <_vfprintf_r+0x1284>
10013510:	f1b8 0f45 	cmp.w	r8, #69	@ 0x45
10013514:	f000 829f 	beq.w	10013a56 <_vfprintf_r+0x1206>
10013518:	ab23      	add	r3, sp, #140	@ 0x8c
1001351a:	9304      	str	r3, [sp, #16]
1001351c:	ab20      	add	r3, sp, #128	@ 0x80
1001351e:	9303      	str	r3, [sp, #12]
10013520:	ab1f      	add	r3, sp, #124	@ 0x7c
10013522:	9302      	str	r3, [sp, #8]
10013524:	2302      	movs	r3, #2
10013526:	9300      	str	r3, [sp, #0]
10013528:	980c      	ldr	r0, [sp, #48]	@ 0x30
1001352a:	f8cd 9004 	str.w	r9, [sp, #4]
1001352e:	e9dd 231a 	ldrd	r2, r3, [sp, #104]	@ 0x68
10013532:	f001 f82f 	bl	10014594 <_dtoa_r>
10013536:	07f9      	lsls	r1, r7, #31
10013538:	4605      	mov	r5, r0
1001353a:	f140 80c0 	bpl.w	100136be <_vfprintf_r+0xe6e>
1001353e:	eb00 0409 	add.w	r4, r0, r9
10013542:	e9dd 011a 	ldrd	r0, r1, [sp, #104]	@ 0x68
10013546:	2200      	movs	r2, #0
10013548:	2300      	movs	r3, #0
1001354a:	f004 f967 	bl	1001781c <__aeabi_dcmpeq>
1001354e:	2800      	cmp	r0, #0
10013550:	f040 8232 	bne.w	100139b8 <_vfprintf_r+0x1168>
10013554:	9b23      	ldr	r3, [sp, #140]	@ 0x8c
10013556:	42a3      	cmp	r3, r4
10013558:	d206      	bcs.n	10013568 <_vfprintf_r+0xd18>
1001355a:	2130      	movs	r1, #48	@ 0x30
1001355c:	1c5a      	adds	r2, r3, #1
1001355e:	9223      	str	r2, [sp, #140]	@ 0x8c
10013560:	7019      	strb	r1, [r3, #0]
10013562:	9b23      	ldr	r3, [sp, #140]	@ 0x8c
10013564:	429c      	cmp	r4, r3
10013566:	d8f9      	bhi.n	1001355c <_vfprintf_r+0xd0c>
10013568:	9a1f      	ldr	r2, [sp, #124]	@ 0x7c
1001356a:	920f      	str	r2, [sp, #60]	@ 0x3c
1001356c:	1b5b      	subs	r3, r3, r5
1001356e:	2e47      	cmp	r6, #71	@ 0x47
10013570:	9312      	str	r3, [sp, #72]	@ 0x48
10013572:	f000 80a9 	beq.w	100136c8 <_vfprintf_r+0xe78>
10013576:	f1b8 0f66 	cmp.w	r8, #102	@ 0x66
1001357a:	f040 80bc 	bne.w	100136f6 <_vfprintf_r+0xea6>
1001357e:	9a0f      	ldr	r2, [sp, #60]	@ 0x3c
10013580:	f007 0301 	and.w	r3, r7, #1
10013584:	2a00      	cmp	r2, #0
10013586:	ea43 0309 	orr.w	r3, r3, r9
1001358a:	f340 8361 	ble.w	10013c50 <_vfprintf_r+0x1400>
1001358e:	2b00      	cmp	r3, #0
10013590:	f040 833e 	bne.w	10013c10 <_vfprintf_r+0x13c0>
10013594:	9b0f      	ldr	r3, [sp, #60]	@ 0x3c
10013596:	9307      	str	r3, [sp, #28]
10013598:	930b      	str	r3, [sp, #44]	@ 0x2c
1001359a:	f04f 0866 	mov.w	r8, #102	@ 0x66
1001359e:	9b0e      	ldr	r3, [sp, #56]	@ 0x38
100135a0:	2b00      	cmp	r3, #0
100135a2:	f000 827d 	beq.w	10013aa0 <_vfprintf_r+0x1250>
100135a6:	232d      	movs	r3, #45	@ 0x2d
100135a8:	f88d 3077 	strb.w	r3, [sp, #119]	@ 0x77
100135ac:	f04f 0900 	mov.w	r9, #0
100135b0:	f7ff bacd 	b.w	10012b4e <_vfprintf_r+0x2fe>
100135b4:	06fc      	lsls	r4, r7, #27
100135b6:	d47d      	bmi.n	100136b4 <_vfprintf_r+0xe64>
100135b8:	0678      	lsls	r0, r7, #25
100135ba:	d57b      	bpl.n	100136b4 <_vfprintf_r+0xe64>
100135bc:	9b0d      	ldr	r3, [sp, #52]	@ 0x34
100135be:	9a0a      	ldr	r2, [sp, #40]	@ 0x28
100135c0:	681b      	ldr	r3, [r3, #0]
100135c2:	801a      	strh	r2, [r3, #0]
100135c4:	e49d      	b.n	10012f02 <_vfprintf_r+0x6b2>
100135c6:	4b23      	ldr	r3, [pc, #140]	@ (10013654 <_vfprintf_r+0xe04>)
100135c8:	9315      	str	r3, [sp, #84]	@ 0x54
100135ca:	f017 0220 	ands.w	r2, r7, #32
100135ce:	f000 80be 	beq.w	1001374e <_vfprintf_r+0xefe>
100135d2:	9b0d      	ldr	r3, [sp, #52]	@ 0x34
100135d4:	3307      	adds	r3, #7
100135d6:	f023 0307 	bic.w	r3, r3, #7
100135da:	4619      	mov	r1, r3
100135dc:	685a      	ldr	r2, [r3, #4]
100135de:	f851 3b08 	ldr.w	r3, [r1], #8
100135e2:	910d      	str	r1, [sp, #52]	@ 0x34
100135e4:	07f9      	lsls	r1, r7, #31
100135e6:	f140 80af 	bpl.w	10013748 <_vfprintf_r+0xef8>
100135ea:	ea53 0102 	orrs.w	r1, r3, r2
100135ee:	f000 80ab 	beq.w	10013748 <_vfprintf_r+0xef8>
100135f2:	2130      	movs	r1, #48	@ 0x30
100135f4:	f88d 1078 	strb.w	r1, [sp, #120]	@ 0x78
100135f8:	f88d 8079 	strb.w	r8, [sp, #121]	@ 0x79
100135fc:	f047 0702 	orr.w	r7, r7, #2
10013600:	2102      	movs	r1, #2
10013602:	f7ff ba6c 	b.w	10012ade <_vfprintf_r+0x28e>
10013606:	4b14      	ldr	r3, [pc, #80]	@ (10013658 <_vfprintf_r+0xe08>)
10013608:	9315      	str	r3, [sp, #84]	@ 0x54
1001360a:	e7de      	b.n	100135ca <_vfprintf_r+0xd7a>
1001360c:	9908      	ldr	r1, [sp, #32]
1001360e:	980c      	ldr	r0, [sp, #48]	@ 0x30
10013610:	aa25      	add	r2, sp, #148	@ 0x94
10013612:	f001 ffc7 	bl	100155a4 <__sprint_r>
10013616:	2800      	cmp	r0, #0
10013618:	f47f aac5 	bne.w	10012ba6 <_vfprintf_r+0x356>
1001361c:	9c27      	ldr	r4, [sp, #156]	@ 0x9c
1001361e:	f10d 0ac8 	add.w	sl, sp, #200	@ 0xc8
10013622:	e4a2      	b.n	10012f6a <_vfprintf_r+0x71a>
10013624:	464b      	mov	r3, r9
10013626:	2b06      	cmp	r3, #6
10013628:	bf28      	it	cs
1001362a:	2306      	movcs	r3, #6
1001362c:	4d0b      	ldr	r5, [pc, #44]	@ (1001365c <_vfprintf_r+0xe0c>)
1001362e:	930b      	str	r3, [sp, #44]	@ 0x2c
10013630:	940d      	str	r4, [sp, #52]	@ 0x34
10013632:	9307      	str	r3, [sp, #28]
10013634:	f7ff bacc 	b.w	10012bd0 <_vfprintf_r+0x380>
10013638:	2e10      	cmp	r6, #16
1001363a:	9b26      	ldr	r3, [sp, #152]	@ 0x98
1001363c:	4f04      	ldr	r7, [pc, #16]	@ (10013650 <_vfprintf_r+0xe00>)
1001363e:	f340 819c 	ble.w	1001397a <_vfprintf_r+0x112a>
10013642:	4622      	mov	r2, r4
10013644:	f8dd 9030 	ldr.w	r9, [sp, #48]	@ 0x30
10013648:	9c08      	ldr	r4, [sp, #32]
1001364a:	f04f 0810 	mov.w	r8, #16
1001364e:	e00d      	b.n	1001366c <_vfprintf_r+0xe1c>
10013650:	1001a380 	.word	0x1001a380
10013654:	100180b0 	.word	0x100180b0
10013658:	100180c4 	.word	0x100180c4
1001365c:	100180d8 	.word	0x100180d8
10013660:	f10a 0a08 	add.w	sl, sl, #8
10013664:	3e10      	subs	r6, #16
10013666:	2e10      	cmp	r6, #16
10013668:	f340 8186 	ble.w	10013978 <_vfprintf_r+0x1128>
1001366c:	3301      	adds	r3, #1
1001366e:	3210      	adds	r2, #16
10013670:	2b07      	cmp	r3, #7
10013672:	e9ca 7800 	strd	r7, r8, [sl]
10013676:	e9cd 3226 	strd	r3, r2, [sp, #152]	@ 0x98
1001367a:	ddf1      	ble.n	10013660 <_vfprintf_r+0xe10>
1001367c:	aa25      	add	r2, sp, #148	@ 0x94
1001367e:	4621      	mov	r1, r4
10013680:	4648      	mov	r0, r9
10013682:	f001 ff8f 	bl	100155a4 <__sprint_r>
10013686:	2800      	cmp	r0, #0
10013688:	f47f aa8d 	bne.w	10012ba6 <_vfprintf_r+0x356>
1001368c:	e9dd 3226 	ldrd	r3, r2, [sp, #152]	@ 0x98
10013690:	f10d 0ac8 	add.w	sl, sp, #200	@ 0xc8
10013694:	e7e6      	b.n	10013664 <_vfprintf_r+0xe14>
10013696:	9a13      	ldr	r2, [sp, #76]	@ 0x4c
10013698:	9914      	ldr	r1, [sp, #80]	@ 0x50
1001369a:	4414      	add	r4, r2
1001369c:	e9ca 1200 	strd	r1, r2, [sl]
100136a0:	9a26      	ldr	r2, [sp, #152]	@ 0x98
100136a2:	9427      	str	r4, [sp, #156]	@ 0x9c
100136a4:	3201      	adds	r2, #1
100136a6:	2a07      	cmp	r2, #7
100136a8:	9226      	str	r2, [sp, #152]	@ 0x98
100136aa:	f300 8206 	bgt.w	10013aba <_vfprintf_r+0x126a>
100136ae:	f10a 0a08 	add.w	sl, sl, #8
100136b2:	e653      	b.n	1001335c <_vfprintf_r+0xb0c>
100136b4:	9b0d      	ldr	r3, [sp, #52]	@ 0x34
100136b6:	9a0a      	ldr	r2, [sp, #40]	@ 0x28
100136b8:	681b      	ldr	r3, [r3, #0]
100136ba:	601a      	str	r2, [r3, #0]
100136bc:	e421      	b.n	10012f02 <_vfprintf_r+0x6b2>
100136be:	9b23      	ldr	r3, [sp, #140]	@ 0x8c
100136c0:	1a1b      	subs	r3, r3, r0
100136c2:	9312      	str	r3, [sp, #72]	@ 0x48
100136c4:	9b1f      	ldr	r3, [sp, #124]	@ 0x7c
100136c6:	930f      	str	r3, [sp, #60]	@ 0x3c
100136c8:	9b0f      	ldr	r3, [sp, #60]	@ 0x3c
100136ca:	1cda      	adds	r2, r3, #3
100136cc:	db11      	blt.n	100136f2 <_vfprintf_r+0xea2>
100136ce:	4599      	cmp	r9, r3
100136d0:	db0f      	blt.n	100136f2 <_vfprintf_r+0xea2>
100136d2:	9b12      	ldr	r3, [sp, #72]	@ 0x48
100136d4:	9a0f      	ldr	r2, [sp, #60]	@ 0x3c
100136d6:	4293      	cmp	r3, r2
100136d8:	f300 8259 	bgt.w	10013b8e <_vfprintf_r+0x133e>
100136dc:	07fe      	lsls	r6, r7, #31
100136de:	9b0f      	ldr	r3, [sp, #60]	@ 0x3c
100136e0:	f100 8281 	bmi.w	10013be6 <_vfprintf_r+0x1396>
100136e4:	ea23 72e3 	bic.w	r2, r3, r3, asr #31
100136e8:	9207      	str	r2, [sp, #28]
100136ea:	930b      	str	r3, [sp, #44]	@ 0x2c
100136ec:	f04f 0867 	mov.w	r8, #103	@ 0x67
100136f0:	e755      	b.n	1001359e <_vfprintf_r+0xd4e>
100136f2:	f1a8 0802 	sub.w	r8, r8, #2
100136f6:	9b0f      	ldr	r3, [sp, #60]	@ 0x3c
100136f8:	f88d 8084 	strb.w	r8, [sp, #132]	@ 0x84
100136fc:	1e59      	subs	r1, r3, #1
100136fe:	2900      	cmp	r1, #0
10013700:	911f      	str	r1, [sp, #124]	@ 0x7c
10013702:	bfb6      	itet	lt
10013704:	f1c3 0101 	rsblt	r1, r3, #1
10013708:	232b      	movge	r3, #43	@ 0x2b
1001370a:	232d      	movlt	r3, #45	@ 0x2d
1001370c:	2909      	cmp	r1, #9
1001370e:	f88d 3085 	strb.w	r3, [sp, #133]	@ 0x85
10013712:	f300 815c 	bgt.w	100139ce <_vfprintf_r+0x117e>
10013716:	2330      	movs	r3, #48	@ 0x30
10013718:	3130      	adds	r1, #48	@ 0x30
1001371a:	f88d 3086 	strb.w	r3, [sp, #134]	@ 0x86
1001371e:	2304      	movs	r3, #4
10013720:	f88d 1087 	strb.w	r1, [sp, #135]	@ 0x87
10013724:	9316      	str	r3, [sp, #88]	@ 0x58
10013726:	9a12      	ldr	r2, [sp, #72]	@ 0x48
10013728:	9b16      	ldr	r3, [sp, #88]	@ 0x58
1001372a:	2a01      	cmp	r2, #1
1001372c:	4413      	add	r3, r2
1001372e:	930b      	str	r3, [sp, #44]	@ 0x2c
10013730:	f340 8224 	ble.w	10013b7c <_vfprintf_r+0x132c>
10013734:	9b0b      	ldr	r3, [sp, #44]	@ 0x2c
10013736:	9a13      	ldr	r2, [sp, #76]	@ 0x4c
10013738:	4413      	add	r3, r2
1001373a:	930b      	str	r3, [sp, #44]	@ 0x2c
1001373c:	ea23 73e3 	bic.w	r3, r3, r3, asr #31
10013740:	9307      	str	r3, [sp, #28]
10013742:	2300      	movs	r3, #0
10013744:	930f      	str	r3, [sp, #60]	@ 0x3c
10013746:	e72a      	b.n	1001359e <_vfprintf_r+0xd4e>
10013748:	2102      	movs	r1, #2
1001374a:	f7ff b9c8 	b.w	10012ade <_vfprintf_r+0x28e>
1001374e:	990d      	ldr	r1, [sp, #52]	@ 0x34
10013750:	f851 3b04 	ldr.w	r3, [r1], #4
10013754:	910d      	str	r1, [sp, #52]	@ 0x34
10013756:	f017 0110 	ands.w	r1, r7, #16
1001375a:	f47f af43 	bne.w	100135e4 <_vfprintf_r+0xd94>
1001375e:	f017 0240 	ands.w	r2, r7, #64	@ 0x40
10013762:	bf1c      	itt	ne
10013764:	b29b      	uxthne	r3, r3
10013766:	460a      	movne	r2, r1
10013768:	e73c      	b.n	100135e4 <_vfprintf_r+0xd94>
1001376a:	9908      	ldr	r1, [sp, #32]
1001376c:	980c      	ldr	r0, [sp, #48]	@ 0x30
1001376e:	aa25      	add	r2, sp, #148	@ 0x94
10013770:	f001 ff18 	bl	100155a4 <__sprint_r>
10013774:	2800      	cmp	r0, #0
10013776:	f47f aa16 	bne.w	10012ba6 <_vfprintf_r+0x356>
1001377a:	e9dd 6426 	ldrd	r6, r4, [sp, #152]	@ 0x98
1001377e:	f10d 08c8 	add.w	r8, sp, #200	@ 0xc8
10013782:	e4fc      	b.n	1001317e <_vfprintf_r+0x92e>
10013784:	9908      	ldr	r1, [sp, #32]
10013786:	980c      	ldr	r0, [sp, #48]	@ 0x30
10013788:	aa25      	add	r2, sp, #148	@ 0x94
1001378a:	f001 ff0b 	bl	100155a4 <__sprint_r>
1001378e:	2800      	cmp	r0, #0
10013790:	f47f aa09 	bne.w	10012ba6 <_vfprintf_r+0x356>
10013794:	e9dd 6426 	ldrd	r6, r4, [sp, #152]	@ 0x98
10013798:	f10d 08c8 	add.w	r8, sp, #200	@ 0xc8
1001379c:	e4fc      	b.n	10013198 <_vfprintf_r+0x948>
1001379e:	e9cd 8706 	strd	r8, r7, [sp, #24]
100137a2:	4ebc      	ldr	r6, [pc, #752]	@ (10013a94 <_vfprintf_r+0x1244>)
100137a4:	ad32      	add	r5, sp, #200	@ 0xc8
100137a6:	f04f 0e05 	mov.w	lr, #5
100137aa:	1899      	adds	r1, r3, r2
100137ac:	f141 0100 	adc.w	r1, r1, #0
100137b0:	fba6 0701 	umull	r0, r7, r6, r1
100137b4:	f027 0003 	bic.w	r0, r7, #3
100137b8:	eb00 0097 	add.w	r0, r0, r7, lsr #2
100137bc:	1a09      	subs	r1, r1, r0
100137be:	1a58      	subs	r0, r3, r1
100137c0:	4698      	mov	r8, r3
100137c2:	4694      	mov	ip, r2
100137c4:	f162 0300 	sbc.w	r3, r2, #0
100137c8:	f04f 32cc 	mov.w	r2, #3435973836	@ 0xcccccccc
100137cc:	fb02 f200 	mul.w	r2, r2, r0
100137d0:	fb06 2203 	mla	r2, r6, r3, r2
100137d4:	fba0 3006 	umull	r3, r0, r0, r6
100137d8:	f003 0701 	and.w	r7, r3, #1
100137dc:	4402      	add	r2, r0
100137de:	fba7 070e 	umull	r0, r7, r7, lr
100137e2:	1840      	adds	r0, r0, r1
100137e4:	f1b8 0f0a 	cmp.w	r8, #10
100137e8:	ea4f 0353 	mov.w	r3, r3, lsr #1
100137ec:	f100 0030 	add.w	r0, r0, #48	@ 0x30
100137f0:	f17c 0c00 	sbcs.w	ip, ip, #0
100137f4:	ea43 73c2 	orr.w	r3, r3, r2, lsl #31
100137f8:	f805 0d01 	strb.w	r0, [r5, #-1]!
100137fc:	ea4f 0252 	mov.w	r2, r2, lsr #1
10013800:	d2d3      	bcs.n	100137aa <_vfprintf_r+0xf5a>
10013802:	e9dd 8706 	ldrd	r8, r7, [sp, #24]
10013806:	ab32      	add	r3, sp, #200	@ 0xc8
10013808:	1b5b      	subs	r3, r3, r5
1001380a:	9706      	str	r7, [sp, #24]
1001380c:	930b      	str	r3, [sp, #44]	@ 0x2c
1001380e:	f7ff b996 	b.w	10012b3e <_vfprintf_r+0x2ee>
10013812:	9908      	ldr	r1, [sp, #32]
10013814:	980c      	ldr	r0, [sp, #48]	@ 0x30
10013816:	9317      	str	r3, [sp, #92]	@ 0x5c
10013818:	aa25      	add	r2, sp, #148	@ 0x94
1001381a:	f001 fec3 	bl	100155a4 <__sprint_r>
1001381e:	2800      	cmp	r0, #0
10013820:	f47f a9c1 	bne.w	10012ba6 <_vfprintf_r+0x356>
10013824:	9c27      	ldr	r4, [sp, #156]	@ 0x9c
10013826:	9b17      	ldr	r3, [sp, #92]	@ 0x5c
10013828:	f10d 0ac8 	add.w	sl, sp, #200	@ 0xc8
1001382c:	f7ff b9e2 	b.w	10012bf4 <_vfprintf_r+0x3a4>
10013830:	9b26      	ldr	r3, [sp, #152]	@ 0x98
10013832:	4a99      	ldr	r2, [pc, #612]	@ (10013a98 <_vfprintf_r+0x1248>)
10013834:	f8ca 2000 	str.w	r2, [sl]
10013838:	3301      	adds	r3, #1
1001383a:	3401      	adds	r4, #1
1001383c:	2201      	movs	r2, #1
1001383e:	2b07      	cmp	r3, #7
10013840:	9427      	str	r4, [sp, #156]	@ 0x9c
10013842:	9326      	str	r3, [sp, #152]	@ 0x98
10013844:	f8ca 2004 	str.w	r2, [sl, #4]
10013848:	f300 80a9 	bgt.w	1001399e <_vfprintf_r+0x114e>
1001384c:	f10a 0a08 	add.w	sl, sl, #8
10013850:	2900      	cmp	r1, #0
10013852:	d14f      	bne.n	100138f4 <_vfprintf_r+0x10a4>
10013854:	9b06      	ldr	r3, [sp, #24]
10013856:	9a12      	ldr	r2, [sp, #72]	@ 0x48
10013858:	f003 0301 	and.w	r3, r3, #1
1001385c:	4313      	orrs	r3, r2
1001385e:	f43f aa0d 	beq.w	10012c7c <_vfprintf_r+0x42c>
10013862:	9b13      	ldr	r3, [sp, #76]	@ 0x4c
10013864:	9914      	ldr	r1, [sp, #80]	@ 0x50
10013866:	191a      	adds	r2, r3, r4
10013868:	e9ca 1300 	strd	r1, r3, [sl]
1001386c:	9b26      	ldr	r3, [sp, #152]	@ 0x98
1001386e:	9227      	str	r2, [sp, #156]	@ 0x9c
10013870:	3301      	adds	r3, #1
10013872:	2b07      	cmp	r3, #7
10013874:	9326      	str	r3, [sp, #152]	@ 0x98
10013876:	f300 80d4 	bgt.w	10013a22 <_vfprintf_r+0x11d2>
1001387a:	f10a 0a08 	add.w	sl, sl, #8
1001387e:	9912      	ldr	r1, [sp, #72]	@ 0x48
10013880:	f8ca 5000 	str.w	r5, [sl]
10013884:	3301      	adds	r3, #1
10013886:	188c      	adds	r4, r1, r2
10013888:	2b07      	cmp	r3, #7
1001388a:	e9cd 3426 	strd	r3, r4, [sp, #152]	@ 0x98
1001388e:	f8ca 1004 	str.w	r1, [sl, #4]
10013892:	f77f a9f1 	ble.w	10012c78 <_vfprintf_r+0x428>
10013896:	e451      	b.n	1001313c <_vfprintf_r+0x8ec>
10013898:	9908      	ldr	r1, [sp, #32]
1001389a:	980c      	ldr	r0, [sp, #48]	@ 0x30
1001389c:	aa25      	add	r2, sp, #148	@ 0x94
1001389e:	f001 fe81 	bl	100155a4 <__sprint_r>
100138a2:	2800      	cmp	r0, #0
100138a4:	f47f a97f 	bne.w	10012ba6 <_vfprintf_r+0x356>
100138a8:	9c27      	ldr	r4, [sp, #156]	@ 0x9c
100138aa:	f10d 0ac8 	add.w	sl, sp, #200	@ 0xc8
100138ae:	f7ff bb49 	b.w	10012f44 <_vfprintf_r+0x6f4>
100138b2:	980c      	ldr	r0, [sp, #48]	@ 0x30
100138b4:	f7fe fd66 	bl	10012384 <__sinit>
100138b8:	f7fe bfe0 	b.w	1001287c <_vfprintf_r+0x2c>
100138bc:	9908      	ldr	r1, [sp, #32]
100138be:	980c      	ldr	r0, [sp, #48]	@ 0x30
100138c0:	aa25      	add	r2, sp, #148	@ 0x94
100138c2:	f001 fe6f 	bl	100155a4 <__sprint_r>
100138c6:	2800      	cmp	r0, #0
100138c8:	f47f a96d 	bne.w	10012ba6 <_vfprintf_r+0x356>
100138cc:	9c27      	ldr	r4, [sp, #156]	@ 0x9c
100138ce:	f10d 0ac8 	add.w	sl, sp, #200	@ 0xc8
100138d2:	f7ff b9ba 	b.w	10012c4a <_vfprintf_r+0x3fa>
100138d6:	4628      	mov	r0, r5
100138d8:	f7fd fd12 	bl	10011300 <strlen>
100138dc:	ea20 73e0 	bic.w	r3, r0, r0, asr #31
100138e0:	940d      	str	r4, [sp, #52]	@ 0x34
100138e2:	900b      	str	r0, [sp, #44]	@ 0x2c
100138e4:	f89d 4077 	ldrb.w	r4, [sp, #119]	@ 0x77
100138e8:	9706      	str	r7, [sp, #24]
100138ea:	46b1      	mov	r9, r6
100138ec:	9307      	str	r3, [sp, #28]
100138ee:	960f      	str	r6, [sp, #60]	@ 0x3c
100138f0:	f7ff b92c 	b.w	10012b4c <_vfprintf_r+0x2fc>
100138f4:	9b13      	ldr	r3, [sp, #76]	@ 0x4c
100138f6:	9814      	ldr	r0, [sp, #80]	@ 0x50
100138f8:	191a      	adds	r2, r3, r4
100138fa:	e9ca 0300 	strd	r0, r3, [sl]
100138fe:	9b26      	ldr	r3, [sp, #152]	@ 0x98
10013900:	9227      	str	r2, [sp, #156]	@ 0x9c
10013902:	3301      	adds	r3, #1
10013904:	2b07      	cmp	r3, #7
10013906:	9326      	str	r3, [sp, #152]	@ 0x98
10013908:	f300 808b 	bgt.w	10013a22 <_vfprintf_r+0x11d2>
1001390c:	f10a 0a08 	add.w	sl, sl, #8
10013910:	2900      	cmp	r1, #0
10013912:	dab4      	bge.n	1001387e <_vfprintf_r+0x102e>
10013914:	424e      	negs	r6, r1
10013916:	3110      	adds	r1, #16
10013918:	4f60      	ldr	r7, [pc, #384]	@ (10013a9c <_vfprintf_r+0x124c>)
1001391a:	f280 8117 	bge.w	10013b4c <_vfprintf_r+0x12fc>
1001391e:	f8dd 8030 	ldr.w	r8, [sp, #48]	@ 0x30
10013922:	f8dd 9020 	ldr.w	r9, [sp, #32]
10013926:	2410      	movs	r4, #16
10013928:	e005      	b.n	10013936 <_vfprintf_r+0x10e6>
1001392a:	f10a 0a08 	add.w	sl, sl, #8
1001392e:	3e10      	subs	r6, #16
10013930:	2e10      	cmp	r6, #16
10013932:	f340 810b 	ble.w	10013b4c <_vfprintf_r+0x12fc>
10013936:	3301      	adds	r3, #1
10013938:	3210      	adds	r2, #16
1001393a:	2b07      	cmp	r3, #7
1001393c:	e9ca 7400 	strd	r7, r4, [sl]
10013940:	e9cd 3226 	strd	r3, r2, [sp, #152]	@ 0x98
10013944:	ddf1      	ble.n	1001392a <_vfprintf_r+0x10da>
10013946:	aa25      	add	r2, sp, #148	@ 0x94
10013948:	4649      	mov	r1, r9
1001394a:	4640      	mov	r0, r8
1001394c:	f001 fe2a 	bl	100155a4 <__sprint_r>
10013950:	2800      	cmp	r0, #0
10013952:	f47f a928 	bne.w	10012ba6 <_vfprintf_r+0x356>
10013956:	e9dd 3226 	ldrd	r3, r2, [sp, #152]	@ 0x98
1001395a:	f10d 0ac8 	add.w	sl, sp, #200	@ 0xc8
1001395e:	e7e6      	b.n	1001392e <_vfprintf_r+0x10de>
10013960:	3601      	adds	r6, #1
10013962:	444c      	add	r4, r9
10013964:	2e07      	cmp	r6, #7
10013966:	e9cd 6426 	strd	r6, r4, [sp, #152]	@ 0x98
1001396a:	f8c8 7000 	str.w	r7, [r8]
1001396e:	f8c8 9004 	str.w	r9, [r8, #4]
10013972:	f77f ac29 	ble.w	100131c8 <_vfprintf_r+0x978>
10013976:	e544      	b.n	10013402 <_vfprintf_r+0xbb2>
10013978:	4614      	mov	r4, r2
1001397a:	3301      	adds	r3, #1
1001397c:	4434      	add	r4, r6
1001397e:	2b07      	cmp	r3, #7
10013980:	e9cd 3426 	strd	r3, r4, [sp, #152]	@ 0x98
10013984:	f8ca 7000 	str.w	r7, [sl]
10013988:	f8ca 6004 	str.w	r6, [sl, #4]
1001398c:	dc57      	bgt.n	10013a3e <_vfprintf_r+0x11ee>
1001398e:	f10a 0a08 	add.w	sl, sl, #8
10013992:	e4da      	b.n	1001334a <_vfprintf_r+0xafa>
10013994:	242d      	movs	r4, #45	@ 0x2d
10013996:	f88d 4077 	strb.w	r4, [sp, #119]	@ 0x77
1001399a:	f7ff b9b4 	b.w	10012d06 <_vfprintf_r+0x4b6>
1001399e:	9908      	ldr	r1, [sp, #32]
100139a0:	980c      	ldr	r0, [sp, #48]	@ 0x30
100139a2:	aa25      	add	r2, sp, #148	@ 0x94
100139a4:	f001 fdfe 	bl	100155a4 <__sprint_r>
100139a8:	2800      	cmp	r0, #0
100139aa:	f47f a8fc 	bne.w	10012ba6 <_vfprintf_r+0x356>
100139ae:	991f      	ldr	r1, [sp, #124]	@ 0x7c
100139b0:	9c27      	ldr	r4, [sp, #156]	@ 0x9c
100139b2:	f10d 0ac8 	add.w	sl, sp, #200	@ 0xc8
100139b6:	e74b      	b.n	10013850 <_vfprintf_r+0x1000>
100139b8:	9a1f      	ldr	r2, [sp, #124]	@ 0x7c
100139ba:	920f      	str	r2, [sp, #60]	@ 0x3c
100139bc:	4623      	mov	r3, r4
100139be:	e5d5      	b.n	1001356c <_vfprintf_r+0xd1c>
100139c0:	9908      	ldr	r1, [sp, #32]
100139c2:	980c      	ldr	r0, [sp, #48]	@ 0x30
100139c4:	aa25      	add	r2, sp, #148	@ 0x94
100139c6:	f001 fded 	bl	100155a4 <__sprint_r>
100139ca:	f7ff b8ec 	b.w	10012ba6 <_vfprintf_r+0x356>
100139ce:	f10d 0493 	add.w	r4, sp, #147	@ 0x93
100139d2:	4e30      	ldr	r6, [pc, #192]	@ (10013a94 <_vfprintf_r+0x1244>)
100139d4:	4623      	mov	r3, r4
100139d6:	4618      	mov	r0, r3
100139d8:	fba6 2301 	umull	r2, r3, r6, r1
100139dc:	08db      	lsrs	r3, r3, #3
100139de:	eb03 0283 	add.w	r2, r3, r3, lsl #2
100139e2:	eba1 0242 	sub.w	r2, r1, r2, lsl #1
100139e6:	3230      	adds	r2, #48	@ 0x30
100139e8:	f800 2c01 	strb.w	r2, [r0, #-1]
100139ec:	460a      	mov	r2, r1
100139ee:	2a63      	cmp	r2, #99	@ 0x63
100139f0:	4619      	mov	r1, r3
100139f2:	f100 33ff 	add.w	r3, r0, #4294967295	@ 0xffffffff
100139f6:	dcee      	bgt.n	100139d6 <_vfprintf_r+0x1186>
100139f8:	3130      	adds	r1, #48	@ 0x30
100139fa:	f803 1c01 	strb.w	r1, [r3, #-1]
100139fe:	1e83      	subs	r3, r0, #2
10013a00:	42a3      	cmp	r3, r4
10013a02:	f080 8122 	bcs.w	10013c4a <_vfprintf_r+0x13fa>
10013a06:	f10d 0285 	add.w	r2, sp, #133	@ 0x85
10013a0a:	f813 1b01 	ldrb.w	r1, [r3], #1
10013a0e:	f802 1f01 	strb.w	r1, [r2, #1]!
10013a12:	42a3      	cmp	r3, r4
10013a14:	d1f9      	bne.n	10013a0a <_vfprintf_r+0x11ba>
10013a16:	ab42      	add	r3, sp, #264	@ 0x108
10013a18:	1a18      	subs	r0, r3, r0
10013a1a:	f1a0 0371 	sub.w	r3, r0, #113	@ 0x71
10013a1e:	9316      	str	r3, [sp, #88]	@ 0x58
10013a20:	e681      	b.n	10013726 <_vfprintf_r+0xed6>
10013a22:	9908      	ldr	r1, [sp, #32]
10013a24:	980c      	ldr	r0, [sp, #48]	@ 0x30
10013a26:	aa25      	add	r2, sp, #148	@ 0x94
10013a28:	f001 fdbc 	bl	100155a4 <__sprint_r>
10013a2c:	2800      	cmp	r0, #0
10013a2e:	f47f a8ba 	bne.w	10012ba6 <_vfprintf_r+0x356>
10013a32:	e9dd 3226 	ldrd	r3, r2, [sp, #152]	@ 0x98
10013a36:	991f      	ldr	r1, [sp, #124]	@ 0x7c
10013a38:	f10d 0ac8 	add.w	sl, sp, #200	@ 0xc8
10013a3c:	e768      	b.n	10013910 <_vfprintf_r+0x10c0>
10013a3e:	9908      	ldr	r1, [sp, #32]
10013a40:	980c      	ldr	r0, [sp, #48]	@ 0x30
10013a42:	aa25      	add	r2, sp, #148	@ 0x94
10013a44:	f001 fdae 	bl	100155a4 <__sprint_r>
10013a48:	2800      	cmp	r0, #0
10013a4a:	f47f a8ac 	bne.w	10012ba6 <_vfprintf_r+0x356>
10013a4e:	9c27      	ldr	r4, [sp, #156]	@ 0x9c
10013a50:	f10d 0ac8 	add.w	sl, sp, #200	@ 0xc8
10013a54:	e479      	b.n	1001334a <_vfprintf_r+0xafa>
10013a56:	f109 0301 	add.w	r3, r9, #1
10013a5a:	9307      	str	r3, [sp, #28]
10013a5c:	2302      	movs	r3, #2
10013a5e:	9300      	str	r3, [sp, #0]
10013a60:	ab23      	add	r3, sp, #140	@ 0x8c
10013a62:	9304      	str	r3, [sp, #16]
10013a64:	ab20      	add	r3, sp, #128	@ 0x80
10013a66:	9c07      	ldr	r4, [sp, #28]
10013a68:	9303      	str	r3, [sp, #12]
10013a6a:	ab1f      	add	r3, sp, #124	@ 0x7c
10013a6c:	9401      	str	r4, [sp, #4]
10013a6e:	9302      	str	r3, [sp, #8]
10013a70:	980c      	ldr	r0, [sp, #48]	@ 0x30
10013a72:	e9dd 231a 	ldrd	r2, r3, [sp, #104]	@ 0x68
10013a76:	f000 fd8d 	bl	10014594 <_dtoa_r>
10013a7a:	f1b8 0f66 	cmp.w	r8, #102	@ 0x66
10013a7e:	4605      	mov	r5, r0
10013a80:	4404      	add	r4, r0
10013a82:	f47f ad5e 	bne.w	10013542 <_vfprintf_r+0xcf2>
10013a86:	782b      	ldrb	r3, [r5, #0]
10013a88:	2b30      	cmp	r3, #48	@ 0x30
10013a8a:	f000 808d 	beq.w	10013ba8 <_vfprintf_r+0x1358>
10013a8e:	9b1f      	ldr	r3, [sp, #124]	@ 0x7c
10013a90:	441c      	add	r4, r3
10013a92:	e556      	b.n	10013542 <_vfprintf_r+0xcf2>
10013a94:	cccccccd 	.word	0xcccccccd
10013a98:	100180e0 	.word	0x100180e0
10013a9c:	1001a380 	.word	0x1001a380
10013aa0:	f8dd 9038 	ldr.w	r9, [sp, #56]	@ 0x38
10013aa4:	f89d 4077 	ldrb.w	r4, [sp, #119]	@ 0x77
10013aa8:	f7ff b850 	b.w	10012b4c <_vfprintf_r+0x2fc>
10013aac:	f102 4300 	add.w	r3, r2, #2147483648	@ 0x80000000
10013ab0:	931b      	str	r3, [sp, #108]	@ 0x6c
10013ab2:	232d      	movs	r3, #45	@ 0x2d
10013ab4:	911a      	str	r1, [sp, #104]	@ 0x68
10013ab6:	930e      	str	r3, [sp, #56]	@ 0x38
10013ab8:	e524      	b.n	10013504 <_vfprintf_r+0xcb4>
10013aba:	9908      	ldr	r1, [sp, #32]
10013abc:	980c      	ldr	r0, [sp, #48]	@ 0x30
10013abe:	aa25      	add	r2, sp, #148	@ 0x94
10013ac0:	f001 fd70 	bl	100155a4 <__sprint_r>
10013ac4:	2800      	cmp	r0, #0
10013ac6:	f47f a86e 	bne.w	10012ba6 <_vfprintf_r+0x356>
10013aca:	9b1f      	ldr	r3, [sp, #124]	@ 0x7c
10013acc:	9c27      	ldr	r4, [sp, #156]	@ 0x9c
10013ace:	f10d 0ac8 	add.w	sl, sp, #200	@ 0xc8
10013ad2:	e443      	b.n	1001335c <_vfprintf_r+0xb0c>
10013ad4:	f1b8 0f66 	cmp.w	r8, #102	@ 0x66
10013ad8:	f47f ad1e 	bne.w	10013518 <_vfprintf_r+0xcc8>
10013adc:	f8cd 901c 	str.w	r9, [sp, #28]
10013ae0:	2303      	movs	r3, #3
10013ae2:	e7bc      	b.n	10013a5e <_vfprintf_r+0x120e>
10013ae4:	9908      	ldr	r1, [sp, #32]
10013ae6:	980c      	ldr	r0, [sp, #48]	@ 0x30
10013ae8:	aa25      	add	r2, sp, #148	@ 0x94
10013aea:	f001 fd5b 	bl	100155a4 <__sprint_r>
10013aee:	2800      	cmp	r0, #0
10013af0:	f47f a859 	bne.w	10012ba6 <_vfprintf_r+0x356>
10013af4:	9c27      	ldr	r4, [sp, #156]	@ 0x9c
10013af6:	f10d 0ac8 	add.w	sl, sp, #200	@ 0xc8
10013afa:	e41f      	b.n	1001333c <_vfprintf_r+0xaec>
10013afc:	9908      	ldr	r1, [sp, #32]
10013afe:	980c      	ldr	r0, [sp, #48]	@ 0x30
10013b00:	aa25      	add	r2, sp, #148	@ 0x94
10013b02:	f001 fd4f 	bl	100155a4 <__sprint_r>
10013b06:	2800      	cmp	r0, #0
10013b08:	f47f a84d 	bne.w	10012ba6 <_vfprintf_r+0x356>
10013b0c:	9b1f      	ldr	r3, [sp, #124]	@ 0x7c
10013b0e:	9a12      	ldr	r2, [sp, #72]	@ 0x48
10013b10:	9c27      	ldr	r4, [sp, #156]	@ 0x9c
10013b12:	1ad3      	subs	r3, r2, r3
10013b14:	f10d 0ac8 	add.w	sl, sp, #200	@ 0xc8
10013b18:	e438      	b.n	1001338c <_vfprintf_r+0xb3c>
10013b1a:	f04f 0906 	mov.w	r9, #6
10013b1e:	e4e3      	b.n	100134e8 <_vfprintf_r+0xc98>
10013b20:	f04f 33ff 	mov.w	r3, #4294967295	@ 0xffffffff
10013b24:	930a      	str	r3, [sp, #40]	@ 0x28
10013b26:	f7ff b843 	b.w	10012bb0 <_vfprintf_r+0x360>
10013b2a:	940d      	str	r4, [sp, #52]	@ 0x34
10013b2c:	f8cd 901c 	str.w	r9, [sp, #28]
10013b30:	f8cd 902c 	str.w	r9, [sp, #44]	@ 0x2c
10013b34:	f89d 4077 	ldrb.w	r4, [sp, #119]	@ 0x77
10013b38:	9706      	str	r7, [sp, #24]
10013b3a:	4681      	mov	r9, r0
10013b3c:	900f      	str	r0, [sp, #60]	@ 0x3c
10013b3e:	f7ff b805 	b.w	10012b4c <_vfprintf_r+0x2fc>
10013b42:	4693      	mov	fp, r2
10013b44:	f04f 0900 	mov.w	r9, #0
10013b48:	f7fe bee9 	b.w	1001291e <_vfprintf_r+0xce>
10013b4c:	3301      	adds	r3, #1
10013b4e:	4432      	add	r2, r6
10013b50:	2b07      	cmp	r3, #7
10013b52:	e9cd 3226 	strd	r3, r2, [sp, #152]	@ 0x98
10013b56:	f8ca 7000 	str.w	r7, [sl]
10013b5a:	f8ca 6004 	str.w	r6, [sl, #4]
10013b5e:	f77f ae8c 	ble.w	1001387a <_vfprintf_r+0x102a>
10013b62:	9908      	ldr	r1, [sp, #32]
10013b64:	980c      	ldr	r0, [sp, #48]	@ 0x30
10013b66:	aa25      	add	r2, sp, #148	@ 0x94
10013b68:	f001 fd1c 	bl	100155a4 <__sprint_r>
10013b6c:	2800      	cmp	r0, #0
10013b6e:	f47f a81a 	bne.w	10012ba6 <_vfprintf_r+0x356>
10013b72:	e9dd 3226 	ldrd	r3, r2, [sp, #152]	@ 0x98
10013b76:	f10d 0ac8 	add.w	sl, sp, #200	@ 0xc8
10013b7a:	e680      	b.n	1001387e <_vfprintf_r+0x102e>
10013b7c:	f017 0201 	ands.w	r2, r7, #1
10013b80:	920f      	str	r2, [sp, #60]	@ 0x3c
10013b82:	f47f add7 	bne.w	10013734 <_vfprintf_r+0xee4>
10013b86:	ea23 73e3 	bic.w	r3, r3, r3, asr #31
10013b8a:	9307      	str	r3, [sp, #28]
10013b8c:	e507      	b.n	1001359e <_vfprintf_r+0xd4e>
10013b8e:	e9dd 3212 	ldrd	r3, r2, [sp, #72]	@ 0x48
10013b92:	4413      	add	r3, r2
10013b94:	9a0f      	ldr	r2, [sp, #60]	@ 0x3c
10013b96:	930b      	str	r3, [sp, #44]	@ 0x2c
10013b98:	2a00      	cmp	r2, #0
10013b9a:	dd2d      	ble.n	10013bf8 <_vfprintf_r+0x13a8>
10013b9c:	ea23 73e3 	bic.w	r3, r3, r3, asr #31
10013ba0:	9307      	str	r3, [sp, #28]
10013ba2:	f04f 0867 	mov.w	r8, #103	@ 0x67
10013ba6:	e4fa      	b.n	1001359e <_vfprintf_r+0xd4e>
10013ba8:	e9dd 011a 	ldrd	r0, r1, [sp, #104]	@ 0x68
10013bac:	2200      	movs	r2, #0
10013bae:	2300      	movs	r3, #0
10013bb0:	f003 fe34 	bl	1001781c <__aeabi_dcmpeq>
10013bb4:	2800      	cmp	r0, #0
10013bb6:	d037      	beq.n	10013c28 <_vfprintf_r+0x13d8>
10013bb8:	9b1f      	ldr	r3, [sp, #124]	@ 0x7c
10013bba:	930f      	str	r3, [sp, #60]	@ 0x3c
10013bbc:	441c      	add	r4, r3
10013bbe:	1b63      	subs	r3, r4, r5
10013bc0:	9312      	str	r3, [sp, #72]	@ 0x48
10013bc2:	e4dc      	b.n	1001357e <_vfprintf_r+0xd2e>
10013bc4:	9b11      	ldr	r3, [sp, #68]	@ 0x44
10013bc6:	4d2c      	ldr	r5, [pc, #176]	@ (10013c78 <_vfprintf_r+0x1428>)
10013bc8:	2b00      	cmp	r3, #0
10013bca:	bfb8      	it	lt
10013bcc:	242d      	movlt	r4, #45	@ 0x2d
10013bce:	f027 0380 	bic.w	r3, r7, #128	@ 0x80
10013bd2:	9306      	str	r3, [sp, #24]
10013bd4:	bfa8      	it	ge
10013bd6:	f89d 4077 	ldrbge.w	r4, [sp, #119]	@ 0x77
10013bda:	4b28      	ldr	r3, [pc, #160]	@ (10013c7c <_vfprintf_r+0x142c>)
10013bdc:	bfb8      	it	lt
10013bde:	f88d 4077 	strblt.w	r4, [sp, #119]	@ 0x77
10013be2:	f7ff b895 	b.w	10012d10 <_vfprintf_r+0x4c0>
10013be6:	9a13      	ldr	r2, [sp, #76]	@ 0x4c
10013be8:	4413      	add	r3, r2
10013bea:	930b      	str	r3, [sp, #44]	@ 0x2c
10013bec:	ea23 73e3 	bic.w	r3, r3, r3, asr #31
10013bf0:	9307      	str	r3, [sp, #28]
10013bf2:	f04f 0867 	mov.w	r8, #103	@ 0x67
10013bf6:	e4d2      	b.n	1001359e <_vfprintf_r+0xd4e>
10013bf8:	9b0f      	ldr	r3, [sp, #60]	@ 0x3c
10013bfa:	9a0b      	ldr	r2, [sp, #44]	@ 0x2c
10013bfc:	f1c3 0301 	rsb	r3, r3, #1
10013c00:	441a      	add	r2, r3
10013c02:	ea22 73e2 	bic.w	r3, r2, r2, asr #31
10013c06:	920b      	str	r2, [sp, #44]	@ 0x2c
10013c08:	9307      	str	r3, [sp, #28]
10013c0a:	f04f 0867 	mov.w	r8, #103	@ 0x67
10013c0e:	e4c6      	b.n	1001359e <_vfprintf_r+0xd4e>
10013c10:	9b13      	ldr	r3, [sp, #76]	@ 0x4c
10013c12:	eb09 0803 	add.w	r8, r9, r3
10013c16:	eb08 0302 	add.w	r3, r8, r2
10013c1a:	930b      	str	r3, [sp, #44]	@ 0x2c
10013c1c:	ea23 73e3 	bic.w	r3, r3, r3, asr #31
10013c20:	9307      	str	r3, [sp, #28]
10013c22:	f04f 0866 	mov.w	r8, #102	@ 0x66
10013c26:	e4ba      	b.n	1001359e <_vfprintf_r+0xd4e>
10013c28:	9b07      	ldr	r3, [sp, #28]
10013c2a:	f1c3 0301 	rsb	r3, r3, #1
10013c2e:	931f      	str	r3, [sp, #124]	@ 0x7c
10013c30:	441c      	add	r4, r3
10013c32:	e486      	b.n	10013542 <_vfprintf_r+0xcf2>
10013c34:	990d      	ldr	r1, [sp, #52]	@ 0x34
10013c36:	f89b 3001 	ldrb.w	r3, [fp, #1]
10013c3a:	f851 9b04 	ldr.w	r9, [r1], #4
10013c3e:	910d      	str	r1, [sp, #52]	@ 0x34
10013c40:	4693      	mov	fp, r2
10013c42:	ea49 79e9 	orr.w	r9, r9, r9, asr #31
10013c46:	f7fe be67 	b.w	10012918 <_vfprintf_r+0xc8>
10013c4a:	2302      	movs	r3, #2
10013c4c:	9316      	str	r3, [sp, #88]	@ 0x58
10013c4e:	e56a      	b.n	10013726 <_vfprintf_r+0xed6>
10013c50:	b92b      	cbnz	r3, 10013c5e <_vfprintf_r+0x140e>
10013c52:	2301      	movs	r3, #1
10013c54:	9307      	str	r3, [sp, #28]
10013c56:	f04f 0866 	mov.w	r8, #102	@ 0x66
10013c5a:	930b      	str	r3, [sp, #44]	@ 0x2c
10013c5c:	e49f      	b.n	1001359e <_vfprintf_r+0xd4e>
10013c5e:	9b13      	ldr	r3, [sp, #76]	@ 0x4c
10013c60:	f103 0801 	add.w	r8, r3, #1
10013c64:	eb08 0309 	add.w	r3, r8, r9
10013c68:	930b      	str	r3, [sp, #44]	@ 0x2c
10013c6a:	ea23 73e3 	bic.w	r3, r3, r3, asr #31
10013c6e:	9307      	str	r3, [sp, #28]
10013c70:	f04f 0866 	mov.w	r8, #102	@ 0x66
10013c74:	e493      	b.n	1001359e <_vfprintf_r+0xd4e>
10013c76:	bf00      	nop
10013c78:	100180ac 	.word	0x100180ac
10013c7c:	100180a8 	.word	0x100180a8

10013c80 <vfprintf>:
10013c80:	b410      	push	{r4}
10013c82:	4c04      	ldr	r4, [pc, #16]	@ (10013c94 <vfprintf+0x14>)
10013c84:	4684      	mov	ip, r0
10013c86:	4613      	mov	r3, r2
10013c88:	6820      	ldr	r0, [r4, #0]
10013c8a:	bc10      	pop	{r4}
10013c8c:	460a      	mov	r2, r1
10013c8e:	4661      	mov	r1, ip
10013c90:	f7fe bdde 	b.w	10012850 <_vfprintf_r>
10013c94:	20000010 	.word	0x20000010

10013c98 <__sbprintf>:
10013c98:	b570      	push	{r4, r5, r6, lr}
10013c9a:	460c      	mov	r4, r1
10013c9c:	8989      	ldrh	r1, [r1, #12]
10013c9e:	f5ad 6d8d 	sub.w	sp, sp, #1128	@ 0x468
10013ca2:	f021 0102 	bic.w	r1, r1, #2
10013ca6:	f8ad 100c 	strh.w	r1, [sp, #12]
10013caa:	a91a      	add	r1, sp, #104	@ 0x68
10013cac:	9100      	str	r1, [sp, #0]
10013cae:	9104      	str	r1, [sp, #16]
10013cb0:	f44f 6180 	mov.w	r1, #1024	@ 0x400
10013cb4:	9102      	str	r1, [sp, #8]
10013cb6:	9105      	str	r1, [sp, #20]
10013cb8:	6e61      	ldr	r1, [r4, #100]	@ 0x64
10013cba:	9119      	str	r1, [sp, #100]	@ 0x64
10013cbc:	89e1      	ldrh	r1, [r4, #14]
10013cbe:	f8ad 100e 	strh.w	r1, [sp, #14]
10013cc2:	69e1      	ldr	r1, [r4, #28]
10013cc4:	9107      	str	r1, [sp, #28]
10013cc6:	6a61      	ldr	r1, [r4, #36]	@ 0x24
10013cc8:	9109      	str	r1, [sp, #36]	@ 0x24
10013cca:	2100      	movs	r1, #0
10013ccc:	9106      	str	r1, [sp, #24]
10013cce:	4669      	mov	r1, sp
10013cd0:	4606      	mov	r6, r0
10013cd2:	f7fe fdbd 	bl	10012850 <_vfprintf_r>
10013cd6:	1e05      	subs	r5, r0, #0
10013cd8:	db07      	blt.n	10013cea <__sbprintf+0x52>
10013cda:	4669      	mov	r1, sp
10013cdc:	4630      	mov	r0, r6
10013cde:	f7fd fc61 	bl	100115a4 <_fflush_r>
10013ce2:	2800      	cmp	r0, #0
10013ce4:	bf18      	it	ne
10013ce6:	f04f 35ff 	movne.w	r5, #4294967295	@ 0xffffffff
10013cea:	f8bd 300c 	ldrh.w	r3, [sp, #12]
10013cee:	065b      	lsls	r3, r3, #25
10013cf0:	d503      	bpl.n	10013cfa <__sbprintf+0x62>
10013cf2:	89a3      	ldrh	r3, [r4, #12]
10013cf4:	f043 0340 	orr.w	r3, r3, #64	@ 0x40
10013cf8:	81a3      	strh	r3, [r4, #12]
10013cfa:	4628      	mov	r0, r5
10013cfc:	f50d 6d8d 	add.w	sp, sp, #1128	@ 0x468
10013d00:	bd70      	pop	{r4, r5, r6, pc}
10013d02:	bf00      	nop

10013d04 <__smakebuf_r>:
10013d04:	e92d 41f0 	stmdb	sp!, {r4, r5, r6, r7, r8, lr}
10013d08:	f9b1 300c 	ldrsh.w	r3, [r1, #12]
10013d0c:	460c      	mov	r4, r1
10013d0e:	0799      	lsls	r1, r3, #30
10013d10:	b096      	sub	sp, #88	@ 0x58
10013d12:	d508      	bpl.n	10013d26 <__smakebuf_r+0x22>
10013d14:	f104 0343 	add.w	r3, r4, #67	@ 0x43
10013d18:	2201      	movs	r2, #1
10013d1a:	e9c4 3204 	strd	r3, r2, [r4, #16]
10013d1e:	6023      	str	r3, [r4, #0]
10013d20:	b016      	add	sp, #88	@ 0x58
10013d22:	e8bd 81f0 	ldmia.w	sp!, {r4, r5, r6, r7, r8, pc}
10013d26:	f9b4 100e 	ldrsh.w	r1, [r4, #14]
10013d2a:	2900      	cmp	r1, #0
10013d2c:	4606      	mov	r6, r0
10013d2e:	db26      	blt.n	10013d7e <__smakebuf_r+0x7a>
10013d30:	466a      	mov	r2, sp
10013d32:	f7fe f9a7 	bl	10012084 <_fstat_r>
10013d36:	2800      	cmp	r0, #0
10013d38:	db1f      	blt.n	10013d7a <__smakebuf_r+0x76>
10013d3a:	9d01      	ldr	r5, [sp, #4]
10013d3c:	f405 4570 	and.w	r5, r5, #61440	@ 0xf000
10013d40:	f5a5 5500 	sub.w	r5, r5, #8192	@ 0x2000
10013d44:	fab5 f585 	clz	r5, r5
10013d48:	f44f 6880 	mov.w	r8, #1024	@ 0x400
10013d4c:	096d      	lsrs	r5, r5, #5
10013d4e:	f44f 6700 	mov.w	r7, #2048	@ 0x800
10013d52:	4641      	mov	r1, r8
10013d54:	4630      	mov	r0, r6
10013d56:	f000 f8d9 	bl	10013f0c <_malloc_r>
10013d5a:	b1e8      	cbz	r0, 10013d98 <__smakebuf_r+0x94>
10013d5c:	f9b4 300c 	ldrsh.w	r3, [r4, #12]
10013d60:	f8c4 8014 	str.w	r8, [r4, #20]
10013d64:	f043 0380 	orr.w	r3, r3, #128	@ 0x80
10013d68:	6020      	str	r0, [r4, #0]
10013d6a:	6120      	str	r0, [r4, #16]
10013d6c:	81a3      	strh	r3, [r4, #12]
10013d6e:	bb3d      	cbnz	r5, 10013dc0 <__smakebuf_r+0xbc>
10013d70:	433b      	orrs	r3, r7
10013d72:	81a3      	strh	r3, [r4, #12]
10013d74:	b016      	add	sp, #88	@ 0x58
10013d76:	e8bd 81f0 	ldmia.w	sp!, {r4, r5, r6, r7, r8, pc}
10013d7a:	f9b4 300c 	ldrsh.w	r3, [r4, #12]
10013d7e:	f013 0580 	ands.w	r5, r3, #128	@ 0x80
10013d82:	d019      	beq.n	10013db8 <__smakebuf_r+0xb4>
10013d84:	f04f 0840 	mov.w	r8, #64	@ 0x40
10013d88:	2500      	movs	r5, #0
10013d8a:	4641      	mov	r1, r8
10013d8c:	4630      	mov	r0, r6
10013d8e:	462f      	mov	r7, r5
10013d90:	f000 f8bc 	bl	10013f0c <_malloc_r>
10013d94:	2800      	cmp	r0, #0
10013d96:	d1e1      	bne.n	10013d5c <__smakebuf_r+0x58>
10013d98:	f9b4 300c 	ldrsh.w	r3, [r4, #12]
10013d9c:	059a      	lsls	r2, r3, #22
10013d9e:	d4bf      	bmi.n	10013d20 <__smakebuf_r+0x1c>
10013da0:	f023 0303 	bic.w	r3, r3, #3
10013da4:	f104 0243 	add.w	r2, r4, #67	@ 0x43
10013da8:	f043 0302 	orr.w	r3, r3, #2
10013dac:	2101      	movs	r1, #1
10013dae:	e9c4 2104 	strd	r2, r1, [r4, #16]
10013db2:	81a3      	strh	r3, [r4, #12]
10013db4:	6022      	str	r2, [r4, #0]
10013db6:	e7b3      	b.n	10013d20 <__smakebuf_r+0x1c>
10013db8:	f44f 6880 	mov.w	r8, #1024	@ 0x400
10013dbc:	462f      	mov	r7, r5
10013dbe:	e7c8      	b.n	10013d52 <__smakebuf_r+0x4e>
10013dc0:	f9b4 100e 	ldrsh.w	r1, [r4, #14]
10013dc4:	4630      	mov	r0, r6
10013dc6:	f001 fbdb 	bl	10015580 <_isatty_r>
10013dca:	b910      	cbnz	r0, 10013dd2 <__smakebuf_r+0xce>
10013dcc:	f9b4 300c 	ldrsh.w	r3, [r4, #12]
10013dd0:	e7ce      	b.n	10013d70 <__smakebuf_r+0x6c>
10013dd2:	89a3      	ldrh	r3, [r4, #12]
10013dd4:	f023 0303 	bic.w	r3, r3, #3
10013dd8:	f043 0301 	orr.w	r3, r3, #1
10013ddc:	b21b      	sxth	r3, r3
10013dde:	e7c7      	b.n	10013d70 <__smakebuf_r+0x6c>

10013de0 <__swhatbuf_r>:
10013de0:	b570      	push	{r4, r5, r6, lr}
10013de2:	460c      	mov	r4, r1
10013de4:	f9b1 100e 	ldrsh.w	r1, [r1, #14]
10013de8:	2900      	cmp	r1, #0
10013dea:	b096      	sub	sp, #88	@ 0x58
10013dec:	4615      	mov	r5, r2
10013dee:	461e      	mov	r6, r3
10013df0:	db14      	blt.n	10013e1c <__swhatbuf_r+0x3c>
10013df2:	466a      	mov	r2, sp
10013df4:	f7fe f946 	bl	10012084 <_fstat_r>
10013df8:	2800      	cmp	r0, #0
10013dfa:	db0f      	blt.n	10013e1c <__swhatbuf_r+0x3c>
10013dfc:	9901      	ldr	r1, [sp, #4]
10013dfe:	f401 4170 	and.w	r1, r1, #61440	@ 0xf000
10013e02:	f5a1 5100 	sub.w	r1, r1, #8192	@ 0x2000
10013e06:	fab1 f181 	clz	r1, r1
10013e0a:	f44f 6380 	mov.w	r3, #1024	@ 0x400
10013e0e:	0949      	lsrs	r1, r1, #5
10013e10:	f44f 6000 	mov.w	r0, #2048	@ 0x800
10013e14:	6031      	str	r1, [r6, #0]
10013e16:	602b      	str	r3, [r5, #0]
10013e18:	b016      	add	sp, #88	@ 0x58
10013e1a:	bd70      	pop	{r4, r5, r6, pc}
10013e1c:	89a1      	ldrh	r1, [r4, #12]
10013e1e:	f011 0180 	ands.w	r1, r1, #128	@ 0x80
10013e22:	d006      	beq.n	10013e32 <__swhatbuf_r+0x52>
10013e24:	2100      	movs	r1, #0
10013e26:	2340      	movs	r3, #64	@ 0x40
10013e28:	4608      	mov	r0, r1
10013e2a:	6031      	str	r1, [r6, #0]
10013e2c:	602b      	str	r3, [r5, #0]
10013e2e:	b016      	add	sp, #88	@ 0x58
10013e30:	bd70      	pop	{r4, r5, r6, pc}
10013e32:	f44f 6380 	mov.w	r3, #1024	@ 0x400
10013e36:	4608      	mov	r0, r1
10013e38:	6031      	str	r1, [r6, #0]
10013e3a:	602b      	str	r3, [r5, #0]
10013e3c:	b016      	add	sp, #88	@ 0x58
10013e3e:	bd70      	pop	{r4, r5, r6, pc}

10013e40 <memchr>:
10013e40:	f001 01ff 	and.w	r1, r1, #255	@ 0xff
10013e44:	2a10      	cmp	r2, #16
10013e46:	db2b      	blt.n	10013ea0 <memchr+0x60>
10013e48:	f010 0f07 	tst.w	r0, #7
10013e4c:	d008      	beq.n	10013e60 <memchr+0x20>
10013e4e:	f810 3b01 	ldrb.w	r3, [r0], #1
10013e52:	3a01      	subs	r2, #1
10013e54:	428b      	cmp	r3, r1
10013e56:	d02d      	beq.n	10013eb4 <memchr+0x74>
10013e58:	f010 0f07 	tst.w	r0, #7
10013e5c:	b342      	cbz	r2, 10013eb0 <memchr+0x70>
10013e5e:	d1f6      	bne.n	10013e4e <memchr+0xe>
10013e60:	b4f0      	push	{r4, r5, r6, r7}
10013e62:	ea41 2101 	orr.w	r1, r1, r1, lsl #8
10013e66:	ea41 4101 	orr.w	r1, r1, r1, lsl #16
10013e6a:	f022 0407 	bic.w	r4, r2, #7
10013e6e:	f07f 0700 	mvns.w	r7, #0
10013e72:	2300      	movs	r3, #0
10013e74:	e8f0 5602 	ldrd	r5, r6, [r0], #8
10013e78:	3c08      	subs	r4, #8
10013e7a:	ea85 0501 	eor.w	r5, r5, r1
10013e7e:	ea86 0601 	eor.w	r6, r6, r1
10013e82:	fa85 f547 	uadd8	r5, r5, r7
10013e86:	faa3 f587 	sel	r5, r3, r7
10013e8a:	fa86 f647 	uadd8	r6, r6, r7
10013e8e:	faa5 f687 	sel	r6, r5, r7
10013e92:	b98e      	cbnz	r6, 10013eb8 <memchr+0x78>
10013e94:	d1ee      	bne.n	10013e74 <memchr+0x34>
10013e96:	bcf0      	pop	{r4, r5, r6, r7}
10013e98:	f001 01ff 	and.w	r1, r1, #255	@ 0xff
10013e9c:	f002 0207 	and.w	r2, r2, #7
10013ea0:	b132      	cbz	r2, 10013eb0 <memchr+0x70>
10013ea2:	f810 3b01 	ldrb.w	r3, [r0], #1
10013ea6:	3a01      	subs	r2, #1
10013ea8:	ea83 0301 	eor.w	r3, r3, r1
10013eac:	b113      	cbz	r3, 10013eb4 <memchr+0x74>
10013eae:	d1f8      	bne.n	10013ea2 <memchr+0x62>
10013eb0:	2000      	movs	r0, #0
10013eb2:	4770      	bx	lr
10013eb4:	3801      	subs	r0, #1
10013eb6:	4770      	bx	lr
10013eb8:	2d00      	cmp	r5, #0
10013eba:	bf06      	itte	eq
10013ebc:	4635      	moveq	r5, r6
10013ebe:	3803      	subeq	r0, #3
10013ec0:	3807      	subne	r0, #7
10013ec2:	f015 0f01 	tst.w	r5, #1
10013ec6:	d107      	bne.n	10013ed8 <memchr+0x98>
10013ec8:	3001      	adds	r0, #1
10013eca:	f415 7f80 	tst.w	r5, #256	@ 0x100
10013ece:	bf02      	ittt	eq
10013ed0:	3001      	addeq	r0, #1
10013ed2:	f415 3fc0 	tsteq.w	r5, #98304	@ 0x18000
10013ed6:	3001      	addeq	r0, #1
10013ed8:	bcf0      	pop	{r4, r5, r6, r7}
10013eda:	3801      	subs	r0, #1
10013edc:	4770      	bx	lr
10013ede:	bf00      	nop

10013ee0 <_read_r>:
10013ee0:	b538      	push	{r3, r4, r5, lr}
10013ee2:	460c      	mov	r4, r1
10013ee4:	4d08      	ldr	r5, [pc, #32]	@ (10013f08 <_read_r+0x28>)
10013ee6:	4684      	mov	ip, r0
10013ee8:	4611      	mov	r1, r2
10013eea:	4620      	mov	r0, r4
10013eec:	461a      	mov	r2, r3
10013eee:	2300      	movs	r3, #0
10013ef0:	602b      	str	r3, [r5, #0]
10013ef2:	4664      	mov	r4, ip
10013ef4:	f7fc f88c 	bl	10010010 <_read>
10013ef8:	1c43      	adds	r3, r0, #1
10013efa:	d000      	beq.n	10013efe <_read_r+0x1e>
10013efc:	bd38      	pop	{r3, r4, r5, pc}
10013efe:	682b      	ldr	r3, [r5, #0]
10013f00:	2b00      	cmp	r3, #0
10013f02:	d0fb      	beq.n	10013efc <_read_r+0x1c>
10013f04:	6023      	str	r3, [r4, #0]
10013f06:	bd38      	pop	{r3, r4, r5, pc}
10013f08:	200015a8 	.word	0x200015a8

10013f0c <_malloc_r>:
10013f0c:	e92d 4ff0 	stmdb	sp!, {r4, r5, r6, r7, r8, r9, sl, fp, lr}
10013f10:	f101 050b 	add.w	r5, r1, #11
10013f14:	2d16      	cmp	r5, #22
10013f16:	b083      	sub	sp, #12
10013f18:	4606      	mov	r6, r0
10013f1a:	d823      	bhi.n	10013f64 <_malloc_r+0x58>
10013f1c:	2910      	cmp	r1, #16
10013f1e:	f200 80af 	bhi.w	10014080 <_malloc_r+0x174>
10013f22:	f7fe f941 	bl	100121a8 <__malloc_lock>
10013f26:	2510      	movs	r5, #16
10013f28:	2318      	movs	r3, #24
10013f2a:	2002      	movs	r0, #2
10013f2c:	4fc1      	ldr	r7, [pc, #772]	@ (10014234 <_malloc_r+0x328>)
10013f2e:	443b      	add	r3, r7
10013f30:	f1a3 0208 	sub.w	r2, r3, #8
10013f34:	685c      	ldr	r4, [r3, #4]
10013f36:	4294      	cmp	r4, r2
10013f38:	f000 8125 	beq.w	10014186 <_malloc_r+0x27a>
10013f3c:	6863      	ldr	r3, [r4, #4]
10013f3e:	68e2      	ldr	r2, [r4, #12]
10013f40:	68a1      	ldr	r1, [r4, #8]
10013f42:	f023 0303 	bic.w	r3, r3, #3
10013f46:	60ca      	str	r2, [r1, #12]
10013f48:	4423      	add	r3, r4
10013f4a:	4630      	mov	r0, r6
10013f4c:	6091      	str	r1, [r2, #8]
10013f4e:	685a      	ldr	r2, [r3, #4]
10013f50:	f042 0201 	orr.w	r2, r2, #1
10013f54:	605a      	str	r2, [r3, #4]
10013f56:	f7fe f929 	bl	100121ac <__malloc_unlock>
10013f5a:	3408      	adds	r4, #8
10013f5c:	4620      	mov	r0, r4
10013f5e:	b003      	add	sp, #12
10013f60:	e8bd 8ff0 	ldmia.w	sp!, {r4, r5, r6, r7, r8, r9, sl, fp, pc}
10013f64:	f035 0507 	bics.w	r5, r5, #7
10013f68:	f100 808a 	bmi.w	10014080 <_malloc_r+0x174>
10013f6c:	42a9      	cmp	r1, r5
10013f6e:	f200 8087 	bhi.w	10014080 <_malloc_r+0x174>
10013f72:	f7fe f919 	bl	100121a8 <__malloc_lock>
10013f76:	f5b5 7ffc 	cmp.w	r5, #504	@ 0x1f8
10013f7a:	f0c0 816d 	bcc.w	10014258 <_malloc_r+0x34c>
10013f7e:	0a6b      	lsrs	r3, r5, #9
10013f80:	f000 8082 	beq.w	10014088 <_malloc_r+0x17c>
10013f84:	2b04      	cmp	r3, #4
10013f86:	f200 8124 	bhi.w	100141d2 <_malloc_r+0x2c6>
10013f8a:	09ab      	lsrs	r3, r5, #6
10013f8c:	f103 0039 	add.w	r0, r3, #57	@ 0x39
10013f90:	f103 0e38 	add.w	lr, r3, #56	@ 0x38
10013f94:	00c3      	lsls	r3, r0, #3
10013f96:	4fa7      	ldr	r7, [pc, #668]	@ (10014234 <_malloc_r+0x328>)
10013f98:	443b      	add	r3, r7
10013f9a:	f1a3 0c08 	sub.w	ip, r3, #8
10013f9e:	685c      	ldr	r4, [r3, #4]
10013fa0:	45a4      	cmp	ip, r4
10013fa2:	d107      	bne.n	10013fb4 <_malloc_r+0xa8>
10013fa4:	e00d      	b.n	10013fc2 <_malloc_r+0xb6>
10013fa6:	2a00      	cmp	r2, #0
10013fa8:	68e1      	ldr	r1, [r4, #12]
10013faa:	f280 80e6 	bge.w	1001417a <_malloc_r+0x26e>
10013fae:	458c      	cmp	ip, r1
10013fb0:	d007      	beq.n	10013fc2 <_malloc_r+0xb6>
10013fb2:	460c      	mov	r4, r1
10013fb4:	6863      	ldr	r3, [r4, #4]
10013fb6:	f023 0303 	bic.w	r3, r3, #3
10013fba:	1b5a      	subs	r2, r3, r5
10013fbc:	2a0f      	cmp	r2, #15
10013fbe:	ddf2      	ble.n	10013fa6 <_malloc_r+0x9a>
10013fc0:	4670      	mov	r0, lr
10013fc2:	f8df 8274 	ldr.w	r8, [pc, #628]	@ 10014238 <_malloc_r+0x32c>
10013fc6:	693c      	ldr	r4, [r7, #16]
10013fc8:	4544      	cmp	r4, r8
10013fca:	f000 80c3 	beq.w	10014154 <_malloc_r+0x248>
10013fce:	6863      	ldr	r3, [r4, #4]
10013fd0:	f023 0c03 	bic.w	ip, r3, #3
10013fd4:	ebac 0305 	sub.w	r3, ip, r5
10013fd8:	2b0f      	cmp	r3, #15
10013fda:	f300 8141 	bgt.w	10014260 <_malloc_r+0x354>
10013fde:	2b00      	cmp	r3, #0
10013fe0:	e9c7 8804 	strd	r8, r8, [r7, #16]
10013fe4:	f280 812c 	bge.w	10014240 <_malloc_r+0x334>
10013fe8:	f5bc 7f00 	cmp.w	ip, #512	@ 0x200
10013fec:	f8d7 e004 	ldr.w	lr, [r7, #4]
10013ff0:	f080 80cf 	bcs.w	10014192 <_malloc_r+0x286>
10013ff4:	ea4f 01dc 	mov.w	r1, ip, lsr #3
10013ff8:	3101      	adds	r1, #1
10013ffa:	ea4f 1c5c 	mov.w	ip, ip, lsr #5
10013ffe:	2301      	movs	r3, #1
10014000:	fa03 f30c 	lsl.w	r3, r3, ip
10014004:	f857 2031 	ldr.w	r2, [r7, r1, lsl #3]
10014008:	60a2      	str	r2, [r4, #8]
1001400a:	ea4e 0e03 	orr.w	lr, lr, r3
1001400e:	eb07 03c1 	add.w	r3, r7, r1, lsl #3
10014012:	3b08      	subs	r3, #8
10014014:	60e3      	str	r3, [r4, #12]
10014016:	f8c7 e004 	str.w	lr, [r7, #4]
1001401a:	f847 4031 	str.w	r4, [r7, r1, lsl #3]
1001401e:	60d4      	str	r4, [r2, #12]
10014020:	1083      	asrs	r3, r0, #2
10014022:	f04f 0c01 	mov.w	ip, #1
10014026:	fa0c fc03 	lsl.w	ip, ip, r3
1001402a:	45f4      	cmp	ip, lr
1001402c:	d832      	bhi.n	10014094 <_malloc_r+0x188>
1001402e:	ea1c 0f0e 	tst.w	ip, lr
10014032:	d108      	bne.n	10014046 <_malloc_r+0x13a>
10014034:	f020 0003 	bic.w	r0, r0, #3
10014038:	ea4f 0c4c 	mov.w	ip, ip, lsl #1
1001403c:	ea1c 0f0e 	tst.w	ip, lr
10014040:	f100 0004 	add.w	r0, r0, #4
10014044:	d0f8      	beq.n	10014038 <_malloc_r+0x12c>
10014046:	eb07 0ac0 	add.w	sl, r7, r0, lsl #3
1001404a:	46d6      	mov	lr, sl
1001404c:	4681      	mov	r9, r0
1001404e:	f8de 300c 	ldr.w	r3, [lr, #12]
10014052:	e00b      	b.n	1001406c <_malloc_r+0x160>
10014054:	6859      	ldr	r1, [r3, #4]
10014056:	f021 0103 	bic.w	r1, r1, #3
1001405a:	1b4a      	subs	r2, r1, r5
1001405c:	2a0f      	cmp	r2, #15
1001405e:	461c      	mov	r4, r3
10014060:	68db      	ldr	r3, [r3, #12]
10014062:	f300 80c2 	bgt.w	100141ea <_malloc_r+0x2de>
10014066:	2a00      	cmp	r2, #0
10014068:	f280 80d6 	bge.w	10014218 <_malloc_r+0x30c>
1001406c:	459e      	cmp	lr, r3
1001406e:	d1f1      	bne.n	10014054 <_malloc_r+0x148>
10014070:	f109 0901 	add.w	r9, r9, #1
10014074:	f019 0f03 	tst.w	r9, #3
10014078:	f10e 0e08 	add.w	lr, lr, #8
1001407c:	d1e7      	bne.n	1001404e <_malloc_r+0x142>
1001407e:	e118      	b.n	100142b2 <_malloc_r+0x3a6>
10014080:	230c      	movs	r3, #12
10014082:	6033      	str	r3, [r6, #0]
10014084:	2400      	movs	r4, #0
10014086:	e769      	b.n	10013f5c <_malloc_r+0x50>
10014088:	f44f 7300 	mov.w	r3, #512	@ 0x200
1001408c:	2040      	movs	r0, #64	@ 0x40
1001408e:	f04f 0e3f 	mov.w	lr, #63	@ 0x3f
10014092:	e780      	b.n	10013f96 <_malloc_r+0x8a>
10014094:	68bc      	ldr	r4, [r7, #8]
10014096:	6863      	ldr	r3, [r4, #4]
10014098:	f023 0903 	bic.w	r9, r3, #3
1001409c:	45a9      	cmp	r9, r5
1001409e:	d303      	bcc.n	100140a8 <_malloc_r+0x19c>
100140a0:	eba9 0305 	sub.w	r3, r9, r5
100140a4:	2b0f      	cmp	r3, #15
100140a6:	dc58      	bgt.n	1001415a <_malloc_r+0x24e>
100140a8:	f8df b190 	ldr.w	fp, [pc, #400]	@ 1001423c <_malloc_r+0x330>
100140ac:	f8db 2000 	ldr.w	r2, [fp]
100140b0:	eb04 0309 	add.w	r3, r4, r9
100140b4:	3210      	adds	r2, #16
100140b6:	2008      	movs	r0, #8
100140b8:	eb02 0805 	add.w	r8, r2, r5
100140bc:	9300      	str	r3, [sp, #0]
100140be:	f7fd fda9 	bl	10011c14 <sysconf>
100140c2:	f8d7 1408 	ldr.w	r1, [r7, #1032]	@ 0x408
100140c6:	3101      	adds	r1, #1
100140c8:	4602      	mov	r2, r0
100140ca:	d005      	beq.n	100140d8 <_malloc_r+0x1cc>
100140cc:	f108 38ff 	add.w	r8, r8, #4294967295	@ 0xffffffff
100140d0:	4480      	add	r8, r0
100140d2:	4241      	negs	r1, r0
100140d4:	ea01 0808 	and.w	r8, r1, r8
100140d8:	4641      	mov	r1, r8
100140da:	4630      	mov	r0, r6
100140dc:	9200      	str	r2, [sp, #0]
100140de:	f7fe fb5d 	bl	1001279c <_sbrk_r>
100140e2:	f1b0 3fff 	cmp.w	r0, #4294967295	@ 0xffffffff
100140e6:	9a00      	ldr	r2, [sp, #0]
100140e8:	4682      	mov	sl, r0
100140ea:	f000 80d4 	beq.w	10014296 <_malloc_r+0x38a>
100140ee:	eb04 0309 	add.w	r3, r4, r9
100140f2:	4283      	cmp	r3, r0
100140f4:	f200 80cd 	bhi.w	10014292 <_malloc_r+0x386>
100140f8:	f8db 1004 	ldr.w	r1, [fp, #4]
100140fc:	4441      	add	r1, r8
100140fe:	f8cb 1004 	str.w	r1, [fp, #4]
10014102:	4608      	mov	r0, r1
10014104:	f102 3cff 	add.w	ip, r2, #4294967295	@ 0xffffffff
10014108:	f040 80f5 	bne.w	100142f6 <_malloc_r+0x3ea>
1001410c:	ea1a 0f0c 	tst.w	sl, ip
10014110:	f040 80f1 	bne.w	100142f6 <_malloc_r+0x3ea>
10014114:	f8d7 a008 	ldr.w	sl, [r7, #8]
10014118:	44c8      	add	r8, r9
1001411a:	f048 0001 	orr.w	r0, r8, #1
1001411e:	f8ca 0004 	str.w	r0, [sl, #4]
10014122:	f8db 202c 	ldr.w	r2, [fp, #44]	@ 0x2c
10014126:	428a      	cmp	r2, r1
10014128:	f8db 2030 	ldr.w	r2, [fp, #48]	@ 0x30
1001412c:	bf38      	it	cc
1001412e:	f8cb 102c 	strcc.w	r1, [fp, #44]	@ 0x2c
10014132:	428a      	cmp	r2, r1
10014134:	bf38      	it	cc
10014136:	f8cb 1030 	strcc.w	r1, [fp, #48]	@ 0x30
1001413a:	4654      	mov	r4, sl
1001413c:	f020 0803 	bic.w	r8, r0, #3
10014140:	45a8      	cmp	r8, r5
10014142:	eba8 0305 	sub.w	r3, r8, r5
10014146:	d301      	bcc.n	1001414c <_malloc_r+0x240>
10014148:	2b0f      	cmp	r3, #15
1001414a:	dc06      	bgt.n	1001415a <_malloc_r+0x24e>
1001414c:	4630      	mov	r0, r6
1001414e:	f7fe f82d 	bl	100121ac <__malloc_unlock>
10014152:	e797      	b.n	10014084 <_malloc_r+0x178>
10014154:	f8d7 e004 	ldr.w	lr, [r7, #4]
10014158:	e762      	b.n	10014020 <_malloc_r+0x114>
1001415a:	1962      	adds	r2, r4, r5
1001415c:	f043 0301 	orr.w	r3, r3, #1
10014160:	f045 0501 	orr.w	r5, r5, #1
10014164:	6065      	str	r5, [r4, #4]
10014166:	4630      	mov	r0, r6
10014168:	60ba      	str	r2, [r7, #8]
1001416a:	6053      	str	r3, [r2, #4]
1001416c:	f7fe f81e 	bl	100121ac <__malloc_unlock>
10014170:	3408      	adds	r4, #8
10014172:	4620      	mov	r0, r4
10014174:	b003      	add	sp, #12
10014176:	e8bd 8ff0 	ldmia.w	sp!, {r4, r5, r6, r7, r8, r9, sl, fp, pc}
1001417a:	68a2      	ldr	r2, [r4, #8]
1001417c:	4423      	add	r3, r4
1001417e:	60d1      	str	r1, [r2, #12]
10014180:	4630      	mov	r0, r6
10014182:	608a      	str	r2, [r1, #8]
10014184:	e6e3      	b.n	10013f4e <_malloc_r+0x42>
10014186:	68dc      	ldr	r4, [r3, #12]
10014188:	42a3      	cmp	r3, r4
1001418a:	f47f aed7 	bne.w	10013f3c <_malloc_r+0x30>
1001418e:	3002      	adds	r0, #2
10014190:	e717      	b.n	10013fc2 <_malloc_r+0xb6>
10014192:	f5bc 6f20 	cmp.w	ip, #2560	@ 0xa00
10014196:	ea4f 225c 	mov.w	r2, ip, lsr #9
1001419a:	d373      	bcc.n	10014284 <_malloc_r+0x378>
1001419c:	2a14      	cmp	r2, #20
1001419e:	f200 810a 	bhi.w	100143b6 <_malloc_r+0x4aa>
100141a2:	f102 035c 	add.w	r3, r2, #92	@ 0x5c
100141a6:	00db      	lsls	r3, r3, #3
100141a8:	325b      	adds	r2, #91	@ 0x5b
100141aa:	18f9      	adds	r1, r7, r3
100141ac:	58fb      	ldr	r3, [r7, r3]
100141ae:	3908      	subs	r1, #8
100141b0:	4299      	cmp	r1, r3
100141b2:	d103      	bne.n	100141bc <_malloc_r+0x2b0>
100141b4:	e0e6      	b.n	10014384 <_malloc_r+0x478>
100141b6:	689b      	ldr	r3, [r3, #8]
100141b8:	4299      	cmp	r1, r3
100141ba:	d004      	beq.n	100141c6 <_malloc_r+0x2ba>
100141bc:	685a      	ldr	r2, [r3, #4]
100141be:	f022 0203 	bic.w	r2, r2, #3
100141c2:	4562      	cmp	r2, ip
100141c4:	d8f7      	bhi.n	100141b6 <_malloc_r+0x2aa>
100141c6:	68d9      	ldr	r1, [r3, #12]
100141c8:	e9c4 3102 	strd	r3, r1, [r4, #8]
100141cc:	608c      	str	r4, [r1, #8]
100141ce:	60dc      	str	r4, [r3, #12]
100141d0:	e726      	b.n	10014020 <_malloc_r+0x114>
100141d2:	2b14      	cmp	r3, #20
100141d4:	d962      	bls.n	1001429c <_malloc_r+0x390>
100141d6:	2b54      	cmp	r3, #84	@ 0x54
100141d8:	f200 80f6 	bhi.w	100143c8 <_malloc_r+0x4bc>
100141dc:	0b2b      	lsrs	r3, r5, #12
100141de:	f103 006f 	add.w	r0, r3, #111	@ 0x6f
100141e2:	f103 0e6e 	add.w	lr, r3, #110	@ 0x6e
100141e6:	00c3      	lsls	r3, r0, #3
100141e8:	e6d5      	b.n	10013f96 <_malloc_r+0x8a>
100141ea:	f8d4 c008 	ldr.w	ip, [r4, #8]
100141ee:	4630      	mov	r0, r6
100141f0:	1966      	adds	r6, r4, r5
100141f2:	f045 0501 	orr.w	r5, r5, #1
100141f6:	6065      	str	r5, [r4, #4]
100141f8:	f8cc 300c 	str.w	r3, [ip, #12]
100141fc:	f8c3 c008 	str.w	ip, [r3, #8]
10014200:	f042 0301 	orr.w	r3, r2, #1
10014204:	e9c7 6604 	strd	r6, r6, [r7, #16]
10014208:	e9c6 8802 	strd	r8, r8, [r6, #8]
1001420c:	6073      	str	r3, [r6, #4]
1001420e:	5062      	str	r2, [r4, r1]
10014210:	f7fd ffcc 	bl	100121ac <__malloc_unlock>
10014214:	3408      	adds	r4, #8
10014216:	e6a1      	b.n	10013f5c <_malloc_r+0x50>
10014218:	4421      	add	r1, r4
1001421a:	4630      	mov	r0, r6
1001421c:	684a      	ldr	r2, [r1, #4]
1001421e:	f042 0201 	orr.w	r2, r2, #1
10014222:	604a      	str	r2, [r1, #4]
10014224:	f854 2f08 	ldr.w	r2, [r4, #8]!
10014228:	60d3      	str	r3, [r2, #12]
1001422a:	609a      	str	r2, [r3, #8]
1001422c:	f7fd ffbe 	bl	100121ac <__malloc_unlock>
10014230:	e694      	b.n	10013f5c <_malloc_r+0x50>
10014232:	bf00      	nop
10014234:	20000148 	.word	0x20000148
10014238:	20000150 	.word	0x20000150
1001423c:	20001570 	.word	0x20001570
10014240:	44a4      	add	ip, r4
10014242:	4630      	mov	r0, r6
10014244:	f8dc 3004 	ldr.w	r3, [ip, #4]
10014248:	f043 0301 	orr.w	r3, r3, #1
1001424c:	f8cc 3004 	str.w	r3, [ip, #4]
10014250:	f7fd ffac 	bl	100121ac <__malloc_unlock>
10014254:	3408      	adds	r4, #8
10014256:	e681      	b.n	10013f5c <_malloc_r+0x50>
10014258:	08e8      	lsrs	r0, r5, #3
1001425a:	f105 0308 	add.w	r3, r5, #8
1001425e:	e665      	b.n	10013f2c <_malloc_r+0x20>
10014260:	1962      	adds	r2, r4, r5
10014262:	f043 0101 	orr.w	r1, r3, #1
10014266:	f045 0501 	orr.w	r5, r5, #1
1001426a:	6065      	str	r5, [r4, #4]
1001426c:	4630      	mov	r0, r6
1001426e:	e9c7 2204 	strd	r2, r2, [r7, #16]
10014272:	e9c2 8802 	strd	r8, r8, [r2, #8]
10014276:	6051      	str	r1, [r2, #4]
10014278:	f844 300c 	str.w	r3, [r4, ip]
1001427c:	f7fd ff96 	bl	100121ac <__malloc_unlock>
10014280:	3408      	adds	r4, #8
10014282:	e66b      	b.n	10013f5c <_malloc_r+0x50>
10014284:	ea4f 129c 	mov.w	r2, ip, lsr #6
10014288:	f102 0339 	add.w	r3, r2, #57	@ 0x39
1001428c:	00db      	lsls	r3, r3, #3
1001428e:	3238      	adds	r2, #56	@ 0x38
10014290:	e78b      	b.n	100141aa <_malloc_r+0x29e>
10014292:	42bc      	cmp	r4, r7
10014294:	d028      	beq.n	100142e8 <_malloc_r+0x3dc>
10014296:	68bc      	ldr	r4, [r7, #8]
10014298:	6860      	ldr	r0, [r4, #4]
1001429a:	e74f      	b.n	1001413c <_malloc_r+0x230>
1001429c:	f103 005c 	add.w	r0, r3, #92	@ 0x5c
100142a0:	f103 0e5b 	add.w	lr, r3, #91	@ 0x5b
100142a4:	00c3      	lsls	r3, r0, #3
100142a6:	e676      	b.n	10013f96 <_malloc_r+0x8a>
100142a8:	f85a 3908 	ldr.w	r3, [sl], #-8
100142ac:	4553      	cmp	r3, sl
100142ae:	f040 80d8 	bne.w	10014462 <_malloc_r+0x556>
100142b2:	f010 0f03 	tst.w	r0, #3
100142b6:	f100 30ff 	add.w	r0, r0, #4294967295	@ 0xffffffff
100142ba:	d1f5      	bne.n	100142a8 <_malloc_r+0x39c>
100142bc:	687b      	ldr	r3, [r7, #4]
100142be:	ea23 030c 	bic.w	r3, r3, ip
100142c2:	607b      	str	r3, [r7, #4]
100142c4:	ea4f 0c4c 	mov.w	ip, ip, lsl #1
100142c8:	459c      	cmp	ip, r3
100142ca:	f63f aee3 	bhi.w	10014094 <_malloc_r+0x188>
100142ce:	f1bc 0f00 	cmp.w	ip, #0
100142d2:	d104      	bne.n	100142de <_malloc_r+0x3d2>
100142d4:	e6de      	b.n	10014094 <_malloc_r+0x188>
100142d6:	ea4f 0c4c 	mov.w	ip, ip, lsl #1
100142da:	f109 0904 	add.w	r9, r9, #4
100142de:	ea1c 0f03 	tst.w	ip, r3
100142e2:	d0f8      	beq.n	100142d6 <_malloc_r+0x3ca>
100142e4:	4648      	mov	r0, r9
100142e6:	e6ae      	b.n	10014046 <_malloc_r+0x13a>
100142e8:	f8db 0004 	ldr.w	r0, [fp, #4]
100142ec:	4440      	add	r0, r8
100142ee:	f8cb 0004 	str.w	r0, [fp, #4]
100142f2:	f102 3cff 	add.w	ip, r2, #4294967295	@ 0xffffffff
100142f6:	f8d7 1408 	ldr.w	r1, [r7, #1032]	@ 0x408
100142fa:	3101      	adds	r1, #1
100142fc:	d06e      	beq.n	100143dc <_malloc_r+0x4d0>
100142fe:	eb04 0309 	add.w	r3, r4, r9
10014302:	ebaa 0303 	sub.w	r3, sl, r3
10014306:	4418      	add	r0, r3
10014308:	f8cb 0004 	str.w	r0, [fp, #4]
1001430c:	f01a 0307 	ands.w	r3, sl, #7
10014310:	9300      	str	r3, [sp, #0]
10014312:	d041      	beq.n	10014398 <_malloc_r+0x48c>
10014314:	f1c3 0108 	rsb	r1, r3, #8
10014318:	448a      	add	sl, r1
1001431a:	44d0      	add	r8, sl
1001431c:	440a      	add	r2, r1
1001431e:	ea08 010c 	and.w	r1, r8, ip
10014322:	1a52      	subs	r2, r2, r1
10014324:	ea02 010c 	and.w	r1, r2, ip
10014328:	4630      	mov	r0, r6
1001432a:	9101      	str	r1, [sp, #4]
1001432c:	f7fe fa36 	bl	1001279c <_sbrk_r>
10014330:	1c42      	adds	r2, r0, #1
10014332:	d06f      	beq.n	10014414 <_malloc_r+0x508>
10014334:	9901      	ldr	r1, [sp, #4]
10014336:	eba0 000a 	sub.w	r0, r0, sl
1001433a:	eb00 0801 	add.w	r8, r0, r1
1001433e:	f8db 2004 	ldr.w	r2, [fp, #4]
10014342:	f8c7 a008 	str.w	sl, [r7, #8]
10014346:	f048 0001 	orr.w	r0, r8, #1
1001434a:	4411      	add	r1, r2
1001434c:	42bc      	cmp	r4, r7
1001434e:	f8ca 0004 	str.w	r0, [sl, #4]
10014352:	f8cb 1004 	str.w	r1, [fp, #4]
10014356:	f43f aee4 	beq.w	10014122 <_malloc_r+0x216>
1001435a:	f1b9 0f0f 	cmp.w	r9, #15
1001435e:	d940      	bls.n	100143e2 <_malloc_r+0x4d6>
10014360:	6862      	ldr	r2, [r4, #4]
10014362:	f1a9 000c 	sub.w	r0, r9, #12
10014366:	f020 0007 	bic.w	r0, r0, #7
1001436a:	f002 0201 	and.w	r2, r2, #1
1001436e:	4302      	orrs	r2, r0
10014370:	6062      	str	r2, [r4, #4]
10014372:	2305      	movs	r3, #5
10014374:	1822      	adds	r2, r4, r0
10014376:	280f      	cmp	r0, #15
10014378:	e9c2 3301 	strd	r3, r3, [r2, #4]
1001437c:	d852      	bhi.n	10014424 <_malloc_r+0x518>
1001437e:	f8da 0004 	ldr.w	r0, [sl, #4]
10014382:	e6ce      	b.n	10014122 <_malloc_r+0x216>
10014384:	1092      	asrs	r2, r2, #2
10014386:	f04f 0c01 	mov.w	ip, #1
1001438a:	fa0c f202 	lsl.w	r2, ip, r2
1001438e:	ea4e 0e02 	orr.w	lr, lr, r2
10014392:	f8c7 e004 	str.w	lr, [r7, #4]
10014396:	e717      	b.n	100141c8 <_malloc_r+0x2bc>
10014398:	eb0a 0108 	add.w	r1, sl, r8
1001439c:	ea01 010c 	and.w	r1, r1, ip
100143a0:	1a52      	subs	r2, r2, r1
100143a2:	ea02 010c 	and.w	r1, r2, ip
100143a6:	4630      	mov	r0, r6
100143a8:	9101      	str	r1, [sp, #4]
100143aa:	f7fe f9f7 	bl	1001279c <_sbrk_r>
100143ae:	1c43      	adds	r3, r0, #1
100143b0:	d1c0      	bne.n	10014334 <_malloc_r+0x428>
100143b2:	9900      	ldr	r1, [sp, #0]
100143b4:	e7c3      	b.n	1001433e <_malloc_r+0x432>
100143b6:	2a54      	cmp	r2, #84	@ 0x54
100143b8:	d817      	bhi.n	100143ea <_malloc_r+0x4de>
100143ba:	ea4f 321c 	mov.w	r2, ip, lsr #12
100143be:	f102 036f 	add.w	r3, r2, #111	@ 0x6f
100143c2:	00db      	lsls	r3, r3, #3
100143c4:	326e      	adds	r2, #110	@ 0x6e
100143c6:	e6f0      	b.n	100141aa <_malloc_r+0x29e>
100143c8:	f5b3 7faa 	cmp.w	r3, #340	@ 0x154
100143cc:	d817      	bhi.n	100143fe <_malloc_r+0x4f2>
100143ce:	0beb      	lsrs	r3, r5, #15
100143d0:	f103 0078 	add.w	r0, r3, #120	@ 0x78
100143d4:	f103 0e77 	add.w	lr, r3, #119	@ 0x77
100143d8:	00c3      	lsls	r3, r0, #3
100143da:	e5dc      	b.n	10013f96 <_malloc_r+0x8a>
100143dc:	f8c7 a408 	str.w	sl, [r7, #1032]	@ 0x408
100143e0:	e794      	b.n	1001430c <_malloc_r+0x400>
100143e2:	2301      	movs	r3, #1
100143e4:	f8ca 3004 	str.w	r3, [sl, #4]
100143e8:	e6b0      	b.n	1001414c <_malloc_r+0x240>
100143ea:	f5b2 7faa 	cmp.w	r2, #340	@ 0x154
100143ee:	d823      	bhi.n	10014438 <_malloc_r+0x52c>
100143f0:	ea4f 32dc 	mov.w	r2, ip, lsr #15
100143f4:	f102 0378 	add.w	r3, r2, #120	@ 0x78
100143f8:	00db      	lsls	r3, r3, #3
100143fa:	3277      	adds	r2, #119	@ 0x77
100143fc:	e6d5      	b.n	100141aa <_malloc_r+0x29e>
100143fe:	f240 5254 	movw	r2, #1364	@ 0x554
10014402:	4293      	cmp	r3, r2
10014404:	d823      	bhi.n	1001444e <_malloc_r+0x542>
10014406:	0cab      	lsrs	r3, r5, #18
10014408:	f103 007d 	add.w	r0, r3, #125	@ 0x7d
1001440c:	f103 0e7c 	add.w	lr, r3, #124	@ 0x7c
10014410:	00c3      	lsls	r3, r0, #3
10014412:	e5c0      	b.n	10013f96 <_malloc_r+0x8a>
10014414:	9b00      	ldr	r3, [sp, #0]
10014416:	f1a3 0208 	sub.w	r2, r3, #8
1001441a:	4490      	add	r8, r2
1001441c:	eba8 080a 	sub.w	r8, r8, sl
10014420:	2100      	movs	r1, #0
10014422:	e78c      	b.n	1001433e <_malloc_r+0x432>
10014424:	f104 0108 	add.w	r1, r4, #8
10014428:	4630      	mov	r0, r6
1001442a:	f7fd f9d7 	bl	100117dc <_free_r>
1001442e:	f8db 1004 	ldr.w	r1, [fp, #4]
10014432:	f8d7 a008 	ldr.w	sl, [r7, #8]
10014436:	e7a2      	b.n	1001437e <_malloc_r+0x472>
10014438:	f240 5354 	movw	r3, #1364	@ 0x554
1001443c:	429a      	cmp	r2, r3
1001443e:	d80c      	bhi.n	1001445a <_malloc_r+0x54e>
10014440:	ea4f 429c 	mov.w	r2, ip, lsr #18
10014444:	f102 037d 	add.w	r3, r2, #125	@ 0x7d
10014448:	00db      	lsls	r3, r3, #3
1001444a:	327c      	adds	r2, #124	@ 0x7c
1001444c:	e6ad      	b.n	100141aa <_malloc_r+0x29e>
1001444e:	f44f 737e 	mov.w	r3, #1016	@ 0x3f8
10014452:	207f      	movs	r0, #127	@ 0x7f
10014454:	f04f 0e7e 	mov.w	lr, #126	@ 0x7e
10014458:	e59d      	b.n	10013f96 <_malloc_r+0x8a>
1001445a:	f44f 737e 	mov.w	r3, #1016	@ 0x3f8
1001445e:	227e      	movs	r2, #126	@ 0x7e
10014460:	e6a3      	b.n	100141aa <_malloc_r+0x29e>
10014462:	687b      	ldr	r3, [r7, #4]
10014464:	e72e      	b.n	100142c4 <_malloc_r+0x3b8>
10014466:	bf00      	nop

10014468 <quorem>:
10014468:	e92d 4ff0 	stmdb	sp!, {r4, r5, r6, r7, r8, r9, sl, fp, lr}
1001446c:	6903      	ldr	r3, [r0, #16]
1001446e:	690c      	ldr	r4, [r1, #16]
10014470:	42a3      	cmp	r3, r4
10014472:	b083      	sub	sp, #12
10014474:	f2c0 808a 	blt.w	1001458c <quorem+0x124>
10014478:	3c01      	subs	r4, #1
1001447a:	f101 0514 	add.w	r5, r1, #20
1001447e:	f100 0814 	add.w	r8, r0, #20
10014482:	f855 3024 	ldr.w	r3, [r5, r4, lsl #2]
10014486:	f858 2024 	ldr.w	r2, [r8, r4, lsl #2]
1001448a:	3301      	adds	r3, #1
1001448c:	429a      	cmp	r2, r3
1001448e:	468e      	mov	lr, r1
10014490:	4681      	mov	r9, r0
10014492:	ea4f 0184 	mov.w	r1, r4, lsl #2
10014496:	eb05 0784 	add.w	r7, r5, r4, lsl #2
1001449a:	eb08 0a84 	add.w	sl, r8, r4, lsl #2
1001449e:	fbb2 f6f3 	udiv	r6, r2, r3
100144a2:	d33a      	bcc.n	1001451a <quorem+0xb2>
100144a4:	e9cd 1500 	strd	r1, r5, [sp]
100144a8:	2200      	movs	r2, #0
100144aa:	46ac      	mov	ip, r5
100144ac:	4640      	mov	r0, r8
100144ae:	4613      	mov	r3, r2
100144b0:	f85c 1b04 	ldr.w	r1, [ip], #4
100144b4:	6805      	ldr	r5, [r0, #0]
100144b6:	fa1f fb81 	uxth.w	fp, r1
100144ba:	fb06 220b 	mla	r2, r6, fp, r2
100144be:	0c09      	lsrs	r1, r1, #16
100144c0:	ea4f 4b12 	mov.w	fp, r2, lsr #16
100144c4:	fb06 bb01 	mla	fp, r6, r1, fp
100144c8:	b292      	uxth	r2, r2
100144ca:	b2a9      	uxth	r1, r5
100144cc:	1a89      	subs	r1, r1, r2
100144ce:	4419      	add	r1, r3
100144d0:	fa1f f38b 	uxth.w	r3, fp
100144d4:	ebc3 4321 	rsb	r3, r3, r1, asr #16
100144d8:	eb03 4315 	add.w	r3, r3, r5, lsr #16
100144dc:	b289      	uxth	r1, r1
100144de:	ea41 4103 	orr.w	r1, r1, r3, lsl #16
100144e2:	4567      	cmp	r7, ip
100144e4:	f840 1b04 	str.w	r1, [r0], #4
100144e8:	ea4f 421b 	mov.w	r2, fp, lsr #16
100144ec:	ea4f 4323 	mov.w	r3, r3, asr #16
100144f0:	d2de      	bcs.n	100144b0 <quorem+0x48>
100144f2:	e9dd 1500 	ldrd	r1, r5, [sp]
100144f6:	f858 3001 	ldr.w	r3, [r8, r1]
100144fa:	b973      	cbnz	r3, 1001451a <quorem+0xb2>
100144fc:	f1aa 0a04 	sub.w	sl, sl, #4
10014500:	45d0      	cmp	r8, sl
10014502:	d304      	bcc.n	1001450e <quorem+0xa6>
10014504:	e007      	b.n	10014516 <quorem+0xae>
10014506:	45d0      	cmp	r8, sl
10014508:	f104 34ff 	add.w	r4, r4, #4294967295	@ 0xffffffff
1001450c:	d203      	bcs.n	10014516 <quorem+0xae>
1001450e:	f85a 3904 	ldr.w	r3, [sl], #-4
10014512:	2b00      	cmp	r3, #0
10014514:	d0f7      	beq.n	10014506 <quorem+0x9e>
10014516:	f8c9 4010 	str.w	r4, [r9, #16]
1001451a:	4671      	mov	r1, lr
1001451c:	4648      	mov	r0, r9
1001451e:	f001 fb59 	bl	10015bd4 <__mcmp>
10014522:	2800      	cmp	r0, #0
10014524:	db2e      	blt.n	10014584 <quorem+0x11c>
10014526:	4641      	mov	r1, r8
10014528:	2200      	movs	r2, #0
1001452a:	f855 0b04 	ldr.w	r0, [r5], #4
1001452e:	f8d1 c000 	ldr.w	ip, [r1]
10014532:	fa1f fe80 	uxth.w	lr, r0
10014536:	fa1f f38c 	uxth.w	r3, ip
1001453a:	eba3 030e 	sub.w	r3, r3, lr
1001453e:	4413      	add	r3, r2
10014540:	0c02      	lsrs	r2, r0, #16
10014542:	ebc2 4223 	rsb	r2, r2, r3, asr #16
10014546:	eb02 421c 	add.w	r2, r2, ip, lsr #16
1001454a:	b29b      	uxth	r3, r3
1001454c:	ea43 4302 	orr.w	r3, r3, r2, lsl #16
10014550:	42af      	cmp	r7, r5
10014552:	f841 3b04 	str.w	r3, [r1], #4
10014556:	ea4f 4222 	mov.w	r2, r2, asr #16
1001455a:	d2e6      	bcs.n	1001452a <quorem+0xc2>
1001455c:	f858 2024 	ldr.w	r2, [r8, r4, lsl #2]
10014560:	eb08 0384 	add.w	r3, r8, r4, lsl #2
10014564:	b96a      	cbnz	r2, 10014582 <quorem+0x11a>
10014566:	3b04      	subs	r3, #4
10014568:	4543      	cmp	r3, r8
1001456a:	d804      	bhi.n	10014576 <quorem+0x10e>
1001456c:	e007      	b.n	1001457e <quorem+0x116>
1001456e:	4598      	cmp	r8, r3
10014570:	f104 34ff 	add.w	r4, r4, #4294967295	@ 0xffffffff
10014574:	d203      	bcs.n	1001457e <quorem+0x116>
10014576:	f853 2904 	ldr.w	r2, [r3], #-4
1001457a:	2a00      	cmp	r2, #0
1001457c:	d0f7      	beq.n	1001456e <quorem+0x106>
1001457e:	f8c9 4010 	str.w	r4, [r9, #16]
10014582:	3601      	adds	r6, #1
10014584:	4630      	mov	r0, r6
10014586:	b003      	add	sp, #12
10014588:	e8bd 8ff0 	ldmia.w	sp!, {r4, r5, r6, r7, r8, r9, sl, fp, pc}
1001458c:	2000      	movs	r0, #0
1001458e:	b003      	add	sp, #12
10014590:	e8bd 8ff0 	ldmia.w	sp!, {r4, r5, r6, r7, r8, r9, sl, fp, pc}

10014594 <_dtoa_r>:
10014594:	e92d 4ff0 	stmdb	sp!, {r4, r5, r6, r7, r8, r9, sl, fp, lr}
10014598:	6b81      	ldr	r1, [r0, #56]	@ 0x38
1001459a:	b09b      	sub	sp, #108	@ 0x6c
1001459c:	4616      	mov	r6, r2
1001459e:	461f      	mov	r7, r3
100145a0:	e9cd 6706 	strd	r6, r7, [sp, #24]
100145a4:	9d27      	ldr	r5, [sp, #156]	@ 0x9c
100145a6:	9004      	str	r0, [sp, #16]
100145a8:	b149      	cbz	r1, 100145be <_dtoa_r+0x2a>
100145aa:	6bc2      	ldr	r2, [r0, #60]	@ 0x3c
100145ac:	604a      	str	r2, [r1, #4]
100145ae:	2301      	movs	r3, #1
100145b0:	4093      	lsls	r3, r2
100145b2:	4604      	mov	r4, r0
100145b4:	608b      	str	r3, [r1, #8]
100145b6:	f001 f851 	bl	1001565c <_Bfree>
100145ba:	2300      	movs	r3, #0
100145bc:	63a3      	str	r3, [r4, #56]	@ 0x38
100145be:	f1b7 0900 	subs.w	r9, r7, #0
100145c2:	bfb4      	ite	lt
100145c4:	2301      	movlt	r3, #1
100145c6:	2300      	movge	r3, #0
100145c8:	602b      	str	r3, [r5, #0]
100145ca:	4b79      	ldr	r3, [pc, #484]	@ (100147b0 <_dtoa_r+0x21c>)
100145cc:	bfbc      	itt	lt
100145ce:	f029 4900 	biclt.w	r9, r9, #2147483648	@ 0x80000000
100145d2:	f8cd 901c 	strlt.w	r9, [sp, #28]
100145d6:	ea33 0309 	bics.w	r3, r3, r9
100145da:	f000 80ad 	beq.w	10014738 <_dtoa_r+0x1a4>
100145de:	e9dd 3406 	ldrd	r3, r4, [sp, #24]
100145e2:	2200      	movs	r2, #0
100145e4:	4618      	mov	r0, r3
100145e6:	4621      	mov	r1, r4
100145e8:	2300      	movs	r3, #0
100145ea:	e9cd 0102 	strd	r0, r1, [sp, #8]
100145ee:	f003 f915 	bl	1001781c <__aeabi_dcmpeq>
100145f2:	4680      	mov	r8, r0
100145f4:	b168      	cbz	r0, 10014612 <_dtoa_r+0x7e>
100145f6:	9a26      	ldr	r2, [sp, #152]	@ 0x98
100145f8:	2301      	movs	r3, #1
100145fa:	6013      	str	r3, [r2, #0]
100145fc:	9b28      	ldr	r3, [sp, #160]	@ 0xa0
100145fe:	b113      	cbz	r3, 10014606 <_dtoa_r+0x72>
10014600:	9a28      	ldr	r2, [sp, #160]	@ 0xa0
10014602:	4b6c      	ldr	r3, [pc, #432]	@ (100147b4 <_dtoa_r+0x220>)
10014604:	6013      	str	r3, [r2, #0]
10014606:	4b6c      	ldr	r3, [pc, #432]	@ (100147b8 <_dtoa_r+0x224>)
10014608:	9305      	str	r3, [sp, #20]
1001460a:	9805      	ldr	r0, [sp, #20]
1001460c:	b01b      	add	sp, #108	@ 0x6c
1001460e:	e8bd 8ff0 	ldmia.w	sp!, {r4, r5, r6, r7, r8, r9, sl, fp, pc}
10014612:	ab18      	add	r3, sp, #96	@ 0x60
10014614:	9301      	str	r3, [sp, #4]
10014616:	ab19      	add	r3, sp, #100	@ 0x64
10014618:	9300      	str	r3, [sp, #0]
1001461a:	9804      	ldr	r0, [sp, #16]
1001461c:	e9dd 2302 	ldrd	r2, r3, [sp, #8]
10014620:	f001 fc3a 	bl	10015e98 <__d2b>
10014624:	ea5f 5519 	movs.w	r5, r9, lsr #20
10014628:	4682      	mov	sl, r0
1001462a:	f040 809b 	bne.w	10014764 <_dtoa_r+0x1d0>
1001462e:	e9dd 8518 	ldrd	r8, r5, [sp, #96]	@ 0x60
10014632:	4445      	add	r5, r8
10014634:	f205 4332 	addw	r3, r5, #1074	@ 0x432
10014638:	2b20      	cmp	r3, #32
1001463a:	f340 838f 	ble.w	10014d5c <_dtoa_r+0x7c8>
1001463e:	f1c3 0340 	rsb	r3, r3, #64	@ 0x40
10014642:	fa09 f903 	lsl.w	r9, r9, r3
10014646:	f205 4312 	addw	r3, r5, #1042	@ 0x412
1001464a:	fa26 f303 	lsr.w	r3, r6, r3
1001464e:	ea49 0003 	orr.w	r0, r9, r3
10014652:	f002 fe01 	bl	10017258 <__aeabi_ui2d>
10014656:	2301      	movs	r3, #1
10014658:	3d01      	subs	r5, #1
1001465a:	f1a1 71f8 	sub.w	r1, r1, #32505856	@ 0x1f00000
1001465e:	9310      	str	r3, [sp, #64]	@ 0x40
10014660:	4b56      	ldr	r3, [pc, #344]	@ (100147bc <_dtoa_r+0x228>)
10014662:	2200      	movs	r2, #0
10014664:	f002 fcba 	bl	10016fdc <__aeabi_dsub>
10014668:	a34b      	add	r3, pc, #300	@ (adr r3, 10014798 <_dtoa_r+0x204>)
1001466a:	e9d3 2300 	ldrd	r2, r3, [r3]
1001466e:	f002 fe6d 	bl	1001734c <__aeabi_dmul>
10014672:	a34b      	add	r3, pc, #300	@ (adr r3, 100147a0 <_dtoa_r+0x20c>)
10014674:	e9d3 2300 	ldrd	r2, r3, [r3]
10014678:	f002 fcb2 	bl	10016fe0 <__adddf3>
1001467c:	4606      	mov	r6, r0
1001467e:	4628      	mov	r0, r5
10014680:	460f      	mov	r7, r1
10014682:	f002 fdf9 	bl	10017278 <__aeabi_i2d>
10014686:	a348      	add	r3, pc, #288	@ (adr r3, 100147a8 <_dtoa_r+0x214>)
10014688:	e9d3 2300 	ldrd	r2, r3, [r3]
1001468c:	f002 fe5e 	bl	1001734c <__aeabi_dmul>
10014690:	4602      	mov	r2, r0
10014692:	460b      	mov	r3, r1
10014694:	4630      	mov	r0, r6
10014696:	4639      	mov	r1, r7
10014698:	f002 fca2 	bl	10016fe0 <__adddf3>
1001469c:	4606      	mov	r6, r0
1001469e:	460f      	mov	r7, r1
100146a0:	f003 f904 	bl	100178ac <__aeabi_d2iz>
100146a4:	2200      	movs	r2, #0
100146a6:	4604      	mov	r4, r0
100146a8:	9008      	str	r0, [sp, #32]
100146aa:	2300      	movs	r3, #0
100146ac:	4630      	mov	r0, r6
100146ae:	4639      	mov	r1, r7
100146b0:	f003 f8be 	bl	10017830 <__aeabi_dcmplt>
100146b4:	2800      	cmp	r0, #0
100146b6:	f040 8327 	bne.w	10014d08 <_dtoa_r+0x774>
100146ba:	9c08      	ldr	r4, [sp, #32]
100146bc:	eba8 0805 	sub.w	r8, r8, r5
100146c0:	f108 33ff 	add.w	r3, r8, #4294967295	@ 0xffffffff
100146c4:	2c16      	cmp	r4, #22
100146c6:	9309      	str	r3, [sp, #36]	@ 0x24
100146c8:	f200 818d 	bhi.w	100149e6 <_dtoa_r+0x452>
100146cc:	4b3c      	ldr	r3, [pc, #240]	@ (100147c0 <_dtoa_r+0x22c>)
100146ce:	eb03 03c4 	add.w	r3, r3, r4, lsl #3
100146d2:	e9d3 2300 	ldrd	r2, r3, [r3]
100146d6:	e9dd 0102 	ldrd	r0, r1, [sp, #8]
100146da:	f003 f8a9 	bl	10017830 <__aeabi_dcmplt>
100146de:	2800      	cmp	r0, #0
100146e0:	d074      	beq.n	100147cc <_dtoa_r+0x238>
100146e2:	1e63      	subs	r3, r4, #1
100146e4:	9308      	str	r3, [sp, #32]
100146e6:	2300      	movs	r3, #0
100146e8:	930f      	str	r3, [sp, #60]	@ 0x3c
100146ea:	f108 33ff 	add.w	r3, r8, #4294967295	@ 0xffffffff
100146ee:	2b00      	cmp	r3, #0
100146f0:	f2c0 8180 	blt.w	100149f4 <_dtoa_r+0x460>
100146f4:	2300      	movs	r3, #0
100146f6:	930a      	str	r3, [sp, #40]	@ 0x28
100146f8:	9b08      	ldr	r3, [sp, #32]
100146fa:	2b00      	cmp	r3, #0
100146fc:	da6c      	bge.n	100147d8 <_dtoa_r+0x244>
100146fe:	9b08      	ldr	r3, [sp, #32]
10014700:	9a0a      	ldr	r2, [sp, #40]	@ 0x28
10014702:	930b      	str	r3, [sp, #44]	@ 0x2c
10014704:	1ad2      	subs	r2, r2, r3
10014706:	920a      	str	r2, [sp, #40]	@ 0x28
10014708:	425a      	negs	r2, r3
1001470a:	2300      	movs	r3, #0
1001470c:	9308      	str	r3, [sp, #32]
1001470e:	9b24      	ldr	r3, [sp, #144]	@ 0x90
10014710:	920e      	str	r2, [sp, #56]	@ 0x38
10014712:	2b09      	cmp	r3, #9
10014714:	d86a      	bhi.n	100147ec <_dtoa_r+0x258>
10014716:	2b05      	cmp	r3, #5
10014718:	f340 8325 	ble.w	10014d66 <_dtoa_r+0x7d2>
1001471c:	3b04      	subs	r3, #4
1001471e:	9324      	str	r3, [sp, #144]	@ 0x90
10014720:	2500      	movs	r5, #0
10014722:	9b24      	ldr	r3, [sp, #144]	@ 0x90
10014724:	3b02      	subs	r3, #2
10014726:	2b03      	cmp	r3, #3
10014728:	f200 8637 	bhi.w	1001539a <_dtoa_r+0xe06>
1001472c:	e8df f013 	tbh	[pc, r3, lsl #1]
10014730:	04700473 	.word	0x04700473
10014734:	044b0467 	.word	0x044b0467
10014738:	9a26      	ldr	r2, [sp, #152]	@ 0x98
1001473a:	f3c9 0913 	ubfx	r9, r9, #0, #20
1001473e:	f242 730f 	movw	r3, #9999	@ 0x270f
10014742:	ea59 0906 	orrs.w	r9, r9, r6
10014746:	6013      	str	r3, [r2, #0]
10014748:	d11c      	bne.n	10014784 <_dtoa_r+0x1f0>
1001474a:	9b28      	ldr	r3, [sp, #160]	@ 0xa0
1001474c:	2b00      	cmp	r3, #0
1001474e:	f000 8644 	beq.w	100153da <_dtoa_r+0xe46>
10014752:	4b1c      	ldr	r3, [pc, #112]	@ (100147c4 <_dtoa_r+0x230>)
10014754:	9305      	str	r3, [sp, #20]
10014756:	3308      	adds	r3, #8
10014758:	9a28      	ldr	r2, [sp, #160]	@ 0xa0
1001475a:	9805      	ldr	r0, [sp, #20]
1001475c:	6013      	str	r3, [r2, #0]
1001475e:	b01b      	add	sp, #108	@ 0x6c
10014760:	e8bd 8ff0 	ldmia.w	sp!, {r4, r5, r6, r7, r8, r9, sl, fp, pc}
10014764:	e9dd 1202 	ldrd	r1, r2, [sp, #8]
10014768:	f3c2 0313 	ubfx	r3, r2, #0, #20
1001476c:	4608      	mov	r0, r1
1001476e:	f043 517f 	orr.w	r1, r3, #1069547520	@ 0x3fc00000
10014772:	f8cd 8040 	str.w	r8, [sp, #64]	@ 0x40
10014776:	f2a5 35ff 	subw	r5, r5, #1023	@ 0x3ff
1001477a:	f8dd 8060 	ldr.w	r8, [sp, #96]	@ 0x60
1001477e:	f441 1140 	orr.w	r1, r1, #3145728	@ 0x300000
10014782:	e76d      	b.n	10014660 <_dtoa_r+0xcc>
10014784:	9b28      	ldr	r3, [sp, #160]	@ 0xa0
10014786:	2b00      	cmp	r3, #0
10014788:	f040 83f8 	bne.w	10014f7c <_dtoa_r+0x9e8>
1001478c:	4b0e      	ldr	r3, [pc, #56]	@ (100147c8 <_dtoa_r+0x234>)
1001478e:	9305      	str	r3, [sp, #20]
10014790:	e73b      	b.n	1001460a <_dtoa_r+0x76>
10014792:	bf00      	nop
10014794:	f3af 8000 	nop.w
10014798:	636f4361 	.word	0x636f4361
1001479c:	3fd287a7 	.word	0x3fd287a7
100147a0:	8b60c8b3 	.word	0x8b60c8b3
100147a4:	3fc68a28 	.word	0x3fc68a28
100147a8:	509f79fb 	.word	0x509f79fb
100147ac:	3fd34413 	.word	0x3fd34413
100147b0:	7ff00000 	.word	0x7ff00000
100147b4:	100180e1 	.word	0x100180e1
100147b8:	100180e0 	.word	0x100180e0
100147bc:	3ff80000 	.word	0x3ff80000
100147c0:	1001a3a0 	.word	0x1001a3a0
100147c4:	100180e4 	.word	0x100180e4
100147c8:	100180f0 	.word	0x100180f0
100147cc:	f1b8 0f00 	cmp.w	r8, #0
100147d0:	f340 84a6 	ble.w	10015120 <_dtoa_r+0xb8c>
100147d4:	900f      	str	r0, [sp, #60]	@ 0x3c
100147d6:	900a      	str	r0, [sp, #40]	@ 0x28
100147d8:	e9dd 2308 	ldrd	r2, r3, [sp, #32]
100147dc:	4413      	add	r3, r2
100147de:	9309      	str	r3, [sp, #36]	@ 0x24
100147e0:	2300      	movs	r3, #0
100147e2:	930e      	str	r3, [sp, #56]	@ 0x38
100147e4:	9b24      	ldr	r3, [sp, #144]	@ 0x90
100147e6:	920b      	str	r2, [sp, #44]	@ 0x2c
100147e8:	2b09      	cmp	r3, #9
100147ea:	d994      	bls.n	10014716 <_dtoa_r+0x182>
100147ec:	2300      	movs	r3, #0
100147ee:	e9cd 3324 	strd	r3, r3, [sp, #144]	@ 0x90
100147f2:	2501      	movs	r5, #1
100147f4:	950c      	str	r5, [sp, #48]	@ 0x30
100147f6:	f04f 3bff 	mov.w	fp, #4294967295	@ 0xffffffff
100147fa:	9b04      	ldr	r3, [sp, #16]
100147fc:	f8cd b044 	str.w	fp, [sp, #68]	@ 0x44
10014800:	2100      	movs	r1, #0
10014802:	63d9      	str	r1, [r3, #60]	@ 0x3c
10014804:	9804      	ldr	r0, [sp, #16]
10014806:	f000 ff03 	bl	10015610 <_Balloc>
1001480a:	9005      	str	r0, [sp, #20]
1001480c:	2800      	cmp	r0, #0
1001480e:	f000 85cd 	beq.w	100153ac <_dtoa_r+0xe18>
10014812:	e9dd 3204 	ldrd	r3, r2, [sp, #16]
10014816:	f1bb 0f0e 	cmp.w	fp, #14
1001481a:	639a      	str	r2, [r3, #56]	@ 0x38
1001481c:	f200 8119 	bhi.w	10014a52 <_dtoa_r+0x4be>
10014820:	2d00      	cmp	r5, #0
10014822:	f000 8116 	beq.w	10014a52 <_dtoa_r+0x4be>
10014826:	990b      	ldr	r1, [sp, #44]	@ 0x2c
10014828:	2900      	cmp	r1, #0
1001482a:	f340 8449 	ble.w	100150c0 <_dtoa_r+0xb2c>
1001482e:	4bb4      	ldr	r3, [pc, #720]	@ (10014b00 <_dtoa_r+0x56c>)
10014830:	f001 020f 	and.w	r2, r1, #15
10014834:	eb03 03c2 	add.w	r3, r3, r2, lsl #3
10014838:	05c8      	lsls	r0, r1, #23
1001483a:	e9d3 8900 	ldrd	r8, r9, [r3]
1001483e:	ea4f 1521 	mov.w	r5, r1, asr #4
10014842:	f140 840b 	bpl.w	1001505c <_dtoa_r+0xac8>
10014846:	4baf      	ldr	r3, [pc, #700]	@ (10014b04 <_dtoa_r+0x570>)
10014848:	e9dd 0102 	ldrd	r0, r1, [sp, #8]
1001484c:	e9d3 2308 	ldrd	r2, r3, [r3, #32]
10014850:	f002 fea6 	bl	100175a0 <__aeabi_ddiv>
10014854:	e9cd 0112 	strd	r0, r1, [sp, #72]	@ 0x48
10014858:	f005 050f 	and.w	r5, r5, #15
1001485c:	2703      	movs	r7, #3
1001485e:	b17d      	cbz	r5, 10014880 <_dtoa_r+0x2ec>
10014860:	4ea8      	ldr	r6, [pc, #672]	@ (10014b04 <_dtoa_r+0x570>)
10014862:	07e9      	lsls	r1, r5, #31
10014864:	d508      	bpl.n	10014878 <_dtoa_r+0x2e4>
10014866:	4640      	mov	r0, r8
10014868:	4649      	mov	r1, r9
1001486a:	e9d6 2300 	ldrd	r2, r3, [r6]
1001486e:	f002 fd6d 	bl	1001734c <__aeabi_dmul>
10014872:	3701      	adds	r7, #1
10014874:	4680      	mov	r8, r0
10014876:	4689      	mov	r9, r1
10014878:	106d      	asrs	r5, r5, #1
1001487a:	f106 0608 	add.w	r6, r6, #8
1001487e:	d1f0      	bne.n	10014862 <_dtoa_r+0x2ce>
10014880:	4642      	mov	r2, r8
10014882:	464b      	mov	r3, r9
10014884:	e9dd 0112 	ldrd	r0, r1, [sp, #72]	@ 0x48
10014888:	f002 fe8a 	bl	100175a0 <__aeabi_ddiv>
1001488c:	4680      	mov	r8, r0
1001488e:	4689      	mov	r9, r1
10014890:	9b0f      	ldr	r3, [sp, #60]	@ 0x3c
10014892:	b143      	cbz	r3, 100148a6 <_dtoa_r+0x312>
10014894:	4b9c      	ldr	r3, [pc, #624]	@ (10014b08 <_dtoa_r+0x574>)
10014896:	2200      	movs	r2, #0
10014898:	4640      	mov	r0, r8
1001489a:	4649      	mov	r1, r9
1001489c:	f002 ffc8 	bl	10017830 <__aeabi_dcmplt>
100148a0:	2800      	cmp	r0, #0
100148a2:	f040 850a 	bne.w	100152ba <_dtoa_r+0xd26>
100148a6:	4638      	mov	r0, r7
100148a8:	f002 fce6 	bl	10017278 <__aeabi_i2d>
100148ac:	4642      	mov	r2, r8
100148ae:	464b      	mov	r3, r9
100148b0:	f002 fd4c 	bl	1001734c <__aeabi_dmul>
100148b4:	4b95      	ldr	r3, [pc, #596]	@ (10014b0c <_dtoa_r+0x578>)
100148b6:	2200      	movs	r2, #0
100148b8:	f002 fb92 	bl	10016fe0 <__adddf3>
100148bc:	f1a1 7350 	sub.w	r3, r1, #54525952	@ 0x3400000
100148c0:	e9cd 0112 	strd	r0, r1, [sp, #72]	@ 0x48
100148c4:	9313      	str	r3, [sp, #76]	@ 0x4c
100148c6:	f1bb 0f00 	cmp.w	fp, #0
100148ca:	f000 80a9 	beq.w	10014a20 <_dtoa_r+0x48c>
100148ce:	9b0b      	ldr	r3, [sp, #44]	@ 0x2c
100148d0:	e9cd b316 	strd	fp, r3, [sp, #88]	@ 0x58
100148d4:	4649      	mov	r1, r9
100148d6:	4640      	mov	r0, r8
100148d8:	f002 ffe8 	bl	100178ac <__aeabi_d2iz>
100148dc:	4988      	ldr	r1, [pc, #544]	@ (10014b00 <_dtoa_r+0x56c>)
100148de:	9c16      	ldr	r4, [sp, #88]	@ 0x58
100148e0:	eb01 03c4 	add.w	r3, r1, r4, lsl #3
100148e4:	e953 1202 	ldrd	r1, r2, [r3, #-8]
100148e8:	4605      	mov	r5, r0
100148ea:	e9cd 1214 	strd	r1, r2, [sp, #80]	@ 0x50
100148ee:	f002 fcc3 	bl	10017278 <__aeabi_i2d>
100148f2:	460b      	mov	r3, r1
100148f4:	4602      	mov	r2, r0
100148f6:	4649      	mov	r1, r9
100148f8:	4640      	mov	r0, r8
100148fa:	f002 fb6f 	bl	10016fdc <__aeabi_dsub>
100148fe:	9f05      	ldr	r7, [sp, #20]
10014900:	9b0c      	ldr	r3, [sp, #48]	@ 0x30
10014902:	3530      	adds	r5, #48	@ 0x30
10014904:	1c7e      	adds	r6, r7, #1
10014906:	b2ec      	uxtb	r4, r5
10014908:	4680      	mov	r8, r0
1001490a:	4689      	mov	r9, r1
1001490c:	4635      	mov	r5, r6
1001490e:	2b00      	cmp	r3, #0
10014910:	f000 846e 	beq.w	100151f0 <_dtoa_r+0xc5c>
10014914:	e9dd 2314 	ldrd	r2, r3, [sp, #80]	@ 0x50
10014918:	497d      	ldr	r1, [pc, #500]	@ (10014b10 <_dtoa_r+0x57c>)
1001491a:	2000      	movs	r0, #0
1001491c:	f002 fe40 	bl	100175a0 <__aeabi_ddiv>
10014920:	e9dd 2312 	ldrd	r2, r3, [sp, #72]	@ 0x48
10014924:	f002 fb5a 	bl	10016fdc <__aeabi_dsub>
10014928:	703c      	strb	r4, [r7, #0]
1001492a:	4642      	mov	r2, r8
1001492c:	464b      	mov	r3, r9
1001492e:	4604      	mov	r4, r0
10014930:	460d      	mov	r5, r1
10014932:	f002 ff9b 	bl	1001786c <__aeabi_dcmpgt>
10014936:	2800      	cmp	r0, #0
10014938:	f040 84b7 	bne.w	100152aa <_dtoa_r+0xd16>
1001493c:	f8cd b050 	str.w	fp, [sp, #80]	@ 0x50
10014940:	2700      	movs	r7, #0
10014942:	f8dd b058 	ldr.w	fp, [sp, #88]	@ 0x58
10014946:	f8cd a048 	str.w	sl, [sp, #72]	@ 0x48
1001494a:	e02b      	b.n	100149a4 <_dtoa_r+0x410>
1001494c:	3701      	adds	r7, #1
1001494e:	455f      	cmp	r7, fp
10014950:	f280 84fd 	bge.w	1001534e <_dtoa_r+0xdba>
10014954:	4b6f      	ldr	r3, [pc, #444]	@ (10014b14 <_dtoa_r+0x580>)
10014956:	4620      	mov	r0, r4
10014958:	4629      	mov	r1, r5
1001495a:	2200      	movs	r2, #0
1001495c:	f002 fcf6 	bl	1001734c <__aeabi_dmul>
10014960:	4b6c      	ldr	r3, [pc, #432]	@ (10014b14 <_dtoa_r+0x580>)
10014962:	2200      	movs	r2, #0
10014964:	4604      	mov	r4, r0
10014966:	460d      	mov	r5, r1
10014968:	4640      	mov	r0, r8
1001496a:	4649      	mov	r1, r9
1001496c:	f002 fcee 	bl	1001734c <__aeabi_dmul>
10014970:	4689      	mov	r9, r1
10014972:	4680      	mov	r8, r0
10014974:	f002 ff9a 	bl	100178ac <__aeabi_d2iz>
10014978:	4682      	mov	sl, r0
1001497a:	f002 fc7d 	bl	10017278 <__aeabi_i2d>
1001497e:	4602      	mov	r2, r0
10014980:	460b      	mov	r3, r1
10014982:	4640      	mov	r0, r8
10014984:	4649      	mov	r1, r9
10014986:	f002 fb29 	bl	10016fdc <__aeabi_dsub>
1001498a:	f10a 0a30 	add.w	sl, sl, #48	@ 0x30
1001498e:	f806 ab01 	strb.w	sl, [r6], #1
10014992:	4622      	mov	r2, r4
10014994:	462b      	mov	r3, r5
10014996:	4680      	mov	r8, r0
10014998:	4689      	mov	r9, r1
1001499a:	f002 ff49 	bl	10017830 <__aeabi_dcmplt>
1001499e:	2800      	cmp	r0, #0
100149a0:	f040 84d2 	bne.w	10015348 <_dtoa_r+0xdb4>
100149a4:	4642      	mov	r2, r8
100149a6:	464b      	mov	r3, r9
100149a8:	4957      	ldr	r1, [pc, #348]	@ (10014b08 <_dtoa_r+0x574>)
100149aa:	2000      	movs	r0, #0
100149ac:	f002 fb16 	bl	10016fdc <__aeabi_dsub>
100149b0:	4622      	mov	r2, r4
100149b2:	462b      	mov	r3, r5
100149b4:	f002 ff3c 	bl	10017830 <__aeabi_dcmplt>
100149b8:	2800      	cmp	r0, #0
100149ba:	d0c7      	beq.n	1001494c <_dtoa_r+0x3b8>
100149bc:	9b17      	ldr	r3, [sp, #92]	@ 0x5c
100149be:	f8dd a048 	ldr.w	sl, [sp, #72]	@ 0x48
100149c2:	9a05      	ldr	r2, [sp, #20]
100149c4:	4637      	mov	r7, r6
100149c6:	f103 0801 	add.w	r8, r3, #1
100149ca:	e002      	b.n	100149d2 <_dtoa_r+0x43e>
100149cc:	4297      	cmp	r7, r2
100149ce:	f000 849a 	beq.w	10015306 <_dtoa_r+0xd72>
100149d2:	463e      	mov	r6, r7
100149d4:	f817 3d01 	ldrb.w	r3, [r7, #-1]!
100149d8:	2b39      	cmp	r3, #57	@ 0x39
100149da:	d0f7      	beq.n	100149cc <_dtoa_r+0x438>
100149dc:	3301      	adds	r3, #1
100149de:	b2db      	uxtb	r3, r3
100149e0:	703b      	strb	r3, [r7, #0]
100149e2:	4645      	mov	r5, r8
100149e4:	e17f      	b.n	10014ce6 <_dtoa_r+0x752>
100149e6:	2301      	movs	r3, #1
100149e8:	930f      	str	r3, [sp, #60]	@ 0x3c
100149ea:	f108 33ff 	add.w	r3, r8, #4294967295	@ 0xffffffff
100149ee:	2b00      	cmp	r3, #0
100149f0:	f6bf ae80 	bge.w	100146f4 <_dtoa_r+0x160>
100149f4:	f1c8 0301 	rsb	r3, r8, #1
100149f8:	930a      	str	r3, [sp, #40]	@ 0x28
100149fa:	2300      	movs	r3, #0
100149fc:	9309      	str	r3, [sp, #36]	@ 0x24
100149fe:	e67b      	b.n	100146f8 <_dtoa_r+0x164>
10014a00:	4638      	mov	r0, r7
10014a02:	f002 fc39 	bl	10017278 <__aeabi_i2d>
10014a06:	4642      	mov	r2, r8
10014a08:	464b      	mov	r3, r9
10014a0a:	f002 fc9f 	bl	1001734c <__aeabi_dmul>
10014a0e:	4b3f      	ldr	r3, [pc, #252]	@ (10014b0c <_dtoa_r+0x578>)
10014a10:	2200      	movs	r2, #0
10014a12:	f002 fae5 	bl	10016fe0 <__adddf3>
10014a16:	f1a1 7350 	sub.w	r3, r1, #54525952	@ 0x3400000
10014a1a:	e9cd 0112 	strd	r0, r1, [sp, #72]	@ 0x48
10014a1e:	9313      	str	r3, [sp, #76]	@ 0x4c
10014a20:	4b3d      	ldr	r3, [pc, #244]	@ (10014b18 <_dtoa_r+0x584>)
10014a22:	2200      	movs	r2, #0
10014a24:	4640      	mov	r0, r8
10014a26:	4649      	mov	r1, r9
10014a28:	f002 fad8 	bl	10016fdc <__aeabi_dsub>
10014a2c:	e9dd 4512 	ldrd	r4, r5, [sp, #72]	@ 0x48
10014a30:	4622      	mov	r2, r4
10014a32:	462b      	mov	r3, r5
10014a34:	4606      	mov	r6, r0
10014a36:	460f      	mov	r7, r1
10014a38:	f002 ff18 	bl	1001786c <__aeabi_dcmpgt>
10014a3c:	2800      	cmp	r0, #0
10014a3e:	f040 8471 	bne.w	10015324 <_dtoa_r+0xd90>
10014a42:	4630      	mov	r0, r6
10014a44:	4639      	mov	r1, r7
10014a46:	4622      	mov	r2, r4
10014a48:	f105 4300 	add.w	r3, r5, #2147483648	@ 0x80000000
10014a4c:	f002 fef0 	bl	10017830 <__aeabi_dcmplt>
10014a50:	bb28      	cbnz	r0, 10014a9e <_dtoa_r+0x50a>
10014a52:	9b19      	ldr	r3, [sp, #100]	@ 0x64
10014a54:	2b00      	cmp	r3, #0
10014a56:	f2c0 8091 	blt.w	10014b7c <_dtoa_r+0x5e8>
10014a5a:	9a0b      	ldr	r2, [sp, #44]	@ 0x2c
10014a5c:	2a0e      	cmp	r2, #14
10014a5e:	f300 808d 	bgt.w	10014b7c <_dtoa_r+0x5e8>
10014a62:	4b27      	ldr	r3, [pc, #156]	@ (10014b00 <_dtoa_r+0x56c>)
10014a64:	9a0b      	ldr	r2, [sp, #44]	@ 0x2c
10014a66:	eb03 03c2 	add.w	r3, r3, r2, lsl #3
10014a6a:	e9d3 3400 	ldrd	r3, r4, [r3]
10014a6e:	e9cd 3406 	strd	r3, r4, [sp, #24]
10014a72:	9b25      	ldr	r3, [sp, #148]	@ 0x94
10014a74:	2b00      	cmp	r3, #0
10014a76:	da19      	bge.n	10014aac <_dtoa_r+0x518>
10014a78:	f1bb 0f00 	cmp.w	fp, #0
10014a7c:	dc16      	bgt.n	10014aac <_dtoa_r+0x518>
10014a7e:	d10e      	bne.n	10014a9e <_dtoa_r+0x50a>
10014a80:	4b25      	ldr	r3, [pc, #148]	@ (10014b18 <_dtoa_r+0x584>)
10014a82:	2200      	movs	r2, #0
10014a84:	e9dd 0106 	ldrd	r0, r1, [sp, #24]
10014a88:	f002 fc60 	bl	1001734c <__aeabi_dmul>
10014a8c:	4602      	mov	r2, r0
10014a8e:	460b      	mov	r3, r1
10014a90:	e9dd 0102 	ldrd	r0, r1, [sp, #8]
10014a94:	f002 fed6 	bl	10017844 <__aeabi_dcmple>
10014a98:	2800      	cmp	r0, #0
10014a9a:	f000 8443 	beq.w	10015324 <_dtoa_r+0xd90>
10014a9e:	2300      	movs	r3, #0
10014aa0:	9e05      	ldr	r6, [sp, #20]
10014aa2:	9302      	str	r3, [sp, #8]
10014aa4:	461f      	mov	r7, r3
10014aa6:	9b25      	ldr	r3, [sp, #148]	@ 0x94
10014aa8:	43dd      	mvns	r5, r3
10014aaa:	e22e      	b.n	10014f0a <_dtoa_r+0x976>
10014aac:	9b05      	ldr	r3, [sp, #20]
10014aae:	1c5d      	adds	r5, r3, #1
10014ab0:	e9dd 7806 	ldrd	r7, r8, [sp, #24]
10014ab4:	e9dd 0102 	ldrd	r0, r1, [sp, #8]
10014ab8:	463a      	mov	r2, r7
10014aba:	4643      	mov	r3, r8
10014abc:	f002 fd70 	bl	100175a0 <__aeabi_ddiv>
10014ac0:	f002 fef4 	bl	100178ac <__aeabi_d2iz>
10014ac4:	4606      	mov	r6, r0
10014ac6:	f002 fbd7 	bl	10017278 <__aeabi_i2d>
10014aca:	463a      	mov	r2, r7
10014acc:	4643      	mov	r3, r8
10014ace:	f002 fc3d 	bl	1001734c <__aeabi_dmul>
10014ad2:	4602      	mov	r2, r0
10014ad4:	460b      	mov	r3, r1
10014ad6:	e9dd 0102 	ldrd	r0, r1, [sp, #8]
10014ada:	f002 fa7f 	bl	10016fdc <__aeabi_dsub>
10014ade:	9a05      	ldr	r2, [sp, #20]
10014ae0:	f106 0330 	add.w	r3, r6, #48	@ 0x30
10014ae4:	f1bb 0f01 	cmp.w	fp, #1
10014ae8:	462f      	mov	r7, r5
10014aea:	7013      	strb	r3, [r2, #0]
10014aec:	f000 8323 	beq.w	10015136 <_dtoa_r+0xba2>
10014af0:	2501      	movs	r5, #1
10014af2:	f8cd a008 	str.w	sl, [sp, #8]
10014af6:	46a8      	mov	r8, r5
10014af8:	e9dd 9a06 	ldrd	r9, sl, [sp, #24]
10014afc:	e02c      	b.n	10014b58 <_dtoa_r+0x5c4>
10014afe:	bf00      	nop
10014b00:	1001a3a0 	.word	0x1001a3a0
10014b04:	1001a490 	.word	0x1001a490
10014b08:	3ff00000 	.word	0x3ff00000
10014b0c:	401c0000 	.word	0x401c0000
10014b10:	3fe00000 	.word	0x3fe00000
10014b14:	40240000 	.word	0x40240000
10014b18:	40140000 	.word	0x40140000
10014b1c:	464a      	mov	r2, r9
10014b1e:	4653      	mov	r3, sl
10014b20:	4620      	mov	r0, r4
10014b22:	4629      	mov	r1, r5
10014b24:	f002 fd3c 	bl	100175a0 <__aeabi_ddiv>
10014b28:	f002 fec0 	bl	100178ac <__aeabi_d2iz>
10014b2c:	4606      	mov	r6, r0
10014b2e:	f002 fba3 	bl	10017278 <__aeabi_i2d>
10014b32:	464a      	mov	r2, r9
10014b34:	4653      	mov	r3, sl
10014b36:	f002 fc09 	bl	1001734c <__aeabi_dmul>
10014b3a:	f108 0801 	add.w	r8, r8, #1
10014b3e:	460b      	mov	r3, r1
10014b40:	4602      	mov	r2, r0
10014b42:	4629      	mov	r1, r5
10014b44:	4620      	mov	r0, r4
10014b46:	f002 fa49 	bl	10016fdc <__aeabi_dsub>
10014b4a:	f106 0330 	add.w	r3, r6, #48	@ 0x30
10014b4e:	45d8      	cmp	r8, fp
10014b50:	f807 3b01 	strb.w	r3, [r7], #1
10014b54:	f000 82ed 	beq.w	10015132 <_dtoa_r+0xb9e>
10014b58:	4b84      	ldr	r3, [pc, #528]	@ (10014d6c <_dtoa_r+0x7d8>)
10014b5a:	2200      	movs	r2, #0
10014b5c:	f002 fbf6 	bl	1001734c <__aeabi_dmul>
10014b60:	2200      	movs	r2, #0
10014b62:	2300      	movs	r3, #0
10014b64:	4604      	mov	r4, r0
10014b66:	460d      	mov	r5, r1
10014b68:	f002 fe58 	bl	1001781c <__aeabi_dcmpeq>
10014b6c:	2800      	cmp	r0, #0
10014b6e:	d0d5      	beq.n	10014b1c <_dtoa_r+0x588>
10014b70:	9d0b      	ldr	r5, [sp, #44]	@ 0x2c
10014b72:	f8dd a008 	ldr.w	sl, [sp, #8]
10014b76:	3501      	adds	r5, #1
10014b78:	463e      	mov	r6, r7
10014b7a:	e0b4      	b.n	10014ce6 <_dtoa_r+0x752>
10014b7c:	9a0c      	ldr	r2, [sp, #48]	@ 0x30
10014b7e:	2a00      	cmp	r2, #0
10014b80:	f040 80d8 	bne.w	10014d34 <_dtoa_r+0x7a0>
10014b84:	2300      	movs	r3, #0
10014b86:	9e0e      	ldr	r6, [sp, #56]	@ 0x38
10014b88:	9d0a      	ldr	r5, [sp, #40]	@ 0x28
10014b8a:	930c      	str	r3, [sp, #48]	@ 0x30
10014b8c:	461f      	mov	r7, r3
10014b8e:	b165      	cbz	r5, 10014baa <_dtoa_r+0x616>
10014b90:	9909      	ldr	r1, [sp, #36]	@ 0x24
10014b92:	2900      	cmp	r1, #0
10014b94:	460b      	mov	r3, r1
10014b96:	dd08      	ble.n	10014baa <_dtoa_r+0x616>
10014b98:	9a0a      	ldr	r2, [sp, #40]	@ 0x28
10014b9a:	42a9      	cmp	r1, r5
10014b9c:	bfa8      	it	ge
10014b9e:	462b      	movge	r3, r5
10014ba0:	1ad2      	subs	r2, r2, r3
10014ba2:	1aed      	subs	r5, r5, r3
10014ba4:	1acb      	subs	r3, r1, r3
10014ba6:	920a      	str	r2, [sp, #40]	@ 0x28
10014ba8:	9309      	str	r3, [sp, #36]	@ 0x24
10014baa:	9b0e      	ldr	r3, [sp, #56]	@ 0x38
10014bac:	b153      	cbz	r3, 10014bc4 <_dtoa_r+0x630>
10014bae:	9b0c      	ldr	r3, [sp, #48]	@ 0x30
10014bb0:	b113      	cbz	r3, 10014bb8 <_dtoa_r+0x624>
10014bb2:	2e00      	cmp	r6, #0
10014bb4:	f040 82f8 	bne.w	100151a8 <_dtoa_r+0xc14>
10014bb8:	4651      	mov	r1, sl
10014bba:	9a0e      	ldr	r2, [sp, #56]	@ 0x38
10014bbc:	9804      	ldr	r0, [sp, #16]
10014bbe:	f000 ff37 	bl	10015a30 <__pow5mult>
10014bc2:	4682      	mov	sl, r0
10014bc4:	9804      	ldr	r0, [sp, #16]
10014bc6:	2101      	movs	r1, #1
10014bc8:	f000 fe4e 	bl	10015868 <__i2b>
10014bcc:	9b08      	ldr	r3, [sp, #32]
10014bce:	9002      	str	r0, [sp, #8]
10014bd0:	2b00      	cmp	r3, #0
10014bd2:	f040 81be 	bne.w	10014f52 <_dtoa_r+0x9be>
10014bd6:	9b24      	ldr	r3, [sp, #144]	@ 0x90
10014bd8:	2b01      	cmp	r3, #1
10014bda:	f340 81d4 	ble.w	10014f86 <_dtoa_r+0x9f2>
10014bde:	2001      	movs	r0, #1
10014be0:	9a09      	ldr	r2, [sp, #36]	@ 0x24
10014be2:	4410      	add	r0, r2
10014be4:	f010 001f 	ands.w	r0, r0, #31
10014be8:	f000 809b 	beq.w	10014d22 <_dtoa_r+0x78e>
10014bec:	f1c0 0320 	rsb	r3, r0, #32
10014bf0:	2b04      	cmp	r3, #4
10014bf2:	f340 81e3 	ble.w	10014fbc <_dtoa_r+0xa28>
10014bf6:	9b0a      	ldr	r3, [sp, #40]	@ 0x28
10014bf8:	f1c0 001c 	rsb	r0, r0, #28
10014bfc:	4403      	add	r3, r0
10014bfe:	4402      	add	r2, r0
10014c00:	930a      	str	r3, [sp, #40]	@ 0x28
10014c02:	4405      	add	r5, r0
10014c04:	9209      	str	r2, [sp, #36]	@ 0x24
10014c06:	9b0a      	ldr	r3, [sp, #40]	@ 0x28
10014c08:	2b00      	cmp	r3, #0
10014c0a:	dd05      	ble.n	10014c18 <_dtoa_r+0x684>
10014c0c:	4651      	mov	r1, sl
10014c0e:	9804      	ldr	r0, [sp, #16]
10014c10:	461a      	mov	r2, r3
10014c12:	f000 ff67 	bl	10015ae4 <__lshift>
10014c16:	4682      	mov	sl, r0
10014c18:	9b09      	ldr	r3, [sp, #36]	@ 0x24
10014c1a:	2b00      	cmp	r3, #0
10014c1c:	dd05      	ble.n	10014c2a <_dtoa_r+0x696>
10014c1e:	9902      	ldr	r1, [sp, #8]
10014c20:	9804      	ldr	r0, [sp, #16]
10014c22:	461a      	mov	r2, r3
10014c24:	f000 ff5e 	bl	10015ae4 <__lshift>
10014c28:	9002      	str	r0, [sp, #8]
10014c2a:	9b0f      	ldr	r3, [sp, #60]	@ 0x3c
10014c2c:	2b00      	cmp	r3, #0
10014c2e:	f040 8175 	bne.w	10014f1c <_dtoa_r+0x988>
10014c32:	f1bb 0f00 	cmp.w	fp, #0
10014c36:	f340 814c 	ble.w	10014ed2 <_dtoa_r+0x93e>
10014c3a:	9b0c      	ldr	r3, [sp, #48]	@ 0x30
10014c3c:	2b00      	cmp	r3, #0
10014c3e:	f040 80a4 	bne.w	10014d8a <_dtoa_r+0x7f6>
10014c42:	9d0b      	ldr	r5, [sp, #44]	@ 0x2c
10014c44:	3501      	adds	r5, #1
10014c46:	f8dd 8014 	ldr.w	r8, [sp, #20]
10014c4a:	9c02      	ldr	r4, [sp, #8]
10014c4c:	f8dd 9010 	ldr.w	r9, [sp, #16]
10014c50:	2601      	movs	r6, #1
10014c52:	e007      	b.n	10014c64 <_dtoa_r+0x6d0>
10014c54:	4651      	mov	r1, sl
10014c56:	2300      	movs	r3, #0
10014c58:	220a      	movs	r2, #10
10014c5a:	4648      	mov	r0, r9
10014c5c:	f000 fd08 	bl	10015670 <__multadd>
10014c60:	3601      	adds	r6, #1
10014c62:	4682      	mov	sl, r0
10014c64:	4621      	mov	r1, r4
10014c66:	4650      	mov	r0, sl
10014c68:	f7ff fbfe 	bl	10014468 <quorem>
10014c6c:	45b3      	cmp	fp, r6
10014c6e:	f100 0030 	add.w	r0, r0, #48	@ 0x30
10014c72:	f808 0b01 	strb.w	r0, [r8], #1
10014c76:	dced      	bgt.n	10014c54 <_dtoa_r+0x6c0>
10014c78:	f1bb 0f00 	cmp.w	fp, #0
10014c7c:	9b05      	ldr	r3, [sp, #20]
10014c7e:	bfcc      	ite	gt
10014c80:	465e      	movgt	r6, fp
10014c82:	2601      	movle	r6, #1
10014c84:	4681      	mov	r9, r0
10014c86:	eb03 0b06 	add.w	fp, r3, r6
10014c8a:	2400      	movs	r4, #0
10014c8c:	4651      	mov	r1, sl
10014c8e:	2201      	movs	r2, #1
10014c90:	9804      	ldr	r0, [sp, #16]
10014c92:	f000 ff27 	bl	10015ae4 <__lshift>
10014c96:	9902      	ldr	r1, [sp, #8]
10014c98:	4682      	mov	sl, r0
10014c9a:	f000 ff9b 	bl	10015bd4 <__mcmp>
10014c9e:	2800      	cmp	r0, #0
10014ca0:	f340 81ef 	ble.w	10015082 <_dtoa_r+0xaee>
10014ca4:	9a05      	ldr	r2, [sp, #20]
10014ca6:	e002      	b.n	10014cae <_dtoa_r+0x71a>
10014ca8:	4593      	cmp	fp, r2
10014caa:	f000 8204 	beq.w	100150b6 <_dtoa_r+0xb22>
10014cae:	465e      	mov	r6, fp
10014cb0:	f10b 3bff 	add.w	fp, fp, #4294967295	@ 0xffffffff
10014cb4:	f816 3c01 	ldrb.w	r3, [r6, #-1]
10014cb8:	2b39      	cmp	r3, #57	@ 0x39
10014cba:	d0f5      	beq.n	10014ca8 <_dtoa_r+0x714>
10014cbc:	3301      	adds	r3, #1
10014cbe:	f88b 3000 	strb.w	r3, [fp]
10014cc2:	f8dd 8010 	ldr.w	r8, [sp, #16]
10014cc6:	9902      	ldr	r1, [sp, #8]
10014cc8:	4640      	mov	r0, r8
10014cca:	f000 fcc7 	bl	1001565c <_Bfree>
10014cce:	b157      	cbz	r7, 10014ce6 <_dtoa_r+0x752>
10014cd0:	b12c      	cbz	r4, 10014cde <_dtoa_r+0x74a>
10014cd2:	42bc      	cmp	r4, r7
10014cd4:	d003      	beq.n	10014cde <_dtoa_r+0x74a>
10014cd6:	4621      	mov	r1, r4
10014cd8:	4640      	mov	r0, r8
10014cda:	f000 fcbf 	bl	1001565c <_Bfree>
10014cde:	9804      	ldr	r0, [sp, #16]
10014ce0:	4639      	mov	r1, r7
10014ce2:	f000 fcbb 	bl	1001565c <_Bfree>
10014ce6:	9804      	ldr	r0, [sp, #16]
10014ce8:	4651      	mov	r1, sl
10014cea:	f000 fcb7 	bl	1001565c <_Bfree>
10014cee:	2300      	movs	r3, #0
10014cf0:	7033      	strb	r3, [r6, #0]
10014cf2:	9b26      	ldr	r3, [sp, #152]	@ 0x98
10014cf4:	601d      	str	r5, [r3, #0]
10014cf6:	9b28      	ldr	r3, [sp, #160]	@ 0xa0
10014cf8:	2b00      	cmp	r3, #0
10014cfa:	f43f ac86 	beq.w	1001460a <_dtoa_r+0x76>
10014cfe:	9805      	ldr	r0, [sp, #20]
10014d00:	601e      	str	r6, [r3, #0]
10014d02:	b01b      	add	sp, #108	@ 0x6c
10014d04:	e8bd 8ff0 	ldmia.w	sp!, {r4, r5, r6, r7, r8, r9, sl, fp, pc}
10014d08:	4620      	mov	r0, r4
10014d0a:	f002 fab5 	bl	10017278 <__aeabi_i2d>
10014d0e:	4632      	mov	r2, r6
10014d10:	463b      	mov	r3, r7
10014d12:	f002 fd83 	bl	1001781c <__aeabi_dcmpeq>
10014d16:	2800      	cmp	r0, #0
10014d18:	f47f accf 	bne.w	100146ba <_dtoa_r+0x126>
10014d1c:	1e63      	subs	r3, r4, #1
10014d1e:	9308      	str	r3, [sp, #32]
10014d20:	e4cb      	b.n	100146ba <_dtoa_r+0x126>
10014d22:	231c      	movs	r3, #28
10014d24:	9a0a      	ldr	r2, [sp, #40]	@ 0x28
10014d26:	441a      	add	r2, r3
10014d28:	920a      	str	r2, [sp, #40]	@ 0x28
10014d2a:	9a09      	ldr	r2, [sp, #36]	@ 0x24
10014d2c:	441a      	add	r2, r3
10014d2e:	441d      	add	r5, r3
10014d30:	9209      	str	r2, [sp, #36]	@ 0x24
10014d32:	e768      	b.n	10014c06 <_dtoa_r+0x672>
10014d34:	9a24      	ldr	r2, [sp, #144]	@ 0x90
10014d36:	2a01      	cmp	r2, #1
10014d38:	f340 81ae 	ble.w	10015098 <_dtoa_r+0xb04>
10014d3c:	9b0e      	ldr	r3, [sp, #56]	@ 0x38
10014d3e:	f10b 36ff 	add.w	r6, fp, #4294967295	@ 0xffffffff
10014d42:	42b3      	cmp	r3, r6
10014d44:	f2c0 816a 	blt.w	1001501c <_dtoa_r+0xa88>
10014d48:	f1bb 0f00 	cmp.w	fp, #0
10014d4c:	eba3 0606 	sub.w	r6, r3, r6
10014d50:	f280 82ec 	bge.w	1001532c <_dtoa_r+0xd98>
10014d54:	9b0a      	ldr	r3, [sp, #40]	@ 0x28
10014d56:	eba3 050b 	sub.w	r5, r3, fp
10014d5a:	e16d      	b.n	10015038 <_dtoa_r+0xaa4>
10014d5c:	f1c3 0320 	rsb	r3, r3, #32
10014d60:	fa06 f003 	lsl.w	r0, r6, r3
10014d64:	e475      	b.n	10014652 <_dtoa_r+0xbe>
10014d66:	2501      	movs	r5, #1
10014d68:	e4db      	b.n	10014722 <_dtoa_r+0x18e>
10014d6a:	bf00      	nop
10014d6c:	40240000 	.word	0x40240000
10014d70:	4639      	mov	r1, r7
10014d72:	2300      	movs	r3, #0
10014d74:	9804      	ldr	r0, [sp, #16]
10014d76:	220a      	movs	r2, #10
10014d78:	f000 fc7a 	bl	10015670 <__multadd>
10014d7c:	9b11      	ldr	r3, [sp, #68]	@ 0x44
10014d7e:	2b00      	cmp	r3, #0
10014d80:	4607      	mov	r7, r0
10014d82:	f340 82fc 	ble.w	1001537e <_dtoa_r+0xdea>
10014d86:	960b      	str	r6, [sp, #44]	@ 0x2c
10014d88:	469b      	mov	fp, r3
10014d8a:	2d00      	cmp	r5, #0
10014d8c:	dd05      	ble.n	10014d9a <_dtoa_r+0x806>
10014d8e:	4639      	mov	r1, r7
10014d90:	9804      	ldr	r0, [sp, #16]
10014d92:	462a      	mov	r2, r5
10014d94:	f000 fea6 	bl	10015ae4 <__lshift>
10014d98:	4607      	mov	r7, r0
10014d9a:	9b08      	ldr	r3, [sp, #32]
10014d9c:	2b00      	cmp	r3, #0
10014d9e:	f040 81e7 	bne.w	10015170 <_dtoa_r+0xbdc>
10014da2:	46b8      	mov	r8, r7
10014da4:	9e05      	ldr	r6, [sp, #20]
10014da6:	1e73      	subs	r3, r6, #1
10014da8:	eb03 040b 	add.w	r4, r3, fp
10014dac:	9b06      	ldr	r3, [sp, #24]
10014dae:	940a      	str	r4, [sp, #40]	@ 0x28
10014db0:	f003 0301 	and.w	r3, r3, #1
10014db4:	9c04      	ldr	r4, [sp, #16]
10014db6:	930c      	str	r3, [sp, #48]	@ 0x30
10014db8:	9902      	ldr	r1, [sp, #8]
10014dba:	4650      	mov	r0, sl
10014dbc:	f7ff fb54 	bl	10014468 <quorem>
10014dc0:	4639      	mov	r1, r7
10014dc2:	4683      	mov	fp, r0
10014dc4:	4650      	mov	r0, sl
10014dc6:	f000 ff05 	bl	10015bd4 <__mcmp>
10014dca:	9902      	ldr	r1, [sp, #8]
10014dcc:	4605      	mov	r5, r0
10014dce:	4642      	mov	r2, r8
10014dd0:	4620      	mov	r0, r4
10014dd2:	f000 ff1f 	bl	10015c14 <__mdiff>
10014dd6:	68c3      	ldr	r3, [r0, #12]
10014dd8:	f10b 0930 	add.w	r9, fp, #48	@ 0x30
10014ddc:	4601      	mov	r1, r0
10014dde:	bbab      	cbnz	r3, 10014e4c <_dtoa_r+0x8b8>
10014de0:	9009      	str	r0, [sp, #36]	@ 0x24
10014de2:	4650      	mov	r0, sl
10014de4:	f000 fef6 	bl	10015bd4 <__mcmp>
10014de8:	9909      	ldr	r1, [sp, #36]	@ 0x24
10014dea:	9008      	str	r0, [sp, #32]
10014dec:	4620      	mov	r0, r4
10014dee:	f000 fc35 	bl	1001565c <_Bfree>
10014df2:	9a08      	ldr	r2, [sp, #32]
10014df4:	2a00      	cmp	r2, #0
10014df6:	d154      	bne.n	10014ea2 <_dtoa_r+0x90e>
10014df8:	9b24      	ldr	r3, [sp, #144]	@ 0x90
10014dfa:	b91b      	cbnz	r3, 10014e04 <_dtoa_r+0x870>
10014dfc:	9b0c      	ldr	r3, [sp, #48]	@ 0x30
10014dfe:	2b00      	cmp	r3, #0
10014e00:	f000 82ab 	beq.w	1001535a <_dtoa_r+0xdc6>
10014e04:	2d00      	cmp	r5, #0
10014e06:	db3f      	blt.n	10014e88 <_dtoa_r+0x8f4>
10014e08:	9b0a      	ldr	r3, [sp, #40]	@ 0x28
10014e0a:	46b3      	mov	fp, r6
10014e0c:	429e      	cmp	r6, r3
10014e0e:	f80b 9b01 	strb.w	r9, [fp], #1
10014e12:	f000 81c4 	beq.w	1001519e <_dtoa_r+0xc0a>
10014e16:	4651      	mov	r1, sl
10014e18:	2300      	movs	r3, #0
10014e1a:	220a      	movs	r2, #10
10014e1c:	4620      	mov	r0, r4
10014e1e:	f000 fc27 	bl	10015670 <__multadd>
10014e22:	4547      	cmp	r7, r8
10014e24:	4682      	mov	sl, r0
10014e26:	4639      	mov	r1, r7
10014e28:	f04f 0300 	mov.w	r3, #0
10014e2c:	f04f 020a 	mov.w	r2, #10
10014e30:	4620      	mov	r0, r4
10014e32:	d030      	beq.n	10014e96 <_dtoa_r+0x902>
10014e34:	f000 fc1c 	bl	10015670 <__multadd>
10014e38:	4641      	mov	r1, r8
10014e3a:	4607      	mov	r7, r0
10014e3c:	2300      	movs	r3, #0
10014e3e:	220a      	movs	r2, #10
10014e40:	4620      	mov	r0, r4
10014e42:	f000 fc15 	bl	10015670 <__multadd>
10014e46:	465e      	mov	r6, fp
10014e48:	4680      	mov	r8, r0
10014e4a:	e7b5      	b.n	10014db8 <_dtoa_r+0x824>
10014e4c:	9804      	ldr	r0, [sp, #16]
10014e4e:	f000 fc05 	bl	1001565c <_Bfree>
10014e52:	2d00      	cmp	r5, #0
10014e54:	db06      	blt.n	10014e64 <_dtoa_r+0x8d0>
10014e56:	9b06      	ldr	r3, [sp, #24]
10014e58:	f003 0201 	and.w	r2, r3, #1
10014e5c:	9b24      	ldr	r3, [sp, #144]	@ 0x90
10014e5e:	431d      	orrs	r5, r3
10014e60:	432a      	orrs	r2, r5
10014e62:	d129      	bne.n	10014eb8 <_dtoa_r+0x924>
10014e64:	4651      	mov	r1, sl
10014e66:	2201      	movs	r2, #1
10014e68:	9804      	ldr	r0, [sp, #16]
10014e6a:	f000 fe3b 	bl	10015ae4 <__lshift>
10014e6e:	9902      	ldr	r1, [sp, #8]
10014e70:	4682      	mov	sl, r0
10014e72:	f000 feaf 	bl	10015bd4 <__mcmp>
10014e76:	2800      	cmp	r0, #0
10014e78:	f340 80f7 	ble.w	1001506a <_dtoa_r+0xad6>
10014e7c:	f1b9 0f39 	cmp.w	r9, #57	@ 0x39
10014e80:	f000 8246 	beq.w	10015310 <_dtoa_r+0xd7c>
10014e84:	f10b 0931 	add.w	r9, fp, #49	@ 0x31
10014e88:	9d0b      	ldr	r5, [sp, #44]	@ 0x2c
10014e8a:	f806 9b01 	strb.w	r9, [r6], #1
10014e8e:	463c      	mov	r4, r7
10014e90:	3501      	adds	r5, #1
10014e92:	4647      	mov	r7, r8
10014e94:	e715      	b.n	10014cc2 <_dtoa_r+0x72e>
10014e96:	f000 fbeb 	bl	10015670 <__multadd>
10014e9a:	465e      	mov	r6, fp
10014e9c:	4607      	mov	r7, r0
10014e9e:	4680      	mov	r8, r0
10014ea0:	e78a      	b.n	10014db8 <_dtoa_r+0x824>
10014ea2:	2d00      	cmp	r5, #0
10014ea4:	f2c0 8290 	blt.w	100153c8 <_dtoa_r+0xe34>
10014ea8:	9b24      	ldr	r3, [sp, #144]	@ 0x90
10014eaa:	431d      	orrs	r5, r3
10014eac:	9b0c      	ldr	r3, [sp, #48]	@ 0x30
10014eae:	431d      	orrs	r5, r3
10014eb0:	f000 828a 	beq.w	100153c8 <_dtoa_r+0xe34>
10014eb4:	2a00      	cmp	r2, #0
10014eb6:	dda7      	ble.n	10014e08 <_dtoa_r+0x874>
10014eb8:	f1b9 0f39 	cmp.w	r9, #57	@ 0x39
10014ebc:	f000 8228 	beq.w	10015310 <_dtoa_r+0xd7c>
10014ec0:	9d0b      	ldr	r5, [sp, #44]	@ 0x2c
10014ec2:	f109 0301 	add.w	r3, r9, #1
10014ec6:	463c      	mov	r4, r7
10014ec8:	f806 3b01 	strb.w	r3, [r6], #1
10014ecc:	3501      	adds	r5, #1
10014ece:	4647      	mov	r7, r8
10014ed0:	e6f7      	b.n	10014cc2 <_dtoa_r+0x72e>
10014ed2:	9b24      	ldr	r3, [sp, #144]	@ 0x90
10014ed4:	2b02      	cmp	r3, #2
10014ed6:	f77f aeb0 	ble.w	10014c3a <_dtoa_r+0x6a6>
10014eda:	f1bb 0f00 	cmp.w	fp, #0
10014ede:	f040 8126 	bne.w	1001512e <_dtoa_r+0xb9a>
10014ee2:	9902      	ldr	r1, [sp, #8]
10014ee4:	9804      	ldr	r0, [sp, #16]
10014ee6:	465b      	mov	r3, fp
10014ee8:	2205      	movs	r2, #5
10014eea:	f000 fbc1 	bl	10015670 <__multadd>
10014eee:	4601      	mov	r1, r0
10014ef0:	9002      	str	r0, [sp, #8]
10014ef2:	4650      	mov	r0, sl
10014ef4:	f000 fe6e 	bl	10015bd4 <__mcmp>
10014ef8:	2800      	cmp	r0, #0
10014efa:	f340 8118 	ble.w	1001512e <_dtoa_r+0xb9a>
10014efe:	9e05      	ldr	r6, [sp, #20]
10014f00:	9d0b      	ldr	r5, [sp, #44]	@ 0x2c
10014f02:	2331      	movs	r3, #49	@ 0x31
10014f04:	f806 3b01 	strb.w	r3, [r6], #1
10014f08:	3501      	adds	r5, #1
10014f0a:	9902      	ldr	r1, [sp, #8]
10014f0c:	9804      	ldr	r0, [sp, #16]
10014f0e:	f000 fba5 	bl	1001565c <_Bfree>
10014f12:	3501      	adds	r5, #1
10014f14:	2f00      	cmp	r7, #0
10014f16:	f47f aee2 	bne.w	10014cde <_dtoa_r+0x74a>
10014f1a:	e6e4      	b.n	10014ce6 <_dtoa_r+0x752>
10014f1c:	9902      	ldr	r1, [sp, #8]
10014f1e:	4650      	mov	r0, sl
10014f20:	f000 fe58 	bl	10015bd4 <__mcmp>
10014f24:	2800      	cmp	r0, #0
10014f26:	f6bf ae84 	bge.w	10014c32 <_dtoa_r+0x69e>
10014f2a:	4651      	mov	r1, sl
10014f2c:	2300      	movs	r3, #0
10014f2e:	9804      	ldr	r0, [sp, #16]
10014f30:	9c0b      	ldr	r4, [sp, #44]	@ 0x2c
10014f32:	220a      	movs	r2, #10
10014f34:	f000 fb9c 	bl	10015670 <__multadd>
10014f38:	9b0c      	ldr	r3, [sp, #48]	@ 0x30
10014f3a:	1e66      	subs	r6, r4, #1
10014f3c:	4682      	mov	sl, r0
10014f3e:	2b00      	cmp	r3, #0
10014f40:	f47f af16 	bne.w	10014d70 <_dtoa_r+0x7dc>
10014f44:	9b11      	ldr	r3, [sp, #68]	@ 0x44
10014f46:	2b00      	cmp	r3, #0
10014f48:	f340 820e 	ble.w	10015368 <_dtoa_r+0xdd4>
10014f4c:	9d0b      	ldr	r5, [sp, #44]	@ 0x2c
10014f4e:	469b      	mov	fp, r3
10014f50:	e679      	b.n	10014c46 <_dtoa_r+0x6b2>
10014f52:	4601      	mov	r1, r0
10014f54:	461a      	mov	r2, r3
10014f56:	9804      	ldr	r0, [sp, #16]
10014f58:	f000 fd6a 	bl	10015a30 <__pow5mult>
10014f5c:	9b24      	ldr	r3, [sp, #144]	@ 0x90
10014f5e:	9002      	str	r0, [sp, #8]
10014f60:	2b01      	cmp	r3, #1
10014f62:	dd6f      	ble.n	10015044 <_dtoa_r+0xab0>
10014f64:	2300      	movs	r3, #0
10014f66:	9308      	str	r3, [sp, #32]
10014f68:	9a02      	ldr	r2, [sp, #8]
10014f6a:	6913      	ldr	r3, [r2, #16]
10014f6c:	eb02 0383 	add.w	r3, r2, r3, lsl #2
10014f70:	6918      	ldr	r0, [r3, #16]
10014f72:	f000 fc27 	bl	100157c4 <__hi0bits>
10014f76:	f1c0 0020 	rsb	r0, r0, #32
10014f7a:	e631      	b.n	10014be0 <_dtoa_r+0x64c>
10014f7c:	4b98      	ldr	r3, [pc, #608]	@ (100151e0 <_dtoa_r+0xc4c>)
10014f7e:	9305      	str	r3, [sp, #20]
10014f80:	3303      	adds	r3, #3
10014f82:	f7ff bbe9 	b.w	10014758 <_dtoa_r+0x1c4>
10014f86:	9b06      	ldr	r3, [sp, #24]
10014f88:	2b00      	cmp	r3, #0
10014f8a:	f47f ae28 	bne.w	10014bde <_dtoa_r+0x64a>
10014f8e:	e9dd 1206 	ldrd	r1, r2, [sp, #24]
10014f92:	f3c2 0313 	ubfx	r3, r2, #0, #20
10014f96:	2b00      	cmp	r3, #0
10014f98:	f47f ae21 	bne.w	10014bde <_dtoa_r+0x64a>
10014f9c:	4b91      	ldr	r3, [pc, #580]	@ (100151e4 <_dtoa_r+0xc50>)
10014f9e:	4013      	ands	r3, r2
10014fa0:	b133      	cbz	r3, 10014fb0 <_dtoa_r+0xa1c>
10014fa2:	9b0a      	ldr	r3, [sp, #40]	@ 0x28
10014fa4:	3301      	adds	r3, #1
10014fa6:	930a      	str	r3, [sp, #40]	@ 0x28
10014fa8:	9b09      	ldr	r3, [sp, #36]	@ 0x24
10014faa:	3301      	adds	r3, #1
10014fac:	9309      	str	r3, [sp, #36]	@ 0x24
10014fae:	2301      	movs	r3, #1
10014fb0:	9a08      	ldr	r2, [sp, #32]
10014fb2:	9308      	str	r3, [sp, #32]
10014fb4:	2a00      	cmp	r2, #0
10014fb6:	f43f ae12 	beq.w	10014bde <_dtoa_r+0x64a>
10014fba:	e7d5      	b.n	10014f68 <_dtoa_r+0x9d4>
10014fbc:	f43f ae23 	beq.w	10014c06 <_dtoa_r+0x672>
10014fc0:	f1c0 033c 	rsb	r3, r0, #60	@ 0x3c
10014fc4:	e6ae      	b.n	10014d24 <_dtoa_r+0x790>
10014fc6:	2301      	movs	r3, #1
10014fc8:	930c      	str	r3, [sp, #48]	@ 0x30
10014fca:	9b25      	ldr	r3, [sp, #148]	@ 0x94
10014fcc:	9a0b      	ldr	r2, [sp, #44]	@ 0x2c
10014fce:	4413      	add	r3, r2
10014fd0:	f103 0b01 	add.w	fp, r3, #1
10014fd4:	465e      	mov	r6, fp
10014fd6:	2e01      	cmp	r6, #1
10014fd8:	9311      	str	r3, [sp, #68]	@ 0x44
10014fda:	bfb8      	it	lt
10014fdc:	2601      	movlt	r6, #1
10014fde:	2e17      	cmp	r6, #23
10014fe0:	f340 81f6 	ble.w	100153d0 <_dtoa_r+0xe3c>
10014fe4:	2201      	movs	r2, #1
10014fe6:	2304      	movs	r3, #4
10014fe8:	005b      	lsls	r3, r3, #1
10014fea:	f103 0014 	add.w	r0, r3, #20
10014fee:	42b0      	cmp	r0, r6
10014ff0:	4611      	mov	r1, r2
10014ff2:	f102 0201 	add.w	r2, r2, #1
10014ff6:	d9f7      	bls.n	10014fe8 <_dtoa_r+0xa54>
10014ff8:	9b04      	ldr	r3, [sp, #16]
10014ffa:	63d9      	str	r1, [r3, #60]	@ 0x3c
10014ffc:	e402      	b.n	10014804 <_dtoa_r+0x270>
10014ffe:	2301      	movs	r3, #1
10015000:	930c      	str	r3, [sp, #48]	@ 0x30
10015002:	9b25      	ldr	r3, [sp, #148]	@ 0x94
10015004:	2b00      	cmp	r3, #0
10015006:	dd37      	ble.n	10015078 <_dtoa_r+0xae4>
10015008:	9311      	str	r3, [sp, #68]	@ 0x44
1001500a:	469b      	mov	fp, r3
1001500c:	461e      	mov	r6, r3
1001500e:	e7e6      	b.n	10014fde <_dtoa_r+0xa4a>
10015010:	2300      	movs	r3, #0
10015012:	930c      	str	r3, [sp, #48]	@ 0x30
10015014:	e7d9      	b.n	10014fca <_dtoa_r+0xa36>
10015016:	2300      	movs	r3, #0
10015018:	930c      	str	r3, [sp, #48]	@ 0x30
1001501a:	e7f2      	b.n	10015002 <_dtoa_r+0xa6e>
1001501c:	9b0e      	ldr	r3, [sp, #56]	@ 0x38
1001501e:	9a08      	ldr	r2, [sp, #32]
10015020:	960e      	str	r6, [sp, #56]	@ 0x38
10015022:	1af3      	subs	r3, r6, r3
10015024:	441a      	add	r2, r3
10015026:	9b09      	ldr	r3, [sp, #36]	@ 0x24
10015028:	9208      	str	r2, [sp, #32]
1001502a:	445b      	add	r3, fp
1001502c:	9309      	str	r3, [sp, #36]	@ 0x24
1001502e:	9b0a      	ldr	r3, [sp, #40]	@ 0x28
10015030:	461d      	mov	r5, r3
10015032:	445b      	add	r3, fp
10015034:	930a      	str	r3, [sp, #40]	@ 0x28
10015036:	2600      	movs	r6, #0
10015038:	9804      	ldr	r0, [sp, #16]
1001503a:	2101      	movs	r1, #1
1001503c:	f000 fc14 	bl	10015868 <__i2b>
10015040:	4607      	mov	r7, r0
10015042:	e5a4      	b.n	10014b8e <_dtoa_r+0x5fa>
10015044:	9b06      	ldr	r3, [sp, #24]
10015046:	2b00      	cmp	r3, #0
10015048:	d18c      	bne.n	10014f64 <_dtoa_r+0x9d0>
1001504a:	e9dd 0106 	ldrd	r0, r1, [sp, #24]
1001504e:	f3c1 0313 	ubfx	r3, r1, #0, #20
10015052:	460a      	mov	r2, r1
10015054:	2b00      	cmp	r3, #0
10015056:	d0a1      	beq.n	10014f9c <_dtoa_r+0xa08>
10015058:	9008      	str	r0, [sp, #32]
1001505a:	e785      	b.n	10014f68 <_dtoa_r+0x9d4>
1001505c:	e9dd 3402 	ldrd	r3, r4, [sp, #8]
10015060:	2702      	movs	r7, #2
10015062:	e9cd 3412 	strd	r3, r4, [sp, #72]	@ 0x48
10015066:	f7ff bbfa 	b.w	1001485e <_dtoa_r+0x2ca>
1001506a:	f47f af0d 	bne.w	10014e88 <_dtoa_r+0x8f4>
1001506e:	f019 0f01 	tst.w	r9, #1
10015072:	f47f af03 	bne.w	10014e7c <_dtoa_r+0x8e8>
10015076:	e707      	b.n	10014e88 <_dtoa_r+0x8f4>
10015078:	2301      	movs	r3, #1
1001507a:	9325      	str	r3, [sp, #148]	@ 0x94
1001507c:	469b      	mov	fp, r3
1001507e:	f7ff bbbc 	b.w	100147fa <_dtoa_r+0x266>
10015082:	d103      	bne.n	1001508c <_dtoa_r+0xaf8>
10015084:	f019 0f01 	tst.w	r9, #1
10015088:	f47f ae0c 	bne.w	10014ca4 <_dtoa_r+0x710>
1001508c:	465e      	mov	r6, fp
1001508e:	f81b 3d01 	ldrb.w	r3, [fp, #-1]!
10015092:	2b30      	cmp	r3, #48	@ 0x30
10015094:	d0fa      	beq.n	1001508c <_dtoa_r+0xaf8>
10015096:	e614      	b.n	10014cc2 <_dtoa_r+0x72e>
10015098:	9a10      	ldr	r2, [sp, #64]	@ 0x40
1001509a:	2a00      	cmp	r2, #0
1001509c:	f000 809c 	beq.w	100151d8 <_dtoa_r+0xc44>
100150a0:	f203 4333 	addw	r3, r3, #1075	@ 0x433
100150a4:	9a09      	ldr	r2, [sp, #36]	@ 0x24
100150a6:	9e0e      	ldr	r6, [sp, #56]	@ 0x38
100150a8:	441a      	add	r2, r3
100150aa:	9209      	str	r2, [sp, #36]	@ 0x24
100150ac:	9a0a      	ldr	r2, [sp, #40]	@ 0x28
100150ae:	4615      	mov	r5, r2
100150b0:	441a      	add	r2, r3
100150b2:	920a      	str	r2, [sp, #40]	@ 0x28
100150b4:	e7c0      	b.n	10015038 <_dtoa_r+0xaa4>
100150b6:	9a05      	ldr	r2, [sp, #20]
100150b8:	2331      	movs	r3, #49	@ 0x31
100150ba:	3501      	adds	r5, #1
100150bc:	7013      	strb	r3, [r2, #0]
100150be:	e600      	b.n	10014cc2 <_dtoa_r+0x72e>
100150c0:	f000 80f6 	beq.w	100152b0 <_dtoa_r+0xd1c>
100150c4:	9a0b      	ldr	r2, [sp, #44]	@ 0x2c
100150c6:	4b48      	ldr	r3, [pc, #288]	@ (100151e8 <_dtoa_r+0xc54>)
100150c8:	4255      	negs	r5, r2
100150ca:	f005 020f 	and.w	r2, r5, #15
100150ce:	eb03 03c2 	add.w	r3, r3, r2, lsl #3
100150d2:	e9d3 2300 	ldrd	r2, r3, [r3]
100150d6:	e9dd 0102 	ldrd	r0, r1, [sp, #8]
100150da:	f002 f937 	bl	1001734c <__aeabi_dmul>
100150de:	112d      	asrs	r5, r5, #4
100150e0:	e9cd 0112 	strd	r0, r1, [sp, #72]	@ 0x48
100150e4:	f000 8154 	beq.w	10015390 <_dtoa_r+0xdfc>
100150e8:	4e40      	ldr	r6, [pc, #256]	@ (100151ec <_dtoa_r+0xc58>)
100150ea:	2300      	movs	r3, #0
100150ec:	2702      	movs	r7, #2
100150ee:	4680      	mov	r8, r0
100150f0:	4689      	mov	r9, r1
100150f2:	07ea      	lsls	r2, r5, #31
100150f4:	d509      	bpl.n	1001510a <_dtoa_r+0xb76>
100150f6:	e9d6 2300 	ldrd	r2, r3, [r6]
100150fa:	4640      	mov	r0, r8
100150fc:	4649      	mov	r1, r9
100150fe:	f002 f925 	bl	1001734c <__aeabi_dmul>
10015102:	3701      	adds	r7, #1
10015104:	4680      	mov	r8, r0
10015106:	4689      	mov	r9, r1
10015108:	2301      	movs	r3, #1
1001510a:	106d      	asrs	r5, r5, #1
1001510c:	f106 0608 	add.w	r6, r6, #8
10015110:	d1ef      	bne.n	100150f2 <_dtoa_r+0xb5e>
10015112:	2b00      	cmp	r3, #0
10015114:	f47f abbc 	bne.w	10014890 <_dtoa_r+0x2fc>
10015118:	e9dd 8912 	ldrd	r8, r9, [sp, #72]	@ 0x48
1001511c:	f7ff bbb8 	b.w	10014890 <_dtoa_r+0x2fc>
10015120:	f1c8 0301 	rsb	r3, r8, #1
10015124:	9009      	str	r0, [sp, #36]	@ 0x24
10015126:	930a      	str	r3, [sp, #40]	@ 0x28
10015128:	900f      	str	r0, [sp, #60]	@ 0x3c
1001512a:	f7ff bb55 	b.w	100147d8 <_dtoa_r+0x244>
1001512e:	9e05      	ldr	r6, [sp, #20]
10015130:	e4b9      	b.n	10014aa6 <_dtoa_r+0x512>
10015132:	f8dd a008 	ldr.w	sl, [sp, #8]
10015136:	4602      	mov	r2, r0
10015138:	460b      	mov	r3, r1
1001513a:	f001 ff51 	bl	10016fe0 <__adddf3>
1001513e:	9d0b      	ldr	r5, [sp, #44]	@ 0x2c
10015140:	e9cd 0102 	strd	r0, r1, [sp, #8]
10015144:	3501      	adds	r5, #1
10015146:	4602      	mov	r2, r0
10015148:	460b      	mov	r3, r1
1001514a:	e9dd 0106 	ldrd	r0, r1, [sp, #24]
1001514e:	46a8      	mov	r8, r5
10015150:	f002 fb6e 	bl	10017830 <__aeabi_dcmplt>
10015154:	b940      	cbnz	r0, 10015168 <_dtoa_r+0xbd4>
10015156:	e9dd 2302 	ldrd	r2, r3, [sp, #8]
1001515a:	e9dd 0106 	ldrd	r0, r1, [sp, #24]
1001515e:	f002 fb5d 	bl	1001781c <__aeabi_dcmpeq>
10015162:	b118      	cbz	r0, 1001516c <_dtoa_r+0xbd8>
10015164:	07f3      	lsls	r3, r6, #31
10015166:	d501      	bpl.n	1001516c <_dtoa_r+0xbd8>
10015168:	9a05      	ldr	r2, [sp, #20]
1001516a:	e432      	b.n	100149d2 <_dtoa_r+0x43e>
1001516c:	463e      	mov	r6, r7
1001516e:	e5ba      	b.n	10014ce6 <_dtoa_r+0x752>
10015170:	6879      	ldr	r1, [r7, #4]
10015172:	9804      	ldr	r0, [sp, #16]
10015174:	f000 fa4c 	bl	10015610 <_Balloc>
10015178:	4605      	mov	r5, r0
1001517a:	2800      	cmp	r0, #0
1001517c:	f000 811d 	beq.w	100153ba <_dtoa_r+0xe26>
10015180:	693b      	ldr	r3, [r7, #16]
10015182:	3302      	adds	r3, #2
10015184:	009a      	lsls	r2, r3, #2
10015186:	f107 010c 	add.w	r1, r7, #12
1001518a:	300c      	adds	r0, #12
1001518c:	f7fc fca8 	bl	10011ae0 <memcpy>
10015190:	9804      	ldr	r0, [sp, #16]
10015192:	4629      	mov	r1, r5
10015194:	2201      	movs	r2, #1
10015196:	f000 fca5 	bl	10015ae4 <__lshift>
1001519a:	4680      	mov	r8, r0
1001519c:	e602      	b.n	10014da4 <_dtoa_r+0x810>
1001519e:	9d0b      	ldr	r5, [sp, #44]	@ 0x2c
100151a0:	463c      	mov	r4, r7
100151a2:	3501      	adds	r5, #1
100151a4:	4647      	mov	r7, r8
100151a6:	e571      	b.n	10014c8c <_dtoa_r+0x6f8>
100151a8:	9c04      	ldr	r4, [sp, #16]
100151aa:	4639      	mov	r1, r7
100151ac:	4632      	mov	r2, r6
100151ae:	4620      	mov	r0, r4
100151b0:	f000 fc3e 	bl	10015a30 <__pow5mult>
100151b4:	4652      	mov	r2, sl
100151b6:	4601      	mov	r1, r0
100151b8:	4607      	mov	r7, r0
100151ba:	4620      	mov	r0, r4
100151bc:	f000 fb82 	bl	100158c4 <__multiply>
100151c0:	4651      	mov	r1, sl
100151c2:	4680      	mov	r8, r0
100151c4:	4620      	mov	r0, r4
100151c6:	f000 fa49 	bl	1001565c <_Bfree>
100151ca:	9b0e      	ldr	r3, [sp, #56]	@ 0x38
100151cc:	1b9b      	subs	r3, r3, r6
100151ce:	46c2      	mov	sl, r8
100151d0:	930e      	str	r3, [sp, #56]	@ 0x38
100151d2:	f43f acf7 	beq.w	10014bc4 <_dtoa_r+0x630>
100151d6:	e4ef      	b.n	10014bb8 <_dtoa_r+0x624>
100151d8:	9b18      	ldr	r3, [sp, #96]	@ 0x60
100151da:	f1c3 0336 	rsb	r3, r3, #54	@ 0x36
100151de:	e761      	b.n	100150a4 <_dtoa_r+0xb10>
100151e0:	100180f0 	.word	0x100180f0
100151e4:	7ff00000 	.word	0x7ff00000
100151e8:	1001a3a0 	.word	0x1001a3a0
100151ec:	1001a490 	.word	0x1001a490
100151f0:	e9dd 2314 	ldrd	r2, r3, [sp, #80]	@ 0x50
100151f4:	e9dd 0112 	ldrd	r0, r1, [sp, #72]	@ 0x48
100151f8:	f002 f8a8 	bl	1001734c <__aeabi_dmul>
100151fc:	9b05      	ldr	r3, [sp, #20]
100151fe:	701c      	strb	r4, [r3, #0]
10015200:	9b16      	ldr	r3, [sp, #88]	@ 0x58
10015202:	2b01      	cmp	r3, #1
10015204:	e9cd 010c 	strd	r0, r1, [sp, #48]	@ 0x30
10015208:	f000 80c0 	beq.w	1001538c <_dtoa_r+0xdf8>
1001520c:	9f16      	ldr	r7, [sp, #88]	@ 0x58
1001520e:	9b05      	ldr	r3, [sp, #20]
10015210:	441f      	add	r7, r3
10015212:	4b7a      	ldr	r3, [pc, #488]	@ (100153fc <_dtoa_r+0xe68>)
10015214:	2200      	movs	r2, #0
10015216:	4640      	mov	r0, r8
10015218:	4649      	mov	r1, r9
1001521a:	f002 f897 	bl	1001734c <__aeabi_dmul>
1001521e:	4689      	mov	r9, r1
10015220:	4680      	mov	r8, r0
10015222:	f002 fb43 	bl	100178ac <__aeabi_d2iz>
10015226:	4604      	mov	r4, r0
10015228:	f002 f826 	bl	10017278 <__aeabi_i2d>
1001522c:	3430      	adds	r4, #48	@ 0x30
1001522e:	4602      	mov	r2, r0
10015230:	460b      	mov	r3, r1
10015232:	4640      	mov	r0, r8
10015234:	4649      	mov	r1, r9
10015236:	f001 fed1 	bl	10016fdc <__aeabi_dsub>
1001523a:	f806 4b01 	strb.w	r4, [r6], #1
1001523e:	42be      	cmp	r6, r7
10015240:	4680      	mov	r8, r0
10015242:	4689      	mov	r9, r1
10015244:	d1e5      	bne.n	10015212 <_dtoa_r+0xc7e>
10015246:	4b6e      	ldr	r3, [pc, #440]	@ (10015400 <_dtoa_r+0xe6c>)
10015248:	2200      	movs	r2, #0
1001524a:	e9dd 010c 	ldrd	r0, r1, [sp, #48]	@ 0x30
1001524e:	f001 fec7 	bl	10016fe0 <__adddf3>
10015252:	4602      	mov	r2, r0
10015254:	460b      	mov	r3, r1
10015256:	4640      	mov	r0, r8
10015258:	4649      	mov	r1, r9
1001525a:	f002 fb07 	bl	1001786c <__aeabi_dcmpgt>
1001525e:	2800      	cmp	r0, #0
10015260:	d16c      	bne.n	1001533c <_dtoa_r+0xda8>
10015262:	e9dd 230c 	ldrd	r2, r3, [sp, #48]	@ 0x30
10015266:	4966      	ldr	r1, [pc, #408]	@ (10015400 <_dtoa_r+0xe6c>)
10015268:	2000      	movs	r0, #0
1001526a:	f001 feb7 	bl	10016fdc <__aeabi_dsub>
1001526e:	4602      	mov	r2, r0
10015270:	460b      	mov	r3, r1
10015272:	4640      	mov	r0, r8
10015274:	4649      	mov	r1, r9
10015276:	f002 fadb 	bl	10017830 <__aeabi_dcmplt>
1001527a:	b980      	cbnz	r0, 1001529e <_dtoa_r+0xd0a>
1001527c:	9b19      	ldr	r3, [sp, #100]	@ 0x64
1001527e:	2b00      	cmp	r3, #0
10015280:	f6ff ac80 	blt.w	10014b84 <_dtoa_r+0x5f0>
10015284:	9b0b      	ldr	r3, [sp, #44]	@ 0x2c
10015286:	2b0e      	cmp	r3, #14
10015288:	f73f ac7c 	bgt.w	10014b84 <_dtoa_r+0x5f0>
1001528c:	4b5d      	ldr	r3, [pc, #372]	@ (10015404 <_dtoa_r+0xe70>)
1001528e:	9a0b      	ldr	r2, [sp, #44]	@ 0x2c
10015290:	eb03 03c2 	add.w	r3, r3, r2, lsl #3
10015294:	e9d3 3400 	ldrd	r3, r4, [r3]
10015298:	e9cd 3406 	strd	r3, r4, [sp, #24]
1001529c:	e408      	b.n	10014ab0 <_dtoa_r+0x51c>
1001529e:	463e      	mov	r6, r7
100152a0:	3f01      	subs	r7, #1
100152a2:	f816 3c01 	ldrb.w	r3, [r6, #-1]
100152a6:	2b30      	cmp	r3, #48	@ 0x30
100152a8:	d0f9      	beq.n	1001529e <_dtoa_r+0xd0a>
100152aa:	9d17      	ldr	r5, [sp, #92]	@ 0x5c
100152ac:	3501      	adds	r5, #1
100152ae:	e51a      	b.n	10014ce6 <_dtoa_r+0x752>
100152b0:	e9dd 8902 	ldrd	r8, r9, [sp, #8]
100152b4:	2702      	movs	r7, #2
100152b6:	f7ff baeb 	b.w	10014890 <_dtoa_r+0x2fc>
100152ba:	f1bb 0f00 	cmp.w	fp, #0
100152be:	f43f ab9f 	beq.w	10014a00 <_dtoa_r+0x46c>
100152c2:	9c11      	ldr	r4, [sp, #68]	@ 0x44
100152c4:	2c00      	cmp	r4, #0
100152c6:	f77f abc4 	ble.w	10014a52 <_dtoa_r+0x4be>
100152ca:	9b0b      	ldr	r3, [sp, #44]	@ 0x2c
100152cc:	3b01      	subs	r3, #1
100152ce:	2200      	movs	r2, #0
100152d0:	4640      	mov	r0, r8
100152d2:	4649      	mov	r1, r9
100152d4:	9317      	str	r3, [sp, #92]	@ 0x5c
100152d6:	4b49      	ldr	r3, [pc, #292]	@ (100153fc <_dtoa_r+0xe68>)
100152d8:	f002 f838 	bl	1001734c <__aeabi_dmul>
100152dc:	4680      	mov	r8, r0
100152de:	4689      	mov	r9, r1
100152e0:	1c78      	adds	r0, r7, #1
100152e2:	f001 ffc9 	bl	10017278 <__aeabi_i2d>
100152e6:	4642      	mov	r2, r8
100152e8:	464b      	mov	r3, r9
100152ea:	f002 f82f 	bl	1001734c <__aeabi_dmul>
100152ee:	4b46      	ldr	r3, [pc, #280]	@ (10015408 <_dtoa_r+0xe74>)
100152f0:	2200      	movs	r2, #0
100152f2:	f001 fe75 	bl	10016fe0 <__adddf3>
100152f6:	f1a1 7350 	sub.w	r3, r1, #54525952	@ 0x3400000
100152fa:	e9cd 0112 	strd	r0, r1, [sp, #72]	@ 0x48
100152fe:	9416      	str	r4, [sp, #88]	@ 0x58
10015300:	9313      	str	r3, [sp, #76]	@ 0x4c
10015302:	f7ff bae7 	b.w	100148d4 <_dtoa_r+0x340>
10015306:	f108 0801 	add.w	r8, r8, #1
1001530a:	2331      	movs	r3, #49	@ 0x31
1001530c:	f7ff bb68 	b.w	100149e0 <_dtoa_r+0x44c>
10015310:	9d0b      	ldr	r5, [sp, #44]	@ 0x2c
10015312:	9a05      	ldr	r2, [sp, #20]
10015314:	46b3      	mov	fp, r6
10015316:	2339      	movs	r3, #57	@ 0x39
10015318:	463c      	mov	r4, r7
1001531a:	f80b 3b01 	strb.w	r3, [fp], #1
1001531e:	3501      	adds	r5, #1
10015320:	4647      	mov	r7, r8
10015322:	e4c4      	b.n	10014cae <_dtoa_r+0x71a>
10015324:	2300      	movs	r3, #0
10015326:	9302      	str	r3, [sp, #8]
10015328:	461f      	mov	r7, r3
1001532a:	e5e8      	b.n	10014efe <_dtoa_r+0x96a>
1001532c:	9b09      	ldr	r3, [sp, #36]	@ 0x24
1001532e:	445b      	add	r3, fp
10015330:	9309      	str	r3, [sp, #36]	@ 0x24
10015332:	9b0a      	ldr	r3, [sp, #40]	@ 0x28
10015334:	461d      	mov	r5, r3
10015336:	445b      	add	r3, fp
10015338:	930a      	str	r3, [sp, #40]	@ 0x28
1001533a:	e67d      	b.n	10015038 <_dtoa_r+0xaa4>
1001533c:	9b17      	ldr	r3, [sp, #92]	@ 0x5c
1001533e:	9a05      	ldr	r2, [sp, #20]
10015340:	f103 0801 	add.w	r8, r3, #1
10015344:	f7ff bb45 	b.w	100149d2 <_dtoa_r+0x43e>
10015348:	f8dd a048 	ldr.w	sl, [sp, #72]	@ 0x48
1001534c:	e7ad      	b.n	100152aa <_dtoa_r+0xd16>
1001534e:	f8dd a048 	ldr.w	sl, [sp, #72]	@ 0x48
10015352:	f8dd b050 	ldr.w	fp, [sp, #80]	@ 0x50
10015356:	f7ff bb7c 	b.w	10014a52 <_dtoa_r+0x4be>
1001535a:	f1b9 0f39 	cmp.w	r9, #57	@ 0x39
1001535e:	d0d7      	beq.n	10015310 <_dtoa_r+0xd7c>
10015360:	2d00      	cmp	r5, #0
10015362:	f73f ad8f 	bgt.w	10014e84 <_dtoa_r+0x8f0>
10015366:	e58f      	b.n	10014e88 <_dtoa_r+0x8f4>
10015368:	9b24      	ldr	r3, [sp, #144]	@ 0x90
1001536a:	2b02      	cmp	r3, #2
1001536c:	dc03      	bgt.n	10015376 <_dtoa_r+0xde2>
1001536e:	9d0b      	ldr	r5, [sp, #44]	@ 0x2c
10015370:	f8dd b044 	ldr.w	fp, [sp, #68]	@ 0x44
10015374:	e467      	b.n	10014c46 <_dtoa_r+0x6b2>
10015376:	f8dd b044 	ldr.w	fp, [sp, #68]	@ 0x44
1001537a:	960b      	str	r6, [sp, #44]	@ 0x2c
1001537c:	e5ad      	b.n	10014eda <_dtoa_r+0x946>
1001537e:	9b24      	ldr	r3, [sp, #144]	@ 0x90
10015380:	2b02      	cmp	r3, #2
10015382:	dcf8      	bgt.n	10015376 <_dtoa_r+0xde2>
10015384:	f8dd b044 	ldr.w	fp, [sp, #68]	@ 0x44
10015388:	960b      	str	r6, [sp, #44]	@ 0x2c
1001538a:	e4fe      	b.n	10014d8a <_dtoa_r+0x7f6>
1001538c:	4637      	mov	r7, r6
1001538e:	e75a      	b.n	10015246 <_dtoa_r+0xcb2>
10015390:	e9dd 8912 	ldrd	r8, r9, [sp, #72]	@ 0x48
10015394:	2702      	movs	r7, #2
10015396:	f7ff ba7b 	b.w	10014890 <_dtoa_r+0x2fc>
1001539a:	9b04      	ldr	r3, [sp, #16]
1001539c:	2500      	movs	r5, #0
1001539e:	63dd      	str	r5, [r3, #60]	@ 0x3c
100153a0:	4629      	mov	r1, r5
100153a2:	4618      	mov	r0, r3
100153a4:	f000 f934 	bl	10015610 <_Balloc>
100153a8:	9005      	str	r0, [sp, #20]
100153aa:	b9d0      	cbnz	r0, 100153e2 <_dtoa_r+0xe4e>
100153ac:	4b17      	ldr	r3, [pc, #92]	@ (1001540c <_dtoa_r+0xe78>)
100153ae:	4818      	ldr	r0, [pc, #96]	@ (10015410 <_dtoa_r+0xe7c>)
100153b0:	2200      	movs	r2, #0
100153b2:	f240 11af 	movw	r1, #431	@ 0x1af
100153b6:	f000 f905 	bl	100155c4 <__assert_func>
100153ba:	4b14      	ldr	r3, [pc, #80]	@ (1001540c <_dtoa_r+0xe78>)
100153bc:	4814      	ldr	r0, [pc, #80]	@ (10015410 <_dtoa_r+0xe7c>)
100153be:	462a      	mov	r2, r5
100153c0:	f240 21ef 	movw	r1, #751	@ 0x2ef
100153c4:	f000 f8fe 	bl	100155c4 <__assert_func>
100153c8:	2a00      	cmp	r2, #0
100153ca:	f73f ad4b 	bgt.w	10014e64 <_dtoa_r+0x8d0>
100153ce:	e55b      	b.n	10014e88 <_dtoa_r+0x8f4>
100153d0:	9b04      	ldr	r3, [sp, #16]
100153d2:	2100      	movs	r1, #0
100153d4:	63d9      	str	r1, [r3, #60]	@ 0x3c
100153d6:	f7ff ba15 	b.w	10014804 <_dtoa_r+0x270>
100153da:	4b0e      	ldr	r3, [pc, #56]	@ (10015414 <_dtoa_r+0xe80>)
100153dc:	9305      	str	r3, [sp, #20]
100153de:	f7ff b914 	b.w	1001460a <_dtoa_r+0x76>
100153e2:	e9dd 3204 	ldrd	r3, r2, [sp, #16]
100153e6:	f04f 3bff 	mov.w	fp, #4294967295	@ 0xffffffff
100153ea:	639a      	str	r2, [r3, #56]	@ 0x38
100153ec:	2301      	movs	r3, #1
100153ee:	9525      	str	r5, [sp, #148]	@ 0x94
100153f0:	f8cd b044 	str.w	fp, [sp, #68]	@ 0x44
100153f4:	930c      	str	r3, [sp, #48]	@ 0x30
100153f6:	f7ff bb2c 	b.w	10014a52 <_dtoa_r+0x4be>
100153fa:	bf00      	nop
100153fc:	40240000 	.word	0x40240000
10015400:	3fe00000 	.word	0x3fe00000
10015404:	1001a3a0 	.word	0x1001a3a0
10015408:	401c0000 	.word	0x401c0000
1001540c:	100180f4 	.word	0x100180f4
10015410:	10018108 	.word	0x10018108
10015414:	100180e4 	.word	0x100180e4

10015418 <__swsetup_r>:
10015418:	b538      	push	{r3, r4, r5, lr}
1001541a:	4b2f      	ldr	r3, [pc, #188]	@ (100154d8 <__swsetup_r+0xc0>)
1001541c:	681b      	ldr	r3, [r3, #0]
1001541e:	4605      	mov	r5, r0
10015420:	460c      	mov	r4, r1
10015422:	b113      	cbz	r3, 1001542a <__swsetup_r+0x12>
10015424:	6b5a      	ldr	r2, [r3, #52]	@ 0x34
10015426:	2a00      	cmp	r2, #0
10015428:	d04b      	beq.n	100154c2 <__swsetup_r+0xaa>
1001542a:	f9b4 300c 	ldrsh.w	r3, [r4, #12]
1001542e:	0718      	lsls	r0, r3, #28
10015430:	d51c      	bpl.n	1001546c <__swsetup_r+0x54>
10015432:	6922      	ldr	r2, [r4, #16]
10015434:	b322      	cbz	r2, 10015480 <__swsetup_r+0x68>
10015436:	f013 0101 	ands.w	r1, r3, #1
1001543a:	d007      	beq.n	1001544c <__swsetup_r+0x34>
1001543c:	6961      	ldr	r1, [r4, #20]
1001543e:	2000      	movs	r0, #0
10015440:	4249      	negs	r1, r1
10015442:	60a0      	str	r0, [r4, #8]
10015444:	61a1      	str	r1, [r4, #24]
10015446:	b13a      	cbz	r2, 10015458 <__swsetup_r+0x40>
10015448:	2000      	movs	r0, #0
1001544a:	bd38      	pop	{r3, r4, r5, pc}
1001544c:	0798      	lsls	r0, r3, #30
1001544e:	bf58      	it	pl
10015450:	6961      	ldrpl	r1, [r4, #20]
10015452:	60a1      	str	r1, [r4, #8]
10015454:	2a00      	cmp	r2, #0
10015456:	d1f7      	bne.n	10015448 <__swsetup_r+0x30>
10015458:	0619      	lsls	r1, r3, #24
1001545a:	bf58      	it	pl
1001545c:	4610      	movpl	r0, r2
1001545e:	d5f4      	bpl.n	1001544a <__swsetup_r+0x32>
10015460:	f043 0340 	orr.w	r3, r3, #64	@ 0x40
10015464:	81a3      	strh	r3, [r4, #12]
10015466:	f04f 30ff 	mov.w	r0, #4294967295	@ 0xffffffff
1001546a:	bd38      	pop	{r3, r4, r5, pc}
1001546c:	06d9      	lsls	r1, r3, #27
1001546e:	d52c      	bpl.n	100154ca <__swsetup_r+0xb2>
10015470:	075a      	lsls	r2, r3, #29
10015472:	d412      	bmi.n	1001549a <__swsetup_r+0x82>
10015474:	6922      	ldr	r2, [r4, #16]
10015476:	f043 0308 	orr.w	r3, r3, #8
1001547a:	81a3      	strh	r3, [r4, #12]
1001547c:	2a00      	cmp	r2, #0
1001547e:	d1da      	bne.n	10015436 <__swsetup_r+0x1e>
10015480:	f403 7120 	and.w	r1, r3, #640	@ 0x280
10015484:	f5b1 7f00 	cmp.w	r1, #512	@ 0x200
10015488:	d0d5      	beq.n	10015436 <__swsetup_r+0x1e>
1001548a:	4621      	mov	r1, r4
1001548c:	4628      	mov	r0, r5
1001548e:	f7fe fc39 	bl	10013d04 <__smakebuf_r>
10015492:	f9b4 300c 	ldrsh.w	r3, [r4, #12]
10015496:	6922      	ldr	r2, [r4, #16]
10015498:	e7cd      	b.n	10015436 <__swsetup_r+0x1e>
1001549a:	6b21      	ldr	r1, [r4, #48]	@ 0x30
1001549c:	b151      	cbz	r1, 100154b4 <__swsetup_r+0x9c>
1001549e:	f104 0240 	add.w	r2, r4, #64	@ 0x40
100154a2:	4291      	cmp	r1, r2
100154a4:	d004      	beq.n	100154b0 <__swsetup_r+0x98>
100154a6:	4628      	mov	r0, r5
100154a8:	f7fc f998 	bl	100117dc <_free_r>
100154ac:	f9b4 300c 	ldrsh.w	r3, [r4, #12]
100154b0:	2200      	movs	r2, #0
100154b2:	6322      	str	r2, [r4, #48]	@ 0x30
100154b4:	6922      	ldr	r2, [r4, #16]
100154b6:	2100      	movs	r1, #0
100154b8:	e9c4 2100 	strd	r2, r1, [r4]
100154bc:	f023 0324 	bic.w	r3, r3, #36	@ 0x24
100154c0:	e7d9      	b.n	10015476 <__swsetup_r+0x5e>
100154c2:	4618      	mov	r0, r3
100154c4:	f7fc ff5e 	bl	10012384 <__sinit>
100154c8:	e7af      	b.n	1001542a <__swsetup_r+0x12>
100154ca:	2209      	movs	r2, #9
100154cc:	f043 0340 	orr.w	r3, r3, #64	@ 0x40
100154d0:	602a      	str	r2, [r5, #0]
100154d2:	81a3      	strh	r3, [r4, #12]
100154d4:	e7c7      	b.n	10015466 <__swsetup_r+0x4e>
100154d6:	bf00      	nop
100154d8:	20000010 	.word	0x20000010

100154dc <_lseek_r>:
100154dc:	b538      	push	{r3, r4, r5, lr}
100154de:	460c      	mov	r4, r1
100154e0:	4d08      	ldr	r5, [pc, #32]	@ (10015504 <_lseek_r+0x28>)
100154e2:	4684      	mov	ip, r0
100154e4:	4611      	mov	r1, r2
100154e6:	4620      	mov	r0, r4
100154e8:	461a      	mov	r2, r3
100154ea:	2300      	movs	r3, #0
100154ec:	602b      	str	r3, [r5, #0]
100154ee:	4664      	mov	r4, ip
100154f0:	f7fa fd86 	bl	10010000 <_lseek>
100154f4:	1c43      	adds	r3, r0, #1
100154f6:	d000      	beq.n	100154fa <_lseek_r+0x1e>
100154f8:	bd38      	pop	{r3, r4, r5, pc}
100154fa:	682b      	ldr	r3, [r5, #0]
100154fc:	2b00      	cmp	r3, #0
100154fe:	d0fb      	beq.n	100154f8 <_lseek_r+0x1c>
10015500:	6023      	str	r3, [r4, #0]
10015502:	bd38      	pop	{r3, r4, r5, pc}
10015504:	200015a8 	.word	0x200015a8

10015508 <register_fini>:
10015508:	4b02      	ldr	r3, [pc, #8]	@ (10015514 <register_fini+0xc>)
1001550a:	b113      	cbz	r3, 10015512 <register_fini+0xa>
1001550c:	4802      	ldr	r0, [pc, #8]	@ (10015518 <register_fini+0x10>)
1001550e:	f7fd b91b 	b.w	10012748 <atexit>
10015512:	4770      	bx	lr
10015514:	00000000 	.word	0x00000000
10015518:	100127e5 	.word	0x100127e5

1001551c <__register_exitproc>:
1001551c:	b470      	push	{r4, r5, r6}
1001551e:	4d16      	ldr	r5, [pc, #88]	@ (10015578 <__register_exitproc+0x5c>)
10015520:	682c      	ldr	r4, [r5, #0]
10015522:	b31c      	cbz	r4, 1001556c <__register_exitproc+0x50>
10015524:	6865      	ldr	r5, [r4, #4]
10015526:	2d1f      	cmp	r5, #31
10015528:	dc23      	bgt.n	10015572 <__register_exitproc+0x56>
1001552a:	b938      	cbnz	r0, 1001553c <__register_exitproc+0x20>
1001552c:	1cab      	adds	r3, r5, #2
1001552e:	3501      	adds	r5, #1
10015530:	6065      	str	r5, [r4, #4]
10015532:	f844 1023 	str.w	r1, [r4, r3, lsl #2]
10015536:	2000      	movs	r0, #0
10015538:	bc70      	pop	{r4, r5, r6}
1001553a:	4770      	bx	lr
1001553c:	eb04 0c85 	add.w	ip, r4, r5, lsl #2
10015540:	2802      	cmp	r0, #2
10015542:	f8cc 2088 	str.w	r2, [ip, #136]	@ 0x88
10015546:	f8d4 6188 	ldr.w	r6, [r4, #392]	@ 0x188
1001554a:	f04f 0201 	mov.w	r2, #1
1001554e:	fa02 f205 	lsl.w	r2, r2, r5
10015552:	ea46 0602 	orr.w	r6, r6, r2
10015556:	f8c4 6188 	str.w	r6, [r4, #392]	@ 0x188
1001555a:	f8cc 3108 	str.w	r3, [ip, #264]	@ 0x108
1001555e:	d1e5      	bne.n	1001552c <__register_exitproc+0x10>
10015560:	f8d4 318c 	ldr.w	r3, [r4, #396]	@ 0x18c
10015564:	4313      	orrs	r3, r2
10015566:	f8c4 318c 	str.w	r3, [r4, #396]	@ 0x18c
1001556a:	e7df      	b.n	1001552c <__register_exitproc+0x10>
1001556c:	4c03      	ldr	r4, [pc, #12]	@ (1001557c <__register_exitproc+0x60>)
1001556e:	602c      	str	r4, [r5, #0]
10015570:	e7d8      	b.n	10015524 <__register_exitproc+0x8>
10015572:	f04f 30ff 	mov.w	r0, #4294967295	@ 0xffffffff
10015576:	e7df      	b.n	10015538 <__register_exitproc+0x1c>
10015578:	200015a4 	.word	0x200015a4
1001557c:	200015ac 	.word	0x200015ac

10015580 <_isatty_r>:
10015580:	b538      	push	{r3, r4, r5, lr}
10015582:	4d07      	ldr	r5, [pc, #28]	@ (100155a0 <_isatty_r+0x20>)
10015584:	2200      	movs	r2, #0
10015586:	4604      	mov	r4, r0
10015588:	4608      	mov	r0, r1
1001558a:	602a      	str	r2, [r5, #0]
1001558c:	f7fa fd34 	bl	1000fff8 <_isatty>
10015590:	1c43      	adds	r3, r0, #1
10015592:	d000      	beq.n	10015596 <_isatty_r+0x16>
10015594:	bd38      	pop	{r3, r4, r5, pc}
10015596:	682b      	ldr	r3, [r5, #0]
10015598:	2b00      	cmp	r3, #0
1001559a:	d0fb      	beq.n	10015594 <_isatty_r+0x14>
1001559c:	6023      	str	r3, [r4, #0]
1001559e:	bd38      	pop	{r3, r4, r5, pc}
100155a0:	200015a8 	.word	0x200015a8

100155a4 <__sprint_r>:
100155a4:	6893      	ldr	r3, [r2, #8]
100155a6:	b510      	push	{r4, lr}
100155a8:	4614      	mov	r4, r2
100155aa:	b91b      	cbnz	r3, 100155b4 <__sprint_r+0x10>
100155ac:	4618      	mov	r0, r3
100155ae:	2300      	movs	r3, #0
100155b0:	6063      	str	r3, [r4, #4]
100155b2:	bd10      	pop	{r4, pc}
100155b4:	f7fc ff4c 	bl	10012450 <__sfvwrite_r>
100155b8:	2300      	movs	r3, #0
100155ba:	60a3      	str	r3, [r4, #8]
100155bc:	2300      	movs	r3, #0
100155be:	6063      	str	r3, [r4, #4]
100155c0:	bd10      	pop	{r4, pc}
100155c2:	bf00      	nop

100155c4 <__assert_func>:
100155c4:	b500      	push	{lr}
100155c6:	4c0b      	ldr	r4, [pc, #44]	@ (100155f4 <__assert_func+0x30>)
100155c8:	6825      	ldr	r5, [r4, #0]
100155ca:	4614      	mov	r4, r2
100155cc:	68ee      	ldr	r6, [r5, #12]
100155ce:	461a      	mov	r2, r3
100155d0:	b085      	sub	sp, #20
100155d2:	4603      	mov	r3, r0
100155d4:	460d      	mov	r5, r1
100155d6:	b14c      	cbz	r4, 100155ec <__assert_func+0x28>
100155d8:	4907      	ldr	r1, [pc, #28]	@ (100155f8 <__assert_func+0x34>)
100155da:	9500      	str	r5, [sp, #0]
100155dc:	e9cd 1401 	strd	r1, r4, [sp, #4]
100155e0:	4630      	mov	r0, r6
100155e2:	4906      	ldr	r1, [pc, #24]	@ (100155fc <__assert_func+0x38>)
100155e4:	f000 fdd0 	bl	10016188 <fiprintf>
100155e8:	f000 fd82 	bl	100160f0 <abort>
100155ec:	4904      	ldr	r1, [pc, #16]	@ (10015600 <__assert_func+0x3c>)
100155ee:	460c      	mov	r4, r1
100155f0:	e7f3      	b.n	100155da <__assert_func+0x16>
100155f2:	bf00      	nop
100155f4:	20000010 	.word	0x20000010
100155f8:	10018134 	.word	0x10018134
100155fc:	10018144 	.word	0x10018144
10015600:	10017e78 	.word	0x10017e78

10015604 <__assert>:
10015604:	b508      	push	{r3, lr}
10015606:	4613      	mov	r3, r2
10015608:	2200      	movs	r2, #0
1001560a:	f7ff ffdb 	bl	100155c4 <__assert_func>
1001560e:	bf00      	nop

10015610 <_Balloc>:
10015610:	6c43      	ldr	r3, [r0, #68]	@ 0x44
10015612:	b570      	push	{r4, r5, r6, lr}
10015614:	4605      	mov	r5, r0
10015616:	460c      	mov	r4, r1
10015618:	b14b      	cbz	r3, 1001562e <_Balloc+0x1e>
1001561a:	f853 0024 	ldr.w	r0, [r3, r4, lsl #2]
1001561e:	b180      	cbz	r0, 10015642 <_Balloc+0x32>
10015620:	6802      	ldr	r2, [r0, #0]
10015622:	f843 2024 	str.w	r2, [r3, r4, lsl #2]
10015626:	2300      	movs	r3, #0
10015628:	e9c0 3303 	strd	r3, r3, [r0, #12]
1001562c:	bd70      	pop	{r4, r5, r6, pc}
1001562e:	2221      	movs	r2, #33	@ 0x21
10015630:	2104      	movs	r1, #4
10015632:	f000 fd65 	bl	10016100 <_calloc_r>
10015636:	4603      	mov	r3, r0
10015638:	6468      	str	r0, [r5, #68]	@ 0x44
1001563a:	2800      	cmp	r0, #0
1001563c:	d1ed      	bne.n	1001561a <_Balloc+0xa>
1001563e:	2000      	movs	r0, #0
10015640:	bd70      	pop	{r4, r5, r6, pc}
10015642:	2101      	movs	r1, #1
10015644:	fa01 f604 	lsl.w	r6, r1, r4
10015648:	1d72      	adds	r2, r6, #5
1001564a:	0092      	lsls	r2, r2, #2
1001564c:	4628      	mov	r0, r5
1001564e:	f000 fd57 	bl	10016100 <_calloc_r>
10015652:	2800      	cmp	r0, #0
10015654:	d0f3      	beq.n	1001563e <_Balloc+0x2e>
10015656:	e9c0 4601 	strd	r4, r6, [r0, #4]
1001565a:	e7e4      	b.n	10015626 <_Balloc+0x16>

1001565c <_Bfree>:
1001565c:	b131      	cbz	r1, 1001566c <_Bfree+0x10>
1001565e:	6c43      	ldr	r3, [r0, #68]	@ 0x44
10015660:	684a      	ldr	r2, [r1, #4]
10015662:	f853 0022 	ldr.w	r0, [r3, r2, lsl #2]
10015666:	6008      	str	r0, [r1, #0]
10015668:	f843 1022 	str.w	r1, [r3, r2, lsl #2]
1001566c:	4770      	bx	lr
1001566e:	bf00      	nop

10015670 <__multadd>:
10015670:	e92d 41f0 	stmdb	sp!, {r4, r5, r6, r7, r8, lr}
10015674:	690d      	ldr	r5, [r1, #16]
10015676:	4607      	mov	r7, r0
10015678:	460e      	mov	r6, r1
1001567a:	461c      	mov	r4, r3
1001567c:	f101 0e14 	add.w	lr, r1, #20
10015680:	2000      	movs	r0, #0
10015682:	f8de 1000 	ldr.w	r1, [lr]
10015686:	b28b      	uxth	r3, r1
10015688:	fb02 4303 	mla	r3, r2, r3, r4
1001568c:	ea4f 4c13 	mov.w	ip, r3, lsr #16
10015690:	0c09      	lsrs	r1, r1, #16
10015692:	fb02 cc01 	mla	ip, r2, r1, ip
10015696:	3001      	adds	r0, #1
10015698:	b29b      	uxth	r3, r3
1001569a:	eb03 430c 	add.w	r3, r3, ip, lsl #16
1001569e:	4285      	cmp	r5, r0
100156a0:	f84e 3b04 	str.w	r3, [lr], #4
100156a4:	ea4f 441c 	mov.w	r4, ip, lsr #16
100156a8:	dceb      	bgt.n	10015682 <__multadd+0x12>
100156aa:	b13c      	cbz	r4, 100156bc <__multadd+0x4c>
100156ac:	68b3      	ldr	r3, [r6, #8]
100156ae:	42ab      	cmp	r3, r5
100156b0:	dd07      	ble.n	100156c2 <__multadd+0x52>
100156b2:	eb06 0385 	add.w	r3, r6, r5, lsl #2
100156b6:	3501      	adds	r5, #1
100156b8:	615c      	str	r4, [r3, #20]
100156ba:	6135      	str	r5, [r6, #16]
100156bc:	4630      	mov	r0, r6
100156be:	e8bd 81f0 	ldmia.w	sp!, {r4, r5, r6, r7, r8, pc}
100156c2:	6871      	ldr	r1, [r6, #4]
100156c4:	4638      	mov	r0, r7
100156c6:	3101      	adds	r1, #1
100156c8:	f7ff ffa2 	bl	10015610 <_Balloc>
100156cc:	4680      	mov	r8, r0
100156ce:	b1a8      	cbz	r0, 100156fc <__multadd+0x8c>
100156d0:	6932      	ldr	r2, [r6, #16]
100156d2:	3202      	adds	r2, #2
100156d4:	f106 010c 	add.w	r1, r6, #12
100156d8:	0092      	lsls	r2, r2, #2
100156da:	300c      	adds	r0, #12
100156dc:	f7fc fa00 	bl	10011ae0 <memcpy>
100156e0:	6c7b      	ldr	r3, [r7, #68]	@ 0x44
100156e2:	6872      	ldr	r2, [r6, #4]
100156e4:	f853 1022 	ldr.w	r1, [r3, r2, lsl #2]
100156e8:	6031      	str	r1, [r6, #0]
100156ea:	f843 6022 	str.w	r6, [r3, r2, lsl #2]
100156ee:	4646      	mov	r6, r8
100156f0:	eb06 0385 	add.w	r3, r6, r5, lsl #2
100156f4:	3501      	adds	r5, #1
100156f6:	615c      	str	r4, [r3, #20]
100156f8:	6135      	str	r5, [r6, #16]
100156fa:	e7df      	b.n	100156bc <__multadd+0x4c>
100156fc:	4b02      	ldr	r3, [pc, #8]	@ (10015708 <__multadd+0x98>)
100156fe:	4803      	ldr	r0, [pc, #12]	@ (1001570c <__multadd+0x9c>)
10015700:	4642      	mov	r2, r8
10015702:	21ba      	movs	r1, #186	@ 0xba
10015704:	f7ff ff5e 	bl	100155c4 <__assert_func>
10015708:	100180f4 	.word	0x100180f4
1001570c:	10018174 	.word	0x10018174

10015710 <__s2b>:
10015710:	e92d 43f8 	stmdb	sp!, {r3, r4, r5, r6, r7, r8, r9, lr}
10015714:	4617      	mov	r7, r2
10015716:	4a28      	ldr	r2, [pc, #160]	@ (100157b8 <__s2b+0xa8>)
10015718:	461e      	mov	r6, r3
1001571a:	3308      	adds	r3, #8
1001571c:	460c      	mov	r4, r1
1001571e:	2e09      	cmp	r6, #9
10015720:	fb82 1203 	smull	r1, r2, r2, r3
10015724:	ea4f 73e3 	mov.w	r3, r3, asr #31
10015728:	4605      	mov	r5, r0
1001572a:	ebc3 0362 	rsb	r3, r3, r2, asr #1
1001572e:	dd3a      	ble.n	100157a6 <__s2b+0x96>
10015730:	f04f 0c01 	mov.w	ip, #1
10015734:	2100      	movs	r1, #0
10015736:	ea4f 0c4c 	mov.w	ip, ip, lsl #1
1001573a:	4563      	cmp	r3, ip
1001573c:	f101 0101 	add.w	r1, r1, #1
10015740:	dcf9      	bgt.n	10015736 <__s2b+0x26>
10015742:	4628      	mov	r0, r5
10015744:	f7ff ff64 	bl	10015610 <_Balloc>
10015748:	4601      	mov	r1, r0
1001574a:	b370      	cbz	r0, 100157aa <__s2b+0x9a>
1001574c:	9b08      	ldr	r3, [sp, #32]
1001574e:	6143      	str	r3, [r0, #20]
10015750:	2f09      	cmp	r7, #9
10015752:	f04f 0301 	mov.w	r3, #1
10015756:	6103      	str	r3, [r0, #16]
10015758:	dc12      	bgt.n	10015780 <__s2b+0x70>
1001575a:	340a      	adds	r4, #10
1001575c:	2709      	movs	r7, #9
1001575e:	42be      	cmp	r6, r7
10015760:	dd0b      	ble.n	1001577a <__s2b+0x6a>
10015762:	1bf6      	subs	r6, r6, r7
10015764:	4426      	add	r6, r4
10015766:	f814 3b01 	ldrb.w	r3, [r4], #1
1001576a:	220a      	movs	r2, #10
1001576c:	3b30      	subs	r3, #48	@ 0x30
1001576e:	4628      	mov	r0, r5
10015770:	f7ff ff7e 	bl	10015670 <__multadd>
10015774:	42b4      	cmp	r4, r6
10015776:	4601      	mov	r1, r0
10015778:	d1f5      	bne.n	10015766 <__s2b+0x56>
1001577a:	4608      	mov	r0, r1
1001577c:	e8bd 83f8 	ldmia.w	sp!, {r3, r4, r5, r6, r7, r8, r9, pc}
10015780:	f104 0809 	add.w	r8, r4, #9
10015784:	eb04 0907 	add.w	r9, r4, r7
10015788:	4644      	mov	r4, r8
1001578a:	f814 3b01 	ldrb.w	r3, [r4], #1
1001578e:	220a      	movs	r2, #10
10015790:	3b30      	subs	r3, #48	@ 0x30
10015792:	4628      	mov	r0, r5
10015794:	f7ff ff6c 	bl	10015670 <__multadd>
10015798:	454c      	cmp	r4, r9
1001579a:	4601      	mov	r1, r0
1001579c:	d1f5      	bne.n	1001578a <__s2b+0x7a>
1001579e:	f1a7 0408 	sub.w	r4, r7, #8
100157a2:	4444      	add	r4, r8
100157a4:	e7db      	b.n	1001575e <__s2b+0x4e>
100157a6:	2100      	movs	r1, #0
100157a8:	e7cb      	b.n	10015742 <__s2b+0x32>
100157aa:	460a      	mov	r2, r1
100157ac:	4b03      	ldr	r3, [pc, #12]	@ (100157bc <__s2b+0xac>)
100157ae:	4804      	ldr	r0, [pc, #16]	@ (100157c0 <__s2b+0xb0>)
100157b0:	21d3      	movs	r1, #211	@ 0xd3
100157b2:	f7ff ff07 	bl	100155c4 <__assert_func>
100157b6:	bf00      	nop
100157b8:	38e38e39 	.word	0x38e38e39
100157bc:	100180f4 	.word	0x100180f4
100157c0:	10018174 	.word	0x10018174

100157c4 <__hi0bits>:
100157c4:	f5b0 3f80 	cmp.w	r0, #65536	@ 0x10000
100157c8:	4603      	mov	r3, r0
100157ca:	bf36      	itet	cc
100157cc:	0403      	lslcc	r3, r0, #16
100157ce:	2000      	movcs	r0, #0
100157d0:	2010      	movcc	r0, #16
100157d2:	f1b3 7f80 	cmp.w	r3, #16777216	@ 0x1000000
100157d6:	bf3c      	itt	cc
100157d8:	021b      	lslcc	r3, r3, #8
100157da:	3008      	addcc	r0, #8
100157dc:	f1b3 5f80 	cmp.w	r3, #268435456	@ 0x10000000
100157e0:	bf3c      	itt	cc
100157e2:	011b      	lslcc	r3, r3, #4
100157e4:	3004      	addcc	r0, #4
100157e6:	f1b3 4f80 	cmp.w	r3, #1073741824	@ 0x40000000
100157ea:	d303      	bcc.n	100157f4 <__hi0bits+0x30>
100157ec:	2b00      	cmp	r3, #0
100157ee:	db06      	blt.n	100157fe <__hi0bits+0x3a>
100157f0:	3001      	adds	r0, #1
100157f2:	4770      	bx	lr
100157f4:	009b      	lsls	r3, r3, #2
100157f6:	d403      	bmi.n	10015800 <__hi0bits+0x3c>
100157f8:	005b      	lsls	r3, r3, #1
100157fa:	d403      	bmi.n	10015804 <__hi0bits+0x40>
100157fc:	2020      	movs	r0, #32
100157fe:	4770      	bx	lr
10015800:	3002      	adds	r0, #2
10015802:	4770      	bx	lr
10015804:	3003      	adds	r0, #3
10015806:	4770      	bx	lr

10015808 <__lo0bits>:
10015808:	6803      	ldr	r3, [r0, #0]
1001580a:	f013 0207 	ands.w	r2, r3, #7
1001580e:	4601      	mov	r1, r0
10015810:	d007      	beq.n	10015822 <__lo0bits+0x1a>
10015812:	07da      	lsls	r2, r3, #31
10015814:	d41f      	bmi.n	10015856 <__lo0bits+0x4e>
10015816:	0798      	lsls	r0, r3, #30
10015818:	d521      	bpl.n	1001585e <__lo0bits+0x56>
1001581a:	085b      	lsrs	r3, r3, #1
1001581c:	600b      	str	r3, [r1, #0]
1001581e:	2001      	movs	r0, #1
10015820:	4770      	bx	lr
10015822:	b298      	uxth	r0, r3
10015824:	b1a0      	cbz	r0, 10015850 <__lo0bits+0x48>
10015826:	4610      	mov	r0, r2
10015828:	b2da      	uxtb	r2, r3
1001582a:	b90a      	cbnz	r2, 10015830 <__lo0bits+0x28>
1001582c:	3008      	adds	r0, #8
1001582e:	0a1b      	lsrs	r3, r3, #8
10015830:	071a      	lsls	r2, r3, #28
10015832:	bf04      	itt	eq
10015834:	091b      	lsreq	r3, r3, #4
10015836:	3004      	addeq	r0, #4
10015838:	079a      	lsls	r2, r3, #30
1001583a:	bf04      	itt	eq
1001583c:	089b      	lsreq	r3, r3, #2
1001583e:	3002      	addeq	r0, #2
10015840:	07da      	lsls	r2, r3, #31
10015842:	d403      	bmi.n	1001584c <__lo0bits+0x44>
10015844:	085b      	lsrs	r3, r3, #1
10015846:	f100 0001 	add.w	r0, r0, #1
1001584a:	d006      	beq.n	1001585a <__lo0bits+0x52>
1001584c:	600b      	str	r3, [r1, #0]
1001584e:	4770      	bx	lr
10015850:	0c1b      	lsrs	r3, r3, #16
10015852:	2010      	movs	r0, #16
10015854:	e7e8      	b.n	10015828 <__lo0bits+0x20>
10015856:	2000      	movs	r0, #0
10015858:	4770      	bx	lr
1001585a:	2020      	movs	r0, #32
1001585c:	4770      	bx	lr
1001585e:	089b      	lsrs	r3, r3, #2
10015860:	600b      	str	r3, [r1, #0]
10015862:	2002      	movs	r0, #2
10015864:	4770      	bx	lr
10015866:	bf00      	nop

10015868 <__i2b>:
10015868:	b538      	push	{r3, r4, r5, lr}
1001586a:	6c43      	ldr	r3, [r0, #68]	@ 0x44
1001586c:	4604      	mov	r4, r0
1001586e:	460d      	mov	r5, r1
10015870:	b14b      	cbz	r3, 10015886 <__i2b+0x1e>
10015872:	6858      	ldr	r0, [r3, #4]
10015874:	b1b0      	cbz	r0, 100158a4 <__i2b+0x3c>
10015876:	6802      	ldr	r2, [r0, #0]
10015878:	605a      	str	r2, [r3, #4]
1001587a:	2200      	movs	r2, #0
1001587c:	2301      	movs	r3, #1
1001587e:	e9c0 2303 	strd	r2, r3, [r0, #12]
10015882:	6145      	str	r5, [r0, #20]
10015884:	bd38      	pop	{r3, r4, r5, pc}
10015886:	2221      	movs	r2, #33	@ 0x21
10015888:	2104      	movs	r1, #4
1001588a:	f000 fc39 	bl	10016100 <_calloc_r>
1001588e:	4603      	mov	r3, r0
10015890:	6460      	str	r0, [r4, #68]	@ 0x44
10015892:	2800      	cmp	r0, #0
10015894:	d1ed      	bne.n	10015872 <__i2b+0xa>
10015896:	4b09      	ldr	r3, [pc, #36]	@ (100158bc <__i2b+0x54>)
10015898:	4809      	ldr	r0, [pc, #36]	@ (100158c0 <__i2b+0x58>)
1001589a:	2200      	movs	r2, #0
1001589c:	f240 1145 	movw	r1, #325	@ 0x145
100158a0:	f7ff fe90 	bl	100155c4 <__assert_func>
100158a4:	221c      	movs	r2, #28
100158a6:	2101      	movs	r1, #1
100158a8:	4620      	mov	r0, r4
100158aa:	f000 fc29 	bl	10016100 <_calloc_r>
100158ae:	2800      	cmp	r0, #0
100158b0:	d0f1      	beq.n	10015896 <__i2b+0x2e>
100158b2:	2201      	movs	r2, #1
100158b4:	2302      	movs	r3, #2
100158b6:	e9c0 2301 	strd	r2, r3, [r0, #4]
100158ba:	e7de      	b.n	1001587a <__i2b+0x12>
100158bc:	100180f4 	.word	0x100180f4
100158c0:	10018174 	.word	0x10018174

100158c4 <__multiply>:
100158c4:	e92d 4ff0 	stmdb	sp!, {r4, r5, r6, r7, r8, r9, sl, fp, lr}
100158c8:	f8d1 8010 	ldr.w	r8, [r1, #16]
100158cc:	6915      	ldr	r5, [r2, #16]
100158ce:	45a8      	cmp	r8, r5
100158d0:	b085      	sub	sp, #20
100158d2:	460e      	mov	r6, r1
100158d4:	4692      	mov	sl, r2
100158d6:	db05      	blt.n	100158e4 <__multiply+0x20>
100158d8:	462a      	mov	r2, r5
100158da:	4653      	mov	r3, sl
100158dc:	4645      	mov	r5, r8
100158de:	468a      	mov	sl, r1
100158e0:	4690      	mov	r8, r2
100158e2:	461e      	mov	r6, r3
100158e4:	f8da 3008 	ldr.w	r3, [sl, #8]
100158e8:	f8da 1004 	ldr.w	r1, [sl, #4]
100158ec:	eb05 0408 	add.w	r4, r5, r8
100158f0:	42a3      	cmp	r3, r4
100158f2:	bfb8      	it	lt
100158f4:	3101      	addlt	r1, #1
100158f6:	f7ff fe8b 	bl	10015610 <_Balloc>
100158fa:	4684      	mov	ip, r0
100158fc:	2800      	cmp	r0, #0
100158fe:	f000 808b 	beq.w	10015a18 <__multiply+0x154>
10015902:	f100 0714 	add.w	r7, r0, #20
10015906:	eb07 0e84 	add.w	lr, r7, r4, lsl #2
1001590a:	4577      	cmp	r7, lr
1001590c:	d205      	bcs.n	1001591a <__multiply+0x56>
1001590e:	463b      	mov	r3, r7
10015910:	2200      	movs	r2, #0
10015912:	f843 2b04 	str.w	r2, [r3], #4
10015916:	459e      	cmp	lr, r3
10015918:	d8fb      	bhi.n	10015912 <__multiply+0x4e>
1001591a:	3614      	adds	r6, #20
1001591c:	eb06 0888 	add.w	r8, r6, r8, lsl #2
10015920:	f10a 0914 	add.w	r9, sl, #20
10015924:	4546      	cmp	r6, r8
10015926:	eb09 0585 	add.w	r5, r9, r5, lsl #2
1001592a:	d266      	bcs.n	100159fa <__multiply+0x136>
1001592c:	eba5 030a 	sub.w	r3, r5, sl
10015930:	3b15      	subs	r3, #21
10015932:	f023 0303 	bic.w	r3, r3, #3
10015936:	f10a 0a15 	add.w	sl, sl, #21
1001593a:	3304      	adds	r3, #4
1001593c:	4555      	cmp	r5, sl
1001593e:	bf2c      	ite	cs
10015940:	469b      	movcs	fp, r3
10015942:	f04f 0b04 	movcc.w	fp, #4
10015946:	f8cd e008 	str.w	lr, [sp, #8]
1001594a:	9403      	str	r4, [sp, #12]
1001594c:	46ae      	mov	lr, r5
1001594e:	46e2      	mov	sl, ip
10015950:	e005      	b.n	1001595e <__multiply+0x9a>
10015952:	0c09      	lsrs	r1, r1, #16
10015954:	d12a      	bne.n	100159ac <__multiply+0xe8>
10015956:	45b0      	cmp	r8, r6
10015958:	f107 0704 	add.w	r7, r7, #4
1001595c:	d94a      	bls.n	100159f4 <__multiply+0x130>
1001595e:	f856 1b04 	ldr.w	r1, [r6], #4
10015962:	b28d      	uxth	r5, r1
10015964:	2d00      	cmp	r5, #0
10015966:	d0f4      	beq.n	10015952 <__multiply+0x8e>
10015968:	46cc      	mov	ip, r9
1001596a:	463c      	mov	r4, r7
1001596c:	2300      	movs	r3, #0
1001596e:	9601      	str	r6, [sp, #4]
10015970:	f85c 0b04 	ldr.w	r0, [ip], #4
10015974:	6821      	ldr	r1, [r4, #0]
10015976:	b286      	uxth	r6, r0
10015978:	b28a      	uxth	r2, r1
1001597a:	0c00      	lsrs	r0, r0, #16
1001597c:	fb05 2206 	mla	r2, r5, r6, r2
10015980:	0c09      	lsrs	r1, r1, #16
10015982:	441a      	add	r2, r3
10015984:	fb05 1100 	mla	r1, r5, r0, r1
10015988:	eb01 4112 	add.w	r1, r1, r2, lsr #16
1001598c:	b292      	uxth	r2, r2
1001598e:	ea42 4201 	orr.w	r2, r2, r1, lsl #16
10015992:	45e6      	cmp	lr, ip
10015994:	f844 2b04 	str.w	r2, [r4], #4
10015998:	ea4f 4311 	mov.w	r3, r1, lsr #16
1001599c:	d8e8      	bhi.n	10015970 <__multiply+0xac>
1001599e:	9e01      	ldr	r6, [sp, #4]
100159a0:	f847 300b 	str.w	r3, [r7, fp]
100159a4:	f856 1c04 	ldr.w	r1, [r6, #-4]
100159a8:	0c09      	lsrs	r1, r1, #16
100159aa:	d0d4      	beq.n	10015956 <__multiply+0x92>
100159ac:	683b      	ldr	r3, [r7, #0]
100159ae:	2200      	movs	r2, #0
100159b0:	4648      	mov	r0, r9
100159b2:	461d      	mov	r5, r3
100159b4:	463c      	mov	r4, r7
100159b6:	4694      	mov	ip, r2
100159b8:	8802      	ldrh	r2, [r0, #0]
100159ba:	fb01 c202 	mla	r2, r1, r2, ip
100159be:	eb02 4215 	add.w	r2, r2, r5, lsr #16
100159c2:	b29b      	uxth	r3, r3
100159c4:	ea43 4302 	orr.w	r3, r3, r2, lsl #16
100159c8:	f844 3b04 	str.w	r3, [r4], #4
100159cc:	f850 3b04 	ldr.w	r3, [r0], #4
100159d0:	6825      	ldr	r5, [r4, #0]
100159d2:	ea4f 4c13 	mov.w	ip, r3, lsr #16
100159d6:	b2ab      	uxth	r3, r5
100159d8:	fb01 330c 	mla	r3, r1, ip, r3
100159dc:	eb03 4312 	add.w	r3, r3, r2, lsr #16
100159e0:	4570      	cmp	r0, lr
100159e2:	ea4f 4c13 	mov.w	ip, r3, lsr #16
100159e6:	d3e7      	bcc.n	100159b8 <__multiply+0xf4>
100159e8:	45b0      	cmp	r8, r6
100159ea:	f847 300b 	str.w	r3, [r7, fp]
100159ee:	f107 0704 	add.w	r7, r7, #4
100159f2:	d8b4      	bhi.n	1001595e <__multiply+0x9a>
100159f4:	e9dd e402 	ldrd	lr, r4, [sp, #8]
100159f8:	46d4      	mov	ip, sl
100159fa:	2c00      	cmp	r4, #0
100159fc:	dc02      	bgt.n	10015a04 <__multiply+0x140>
100159fe:	e005      	b.n	10015a0c <__multiply+0x148>
10015a00:	3c01      	subs	r4, #1
10015a02:	d003      	beq.n	10015a0c <__multiply+0x148>
10015a04:	f85e 3d04 	ldr.w	r3, [lr, #-4]!
10015a08:	2b00      	cmp	r3, #0
10015a0a:	d0f9      	beq.n	10015a00 <__multiply+0x13c>
10015a0c:	4660      	mov	r0, ip
10015a0e:	f8cc 4010 	str.w	r4, [ip, #16]
10015a12:	b005      	add	sp, #20
10015a14:	e8bd 8ff0 	ldmia.w	sp!, {r4, r5, r6, r7, r8, r9, sl, fp, pc}
10015a18:	4b03      	ldr	r3, [pc, #12]	@ (10015a28 <__multiply+0x164>)
10015a1a:	4804      	ldr	r0, [pc, #16]	@ (10015a2c <__multiply+0x168>)
10015a1c:	4662      	mov	r2, ip
10015a1e:	f44f 71b1 	mov.w	r1, #354	@ 0x162
10015a22:	f7ff fdcf 	bl	100155c4 <__assert_func>
10015a26:	bf00      	nop
10015a28:	100180f4 	.word	0x100180f4
10015a2c:	10018174 	.word	0x10018174

10015a30 <__pow5mult>:
10015a30:	f012 0303 	ands.w	r3, r2, #3
10015a34:	e92d 41f0 	stmdb	sp!, {r4, r5, r6, r7, r8, lr}
10015a38:	4614      	mov	r4, r2
10015a3a:	4607      	mov	r7, r0
10015a3c:	d12c      	bne.n	10015a98 <__pow5mult+0x68>
10015a3e:	460d      	mov	r5, r1
10015a40:	10a4      	asrs	r4, r4, #2
10015a42:	d01c      	beq.n	10015a7e <__pow5mult+0x4e>
10015a44:	6c3e      	ldr	r6, [r7, #64]	@ 0x40
10015a46:	b386      	cbz	r6, 10015aaa <__pow5mult+0x7a>
10015a48:	07e3      	lsls	r3, r4, #31
10015a4a:	f04f 0800 	mov.w	r8, #0
10015a4e:	d406      	bmi.n	10015a5e <__pow5mult+0x2e>
10015a50:	1064      	asrs	r4, r4, #1
10015a52:	d014      	beq.n	10015a7e <__pow5mult+0x4e>
10015a54:	6830      	ldr	r0, [r6, #0]
10015a56:	b1a8      	cbz	r0, 10015a84 <__pow5mult+0x54>
10015a58:	4606      	mov	r6, r0
10015a5a:	07e3      	lsls	r3, r4, #31
10015a5c:	d5f8      	bpl.n	10015a50 <__pow5mult+0x20>
10015a5e:	4632      	mov	r2, r6
10015a60:	4629      	mov	r1, r5
10015a62:	4638      	mov	r0, r7
10015a64:	f7ff ff2e 	bl	100158c4 <__multiply>
10015a68:	b135      	cbz	r5, 10015a78 <__pow5mult+0x48>
10015a6a:	6c7b      	ldr	r3, [r7, #68]	@ 0x44
10015a6c:	6869      	ldr	r1, [r5, #4]
10015a6e:	f853 2021 	ldr.w	r2, [r3, r1, lsl #2]
10015a72:	602a      	str	r2, [r5, #0]
10015a74:	f843 5021 	str.w	r5, [r3, r1, lsl #2]
10015a78:	1064      	asrs	r4, r4, #1
10015a7a:	4605      	mov	r5, r0
10015a7c:	d1ea      	bne.n	10015a54 <__pow5mult+0x24>
10015a7e:	4628      	mov	r0, r5
10015a80:	e8bd 81f0 	ldmia.w	sp!, {r4, r5, r6, r7, r8, pc}
10015a84:	4632      	mov	r2, r6
10015a86:	4631      	mov	r1, r6
10015a88:	4638      	mov	r0, r7
10015a8a:	f7ff ff1b 	bl	100158c4 <__multiply>
10015a8e:	6030      	str	r0, [r6, #0]
10015a90:	f8c0 8000 	str.w	r8, [r0]
10015a94:	4606      	mov	r6, r0
10015a96:	e7e0      	b.n	10015a5a <__pow5mult+0x2a>
10015a98:	3b01      	subs	r3, #1
10015a9a:	4a0f      	ldr	r2, [pc, #60]	@ (10015ad8 <__pow5mult+0xa8>)
10015a9c:	f852 2023 	ldr.w	r2, [r2, r3, lsl #2]
10015aa0:	2300      	movs	r3, #0
10015aa2:	f7ff fde5 	bl	10015670 <__multadd>
10015aa6:	4605      	mov	r5, r0
10015aa8:	e7ca      	b.n	10015a40 <__pow5mult+0x10>
10015aaa:	2101      	movs	r1, #1
10015aac:	4638      	mov	r0, r7
10015aae:	f7ff fdaf 	bl	10015610 <_Balloc>
10015ab2:	4606      	mov	r6, r0
10015ab4:	b140      	cbz	r0, 10015ac8 <__pow5mult+0x98>
10015ab6:	2301      	movs	r3, #1
10015ab8:	f240 2271 	movw	r2, #625	@ 0x271
10015abc:	e9c0 3204 	strd	r3, r2, [r0, #16]
10015ac0:	2300      	movs	r3, #0
10015ac2:	6438      	str	r0, [r7, #64]	@ 0x40
10015ac4:	6003      	str	r3, [r0, #0]
10015ac6:	e7bf      	b.n	10015a48 <__pow5mult+0x18>
10015ac8:	4b04      	ldr	r3, [pc, #16]	@ (10015adc <__pow5mult+0xac>)
10015aca:	4805      	ldr	r0, [pc, #20]	@ (10015ae0 <__pow5mult+0xb0>)
10015acc:	4632      	mov	r2, r6
10015ace:	f240 1145 	movw	r1, #325	@ 0x145
10015ad2:	f7ff fd77 	bl	100155c4 <__assert_func>
10015ad6:	bf00      	nop
10015ad8:	1001a390 	.word	0x1001a390
10015adc:	100180f4 	.word	0x100180f4
10015ae0:	10018174 	.word	0x10018174

10015ae4 <__lshift>:
10015ae4:	e92d 47f0 	stmdb	sp!, {r4, r5, r6, r7, r8, r9, sl, lr}
10015ae8:	460c      	mov	r4, r1
10015aea:	4690      	mov	r8, r2
10015aec:	6927      	ldr	r7, [r4, #16]
10015aee:	68a3      	ldr	r3, [r4, #8]
10015af0:	6849      	ldr	r1, [r1, #4]
10015af2:	eb07 1762 	add.w	r7, r7, r2, asr #5
10015af6:	1c7d      	adds	r5, r7, #1
10015af8:	429d      	cmp	r5, r3
10015afa:	4606      	mov	r6, r0
10015afc:	ea4f 1962 	mov.w	r9, r2, asr #5
10015b00:	dd04      	ble.n	10015b0c <__lshift+0x28>
10015b02:	005b      	lsls	r3, r3, #1
10015b04:	429d      	cmp	r5, r3
10015b06:	f101 0101 	add.w	r1, r1, #1
10015b0a:	dcfa      	bgt.n	10015b02 <__lshift+0x1e>
10015b0c:	4630      	mov	r0, r6
10015b0e:	f7ff fd7f 	bl	10015610 <_Balloc>
10015b12:	4684      	mov	ip, r0
10015b14:	2800      	cmp	r0, #0
10015b16:	d051      	beq.n	10015bbc <__lshift+0xd8>
10015b18:	f1b9 0f00 	cmp.w	r9, #0
10015b1c:	f100 0014 	add.w	r0, r0, #20
10015b20:	dd0e      	ble.n	10015b40 <__lshift+0x5c>
10015b22:	f109 0205 	add.w	r2, r9, #5
10015b26:	ea4f 0e82 	mov.w	lr, r2, lsl #2
10015b2a:	4603      	mov	r3, r0
10015b2c:	eb0c 0282 	add.w	r2, ip, r2, lsl #2
10015b30:	2100      	movs	r1, #0
10015b32:	f843 1b04 	str.w	r1, [r3], #4
10015b36:	4293      	cmp	r3, r2
10015b38:	d1fb      	bne.n	10015b32 <__lshift+0x4e>
10015b3a:	f1ae 0314 	sub.w	r3, lr, #20
10015b3e:	4418      	add	r0, r3
10015b40:	6921      	ldr	r1, [r4, #16]
10015b42:	f104 0314 	add.w	r3, r4, #20
10015b46:	f018 081f 	ands.w	r8, r8, #31
10015b4a:	eb03 0181 	add.w	r1, r3, r1, lsl #2
10015b4e:	d02d      	beq.n	10015bac <__lshift+0xc8>
10015b50:	f1c8 0920 	rsb	r9, r8, #32
10015b54:	4686      	mov	lr, r0
10015b56:	f04f 0a00 	mov.w	sl, #0
10015b5a:	681a      	ldr	r2, [r3, #0]
10015b5c:	fa02 f208 	lsl.w	r2, r2, r8
10015b60:	ea42 020a 	orr.w	r2, r2, sl
10015b64:	f84e 2b04 	str.w	r2, [lr], #4
10015b68:	f853 2b04 	ldr.w	r2, [r3], #4
10015b6c:	4299      	cmp	r1, r3
10015b6e:	fa22 fa09 	lsr.w	sl, r2, r9
10015b72:	d8f2      	bhi.n	10015b5a <__lshift+0x76>
10015b74:	1b0b      	subs	r3, r1, r4
10015b76:	3b15      	subs	r3, #21
10015b78:	f023 0303 	bic.w	r3, r3, #3
10015b7c:	3304      	adds	r3, #4
10015b7e:	f104 0215 	add.w	r2, r4, #21
10015b82:	4291      	cmp	r1, r2
10015b84:	bf38      	it	cc
10015b86:	2304      	movcc	r3, #4
10015b88:	f840 a003 	str.w	sl, [r0, r3]
10015b8c:	f1ba 0f00 	cmp.w	sl, #0
10015b90:	d100      	bne.n	10015b94 <__lshift+0xb0>
10015b92:	463d      	mov	r5, r7
10015b94:	6c73      	ldr	r3, [r6, #68]	@ 0x44
10015b96:	6862      	ldr	r2, [r4, #4]
10015b98:	f8cc 5010 	str.w	r5, [ip, #16]
10015b9c:	f853 1022 	ldr.w	r1, [r3, r2, lsl #2]
10015ba0:	6021      	str	r1, [r4, #0]
10015ba2:	4660      	mov	r0, ip
10015ba4:	f843 4022 	str.w	r4, [r3, r2, lsl #2]
10015ba8:	e8bd 87f0 	ldmia.w	sp!, {r4, r5, r6, r7, r8, r9, sl, pc}
10015bac:	3804      	subs	r0, #4
10015bae:	f853 2b04 	ldr.w	r2, [r3], #4
10015bb2:	f840 2f04 	str.w	r2, [r0, #4]!
10015bb6:	4299      	cmp	r1, r3
10015bb8:	d8f9      	bhi.n	10015bae <__lshift+0xca>
10015bba:	e7ea      	b.n	10015b92 <__lshift+0xae>
10015bbc:	4b03      	ldr	r3, [pc, #12]	@ (10015bcc <__lshift+0xe8>)
10015bbe:	4804      	ldr	r0, [pc, #16]	@ (10015bd0 <__lshift+0xec>)
10015bc0:	4662      	mov	r2, ip
10015bc2:	f44f 71ef 	mov.w	r1, #478	@ 0x1de
10015bc6:	f7ff fcfd 	bl	100155c4 <__assert_func>
10015bca:	bf00      	nop
10015bcc:	100180f4 	.word	0x100180f4
10015bd0:	10018174 	.word	0x10018174

10015bd4 <__mcmp>:
10015bd4:	690b      	ldr	r3, [r1, #16]
10015bd6:	4684      	mov	ip, r0
10015bd8:	6900      	ldr	r0, [r0, #16]
10015bda:	1ac0      	subs	r0, r0, r3
10015bdc:	d115      	bne.n	10015c0a <__mcmp+0x36>
10015bde:	f10c 0c14 	add.w	ip, ip, #20
10015be2:	3114      	adds	r1, #20
10015be4:	eb0c 0283 	add.w	r2, ip, r3, lsl #2
10015be8:	b410      	push	{r4}
10015bea:	eb01 0383 	add.w	r3, r1, r3, lsl #2
10015bee:	e001      	b.n	10015bf4 <__mcmp+0x20>
10015bf0:	4594      	cmp	ip, r2
10015bf2:	d208      	bcs.n	10015c06 <__mcmp+0x32>
10015bf4:	f852 4d04 	ldr.w	r4, [r2, #-4]!
10015bf8:	f853 1d04 	ldr.w	r1, [r3, #-4]!
10015bfc:	428c      	cmp	r4, r1
10015bfe:	d0f7      	beq.n	10015bf0 <__mcmp+0x1c>
10015c00:	d204      	bcs.n	10015c0c <__mcmp+0x38>
10015c02:	f04f 30ff 	mov.w	r0, #4294967295	@ 0xffffffff
10015c06:	bc10      	pop	{r4}
10015c08:	4770      	bx	lr
10015c0a:	4770      	bx	lr
10015c0c:	2001      	movs	r0, #1
10015c0e:	bc10      	pop	{r4}
10015c10:	4770      	bx	lr
10015c12:	bf00      	nop

10015c14 <__mdiff>:
10015c14:	e92d 4ff0 	stmdb	sp!, {r4, r5, r6, r7, r8, r9, sl, fp, lr}
10015c18:	4615      	mov	r5, r2
10015c1a:	690a      	ldr	r2, [r1, #16]
10015c1c:	692b      	ldr	r3, [r5, #16]
10015c1e:	1ad2      	subs	r2, r2, r3
10015c20:	2a00      	cmp	r2, #0
10015c22:	b083      	sub	sp, #12
10015c24:	4688      	mov	r8, r1
10015c26:	f040 8087 	bne.w	10015d38 <__mdiff+0x124>
10015c2a:	f101 0614 	add.w	r6, r1, #20
10015c2e:	f105 0114 	add.w	r1, r5, #20
10015c32:	eb01 0183 	add.w	r1, r1, r3, lsl #2
10015c36:	eb06 0383 	add.w	r3, r6, r3, lsl #2
10015c3a:	e001      	b.n	10015c40 <__mdiff+0x2c>
10015c3c:	429e      	cmp	r6, r3
10015c3e:	d27e      	bcs.n	10015d3e <__mdiff+0x12a>
10015c40:	f853 4d04 	ldr.w	r4, [r3, #-4]!
10015c44:	f851 2d04 	ldr.w	r2, [r1, #-4]!
10015c48:	4294      	cmp	r4, r2
10015c4a:	d0f7      	beq.n	10015c3c <__mdiff+0x28>
10015c4c:	d375      	bcc.n	10015d3a <__mdiff+0x126>
10015c4e:	462b      	mov	r3, r5
10015c50:	2400      	movs	r4, #0
10015c52:	4645      	mov	r5, r8
10015c54:	4698      	mov	r8, r3
10015c56:	6869      	ldr	r1, [r5, #4]
10015c58:	f7ff fcda 	bl	10015610 <_Balloc>
10015c5c:	4681      	mov	r9, r0
10015c5e:	2800      	cmp	r0, #0
10015c60:	f000 8089 	beq.w	10015d76 <__mdiff+0x162>
10015c64:	692e      	ldr	r6, [r5, #16]
10015c66:	60c4      	str	r4, [r0, #12]
10015c68:	f8d8 0010 	ldr.w	r0, [r8, #16]
10015c6c:	f105 0b14 	add.w	fp, r5, #20
10015c70:	f108 0e14 	add.w	lr, r8, #20
10015c74:	f109 0a14 	add.w	sl, r9, #20
10015c78:	f105 0210 	add.w	r2, r5, #16
10015c7c:	eb0e 0080 	add.w	r0, lr, r0, lsl #2
10015c80:	eb0b 0186 	add.w	r1, fp, r6, lsl #2
10015c84:	4657      	mov	r7, sl
10015c86:	f04f 0c00 	mov.w	ip, #0
10015c8a:	f8cd b004 	str.w	fp, [sp, #4]
10015c8e:	f85e 4b04 	ldr.w	r4, [lr], #4
10015c92:	f852 5f04 	ldr.w	r5, [r2, #4]!
10015c96:	fa1f fb84 	uxth.w	fp, r4
10015c9a:	b2ab      	uxth	r3, r5
10015c9c:	eba3 030b 	sub.w	r3, r3, fp
10015ca0:	0c24      	lsrs	r4, r4, #16
10015ca2:	4463      	add	r3, ip
10015ca4:	ebc4 4415 	rsb	r4, r4, r5, lsr #16
10015ca8:	eb04 4423 	add.w	r4, r4, r3, asr #16
10015cac:	b29b      	uxth	r3, r3
10015cae:	ea43 4304 	orr.w	r3, r3, r4, lsl #16
10015cb2:	4570      	cmp	r0, lr
10015cb4:	f847 3b04 	str.w	r3, [r7], #4
10015cb8:	ea4f 4c24 	mov.w	ip, r4, asr #16
10015cbc:	d8e7      	bhi.n	10015c8e <__mdiff+0x7a>
10015cbe:	eba0 0208 	sub.w	r2, r0, r8
10015cc2:	f108 0815 	add.w	r8, r8, #21
10015cc6:	4540      	cmp	r0, r8
10015cc8:	f1a2 0215 	sub.w	r2, r2, #21
10015ccc:	bf34      	ite	cc
10015cce:	2000      	movcc	r0, #0
10015cd0:	2001      	movcs	r0, #1
10015cd2:	0892      	lsrs	r2, r2, #2
10015cd4:	2800      	cmp	r0, #0
10015cd6:	f8dd b004 	ldr.w	fp, [sp, #4]
10015cda:	f102 0401 	add.w	r4, r2, #1
10015cde:	ea4f 0484 	mov.w	r4, r4, lsl #2
10015ce2:	bf08      	it	eq
10015ce4:	2404      	moveq	r4, #4
10015ce6:	eb0b 0504 	add.w	r5, fp, r4
10015cea:	42a9      	cmp	r1, r5
10015cec:	4454      	add	r4, sl
10015cee:	d933      	bls.n	10015d58 <__mdiff+0x144>
10015cf0:	4627      	mov	r7, r4
10015cf2:	4628      	mov	r0, r5
10015cf4:	f850 3b04 	ldr.w	r3, [r0], #4
10015cf8:	fa1c fe83 	uxtah	lr, ip, r3
10015cfc:	0c1a      	lsrs	r2, r3, #16
10015cfe:	4463      	add	r3, ip
10015d00:	eb02 422e 	add.w	r2, r2, lr, asr #16
10015d04:	b29b      	uxth	r3, r3
10015d06:	ea43 4302 	orr.w	r3, r3, r2, lsl #16
10015d0a:	4281      	cmp	r1, r0
10015d0c:	f847 3b04 	str.w	r3, [r7], #4
10015d10:	ea4f 4c22 	mov.w	ip, r2, asr #16
10015d14:	d8ee      	bhi.n	10015cf4 <__mdiff+0xe0>
10015d16:	3901      	subs	r1, #1
10015d18:	1b49      	subs	r1, r1, r5
10015d1a:	f021 0103 	bic.w	r1, r1, #3
10015d1e:	440c      	add	r4, r1
10015d20:	b923      	cbnz	r3, 10015d2c <__mdiff+0x118>
10015d22:	f854 3d04 	ldr.w	r3, [r4, #-4]!
10015d26:	3e01      	subs	r6, #1
10015d28:	2b00      	cmp	r3, #0
10015d2a:	d0fa      	beq.n	10015d22 <__mdiff+0x10e>
10015d2c:	4648      	mov	r0, r9
10015d2e:	f8c9 6010 	str.w	r6, [r9, #16]
10015d32:	b003      	add	sp, #12
10015d34:	e8bd 8ff0 	ldmia.w	sp!, {r4, r5, r6, r7, r8, r9, sl, fp, pc}
10015d38:	da89      	bge.n	10015c4e <__mdiff+0x3a>
10015d3a:	2401      	movs	r4, #1
10015d3c:	e78b      	b.n	10015c56 <__mdiff+0x42>
10015d3e:	2100      	movs	r1, #0
10015d40:	f7ff fc66 	bl	10015610 <_Balloc>
10015d44:	4681      	mov	r9, r0
10015d46:	b178      	cbz	r0, 10015d68 <__mdiff+0x154>
10015d48:	2201      	movs	r2, #1
10015d4a:	2300      	movs	r3, #0
10015d4c:	e9c0 2304 	strd	r2, r3, [r0, #16]
10015d50:	4648      	mov	r0, r9
10015d52:	b003      	add	sp, #12
10015d54:	e8bd 8ff0 	ldmia.w	sp!, {r4, r5, r6, r7, r8, r9, sl, fp, pc}
10015d58:	2800      	cmp	r0, #0
10015d5a:	ea4f 0282 	mov.w	r2, r2, lsl #2
10015d5e:	bf08      	it	eq
10015d60:	2200      	moveq	r2, #0
10015d62:	eb0a 0402 	add.w	r4, sl, r2
10015d66:	e7db      	b.n	10015d20 <__mdiff+0x10c>
10015d68:	4b06      	ldr	r3, [pc, #24]	@ (10015d84 <__mdiff+0x170>)
10015d6a:	4807      	ldr	r0, [pc, #28]	@ (10015d88 <__mdiff+0x174>)
10015d6c:	464a      	mov	r2, r9
10015d6e:	f240 2137 	movw	r1, #567	@ 0x237
10015d72:	f7ff fc27 	bl	100155c4 <__assert_func>
10015d76:	4b03      	ldr	r3, [pc, #12]	@ (10015d84 <__mdiff+0x170>)
10015d78:	4803      	ldr	r0, [pc, #12]	@ (10015d88 <__mdiff+0x174>)
10015d7a:	464a      	mov	r2, r9
10015d7c:	f240 2145 	movw	r1, #581	@ 0x245
10015d80:	f7ff fc20 	bl	100155c4 <__assert_func>
10015d84:	100180f4 	.word	0x100180f4
10015d88:	10018174 	.word	0x10018174

10015d8c <__ulp>:
10015d8c:	4b11      	ldr	r3, [pc, #68]	@ (10015dd4 <__ulp+0x48>)
10015d8e:	400b      	ands	r3, r1
10015d90:	f1a3 7350 	sub.w	r3, r3, #54525952	@ 0x3400000
10015d94:	2b00      	cmp	r3, #0
10015d96:	dd03      	ble.n	10015da0 <__ulp+0x14>
10015d98:	2200      	movs	r2, #0
10015d9a:	4619      	mov	r1, r3
10015d9c:	4610      	mov	r0, r2
10015d9e:	4770      	bx	lr
10015da0:	425b      	negs	r3, r3
10015da2:	f1b3 7fa0 	cmp.w	r3, #20971520	@ 0x1400000
10015da6:	ea4f 5223 	mov.w	r2, r3, asr #20
10015daa:	da06      	bge.n	10015dba <__ulp+0x2e>
10015dac:	f44f 2300 	mov.w	r3, #524288	@ 0x80000
10015db0:	4113      	asrs	r3, r2
10015db2:	2200      	movs	r2, #0
10015db4:	4619      	mov	r1, r3
10015db6:	4610      	mov	r0, r2
10015db8:	4770      	bx	lr
10015dba:	f1a2 0314 	sub.w	r3, r2, #20
10015dbe:	2b1e      	cmp	r3, #30
10015dc0:	bfda      	itte	le
10015dc2:	f04f 4200 	movle.w	r2, #2147483648	@ 0x80000000
10015dc6:	40da      	lsrle	r2, r3
10015dc8:	2201      	movgt	r2, #1
10015dca:	2300      	movs	r3, #0
10015dcc:	4619      	mov	r1, r3
10015dce:	4610      	mov	r0, r2
10015dd0:	4770      	bx	lr
10015dd2:	bf00      	nop
10015dd4:	7ff00000 	.word	0x7ff00000

10015dd8 <__b2d>:
10015dd8:	6902      	ldr	r2, [r0, #16]
10015dda:	e92d 41f0 	stmdb	sp!, {r4, r5, r6, r7, r8, lr}
10015dde:	f100 0714 	add.w	r7, r0, #20
10015de2:	eb07 0282 	add.w	r2, r7, r2, lsl #2
10015de6:	f1a2 0804 	sub.w	r8, r2, #4
10015dea:	f852 6c04 	ldr.w	r6, [r2, #-4]
10015dee:	4630      	mov	r0, r6
10015df0:	f7ff fce8 	bl	100157c4 <__hi0bits>
10015df4:	f1c0 0320 	rsb	r3, r0, #32
10015df8:	280a      	cmp	r0, #10
10015dfa:	600b      	str	r3, [r1, #0]
10015dfc:	dd33      	ble.n	10015e66 <__b2d+0x8e>
10015dfe:	4547      	cmp	r7, r8
10015e00:	f1a0 010b 	sub.w	r1, r0, #11
10015e04:	d219      	bcs.n	10015e3a <__b2d+0x62>
10015e06:	f852 3c08 	ldr.w	r3, [r2, #-8]
10015e0a:	b321      	cbz	r1, 10015e56 <__b2d+0x7e>
10015e0c:	f1c1 0020 	rsb	r0, r1, #32
10015e10:	408e      	lsls	r6, r1
10015e12:	fa23 f400 	lsr.w	r4, r3, r0
10015e16:	4326      	orrs	r6, r4
10015e18:	408b      	lsls	r3, r1
10015e1a:	f1a2 0108 	sub.w	r1, r2, #8
10015e1e:	f046 557f 	orr.w	r5, r6, #1069547520	@ 0x3fc00000
10015e22:	428f      	cmp	r7, r1
10015e24:	f445 1540 	orr.w	r5, r5, #3145728	@ 0x300000
10015e28:	d219      	bcs.n	10015e5e <__b2d+0x86>
10015e2a:	f852 2c0c 	ldr.w	r2, [r2, #-12]
10015e2e:	40c2      	lsrs	r2, r0
10015e30:	4313      	orrs	r3, r2
10015e32:	4618      	mov	r0, r3
10015e34:	4629      	mov	r1, r5
10015e36:	e8bd 81f0 	ldmia.w	sp!, {r4, r5, r6, r7, r8, pc}
10015e3a:	280b      	cmp	r0, #11
10015e3c:	d00a      	beq.n	10015e54 <__b2d+0x7c>
10015e3e:	fa06 f101 	lsl.w	r1, r6, r1
10015e42:	f041 557f 	orr.w	r5, r1, #1069547520	@ 0x3fc00000
10015e46:	f445 1540 	orr.w	r5, r5, #3145728	@ 0x300000
10015e4a:	2300      	movs	r3, #0
10015e4c:	4618      	mov	r0, r3
10015e4e:	4629      	mov	r1, r5
10015e50:	e8bd 81f0 	ldmia.w	sp!, {r4, r5, r6, r7, r8, pc}
10015e54:	2300      	movs	r3, #0
10015e56:	f046 557f 	orr.w	r5, r6, #1069547520	@ 0x3fc00000
10015e5a:	f445 1540 	orr.w	r5, r5, #3145728	@ 0x300000
10015e5e:	4618      	mov	r0, r3
10015e60:	4629      	mov	r1, r5
10015e62:	e8bd 81f0 	ldmia.w	sp!, {r4, r5, r6, r7, r8, pc}
10015e66:	4547      	cmp	r7, r8
10015e68:	bf38      	it	cc
10015e6a:	f852 2c08 	ldrcc.w	r2, [r2, #-8]
10015e6e:	f1c0 030b 	rsb	r3, r0, #11
10015e72:	fa26 f103 	lsr.w	r1, r6, r3
10015e76:	bf38      	it	cc
10015e78:	40da      	lsrcc	r2, r3
10015e7a:	f100 0315 	add.w	r3, r0, #21
10015e7e:	f041 557f 	orr.w	r5, r1, #1069547520	@ 0x3fc00000
10015e82:	bf28      	it	cs
10015e84:	2200      	movcs	r2, #0
10015e86:	fa06 f303 	lsl.w	r3, r6, r3
10015e8a:	f445 1540 	orr.w	r5, r5, #3145728	@ 0x300000
10015e8e:	4313      	orrs	r3, r2
10015e90:	4618      	mov	r0, r3
10015e92:	4629      	mov	r1, r5
10015e94:	e8bd 81f0 	ldmia.w	sp!, {r4, r5, r6, r7, r8, pc}

10015e98 <__d2b>:
10015e98:	b5f0      	push	{r4, r5, r6, r7, lr}
10015e9a:	2101      	movs	r1, #1
10015e9c:	b083      	sub	sp, #12
10015e9e:	4616      	mov	r6, r2
10015ea0:	461f      	mov	r7, r3
10015ea2:	f7ff fbb5 	bl	10015610 <_Balloc>
10015ea6:	4605      	mov	r5, r0
10015ea8:	2800      	cmp	r0, #0
10015eaa:	d047      	beq.n	10015f3c <__d2b+0xa4>
10015eac:	f3c7 540a 	ubfx	r4, r7, #20, #11
10015eb0:	f3c7 0313 	ubfx	r3, r7, #0, #20
10015eb4:	b10c      	cbz	r4, 10015eba <__d2b+0x22>
10015eb6:	f443 1380 	orr.w	r3, r3, #1048576	@ 0x100000
10015eba:	2e00      	cmp	r6, #0
10015ebc:	9301      	str	r3, [sp, #4]
10015ebe:	d114      	bne.n	10015eea <__d2b+0x52>
10015ec0:	a801      	add	r0, sp, #4
10015ec2:	f7ff fca1 	bl	10015808 <__lo0bits>
10015ec6:	9b01      	ldr	r3, [sp, #4]
10015ec8:	616b      	str	r3, [r5, #20]
10015eca:	2201      	movs	r2, #1
10015ecc:	3020      	adds	r0, #32
10015ece:	612a      	str	r2, [r5, #16]
10015ed0:	b314      	cbz	r4, 10015f18 <__d2b+0x80>
10015ed2:	9b08      	ldr	r3, [sp, #32]
10015ed4:	f2a4 4433 	subw	r4, r4, #1075	@ 0x433
10015ed8:	4404      	add	r4, r0
10015eda:	601c      	str	r4, [r3, #0]
10015edc:	9b09      	ldr	r3, [sp, #36]	@ 0x24
10015ede:	f1c0 0035 	rsb	r0, r0, #53	@ 0x35
10015ee2:	6018      	str	r0, [r3, #0]
10015ee4:	4628      	mov	r0, r5
10015ee6:	b003      	add	sp, #12
10015ee8:	bdf0      	pop	{r4, r5, r6, r7, pc}
10015eea:	4668      	mov	r0, sp
10015eec:	9600      	str	r6, [sp, #0]
10015eee:	f7ff fc8b 	bl	10015808 <__lo0bits>
10015ef2:	9b01      	ldr	r3, [sp, #4]
10015ef4:	b300      	cbz	r0, 10015f38 <__d2b+0xa0>
10015ef6:	9900      	ldr	r1, [sp, #0]
10015ef8:	f1c0 0220 	rsb	r2, r0, #32
10015efc:	fa03 f202 	lsl.w	r2, r3, r2
10015f00:	40c3      	lsrs	r3, r0
10015f02:	9301      	str	r3, [sp, #4]
10015f04:	430a      	orrs	r2, r1
10015f06:	2b00      	cmp	r3, #0
10015f08:	e9c5 2305 	strd	r2, r3, [r5, #20]
10015f0c:	bf0c      	ite	eq
10015f0e:	2201      	moveq	r2, #1
10015f10:	2202      	movne	r2, #2
10015f12:	612a      	str	r2, [r5, #16]
10015f14:	2c00      	cmp	r4, #0
10015f16:	d1dc      	bne.n	10015ed2 <__d2b+0x3a>
10015f18:	eb05 0182 	add.w	r1, r5, r2, lsl #2
10015f1c:	f2a0 4332 	subw	r3, r0, #1074	@ 0x432
10015f20:	6908      	ldr	r0, [r1, #16]
10015f22:	9908      	ldr	r1, [sp, #32]
10015f24:	600b      	str	r3, [r1, #0]
10015f26:	f7ff fc4d 	bl	100157c4 <__hi0bits>
10015f2a:	9b09      	ldr	r3, [sp, #36]	@ 0x24
10015f2c:	ebc0 1042 	rsb	r0, r0, r2, lsl #5
10015f30:	6018      	str	r0, [r3, #0]
10015f32:	4628      	mov	r0, r5
10015f34:	b003      	add	sp, #12
10015f36:	bdf0      	pop	{r4, r5, r6, r7, pc}
10015f38:	9a00      	ldr	r2, [sp, #0]
10015f3a:	e7e4      	b.n	10015f06 <__d2b+0x6e>
10015f3c:	4b03      	ldr	r3, [pc, #12]	@ (10015f4c <__d2b+0xb4>)
10015f3e:	4804      	ldr	r0, [pc, #16]	@ (10015f50 <__d2b+0xb8>)
10015f40:	462a      	mov	r2, r5
10015f42:	f240 310f 	movw	r1, #783	@ 0x30f
10015f46:	f7ff fb3d 	bl	100155c4 <__assert_func>
10015f4a:	bf00      	nop
10015f4c:	100180f4 	.word	0x100180f4
10015f50:	10018174 	.word	0x10018174

10015f54 <__ratio>:
10015f54:	e92d 43f0 	stmdb	sp!, {r4, r5, r6, r7, r8, r9, lr}
10015f58:	b083      	sub	sp, #12
10015f5a:	4688      	mov	r8, r1
10015f5c:	4669      	mov	r1, sp
10015f5e:	4681      	mov	r9, r0
10015f60:	f7ff ff3a 	bl	10015dd8 <__b2d>
10015f64:	4604      	mov	r4, r0
10015f66:	460d      	mov	r5, r1
10015f68:	4640      	mov	r0, r8
10015f6a:	a901      	add	r1, sp, #4
10015f6c:	f7ff ff34 	bl	10015dd8 <__b2d>
10015f70:	f8d9 3010 	ldr.w	r3, [r9, #16]
10015f74:	f8d8 2010 	ldr.w	r2, [r8, #16]
10015f78:	eba3 0c02 	sub.w	ip, r3, r2
10015f7c:	e9dd 3200 	ldrd	r3, r2, [sp]
10015f80:	1a9b      	subs	r3, r3, r2
10015f82:	eb03 134c 	add.w	r3, r3, ip, lsl #5
10015f86:	2b00      	cmp	r3, #0
10015f88:	dd0b      	ble.n	10015fa2 <__ratio+0x4e>
10015f8a:	eb05 5703 	add.w	r7, r5, r3, lsl #20
10015f8e:	463d      	mov	r5, r7
10015f90:	4602      	mov	r2, r0
10015f92:	460b      	mov	r3, r1
10015f94:	4620      	mov	r0, r4
10015f96:	4629      	mov	r1, r5
10015f98:	f001 fb02 	bl	100175a0 <__aeabi_ddiv>
10015f9c:	b003      	add	sp, #12
10015f9e:	e8bd 83f0 	ldmia.w	sp!, {r4, r5, r6, r7, r8, r9, pc}
10015fa2:	ebc3 3303 	rsb	r3, r3, r3, lsl #12
10015fa6:	eb01 5903 	add.w	r9, r1, r3, lsl #20
10015faa:	4649      	mov	r1, r9
10015fac:	e7f0      	b.n	10015f90 <__ratio+0x3c>
10015fae:	bf00      	nop

10015fb0 <_mprec_log10>:
10015fb0:	2817      	cmp	r0, #23
10015fb2:	b570      	push	{r4, r5, r6, lr}
10015fb4:	4606      	mov	r6, r0
10015fb6:	dd0a      	ble.n	10015fce <_mprec_log10+0x1e>
10015fb8:	4908      	ldr	r1, [pc, #32]	@ (10015fdc <_mprec_log10+0x2c>)
10015fba:	4d09      	ldr	r5, [pc, #36]	@ (10015fe0 <_mprec_log10+0x30>)
10015fbc:	2000      	movs	r0, #0
10015fbe:	2400      	movs	r4, #0
10015fc0:	4622      	mov	r2, r4
10015fc2:	462b      	mov	r3, r5
10015fc4:	f001 f9c2 	bl	1001734c <__aeabi_dmul>
10015fc8:	3e01      	subs	r6, #1
10015fca:	d1f9      	bne.n	10015fc0 <_mprec_log10+0x10>
10015fcc:	bd70      	pop	{r4, r5, r6, pc}
10015fce:	4b05      	ldr	r3, [pc, #20]	@ (10015fe4 <_mprec_log10+0x34>)
10015fd0:	eb03 03c0 	add.w	r3, r3, r0, lsl #3
10015fd4:	e9d3 0104 	ldrd	r0, r1, [r3, #16]
10015fd8:	bd70      	pop	{r4, r5, r6, pc}
10015fda:	bf00      	nop
10015fdc:	3ff00000 	.word	0x3ff00000
10015fe0:	40240000 	.word	0x40240000
10015fe4:	1001a390 	.word	0x1001a390

10015fe8 <__copybits>:
10015fe8:	3901      	subs	r1, #1
10015fea:	1149      	asrs	r1, r1, #5
10015fec:	f101 0c01 	add.w	ip, r1, #1
10015ff0:	6911      	ldr	r1, [r2, #16]
10015ff2:	f102 0314 	add.w	r3, r2, #20
10015ff6:	eb03 0181 	add.w	r1, r3, r1, lsl #2
10015ffa:	428b      	cmp	r3, r1
10015ffc:	eb00 0c8c 	add.w	ip, r0, ip, lsl #2
10016000:	d216      	bcs.n	10016030 <__copybits+0x48>
10016002:	b510      	push	{r4, lr}
10016004:	f1a0 0e04 	sub.w	lr, r0, #4
10016008:	f853 4b04 	ldr.w	r4, [r3], #4
1001600c:	f84e 4f04 	str.w	r4, [lr, #4]!
10016010:	4299      	cmp	r1, r3
10016012:	d8f9      	bhi.n	10016008 <__copybits+0x20>
10016014:	1a8b      	subs	r3, r1, r2
10016016:	3b15      	subs	r3, #21
10016018:	f023 0303 	bic.w	r3, r3, #3
1001601c:	3304      	adds	r3, #4
1001601e:	4418      	add	r0, r3
10016020:	4584      	cmp	ip, r0
10016022:	d904      	bls.n	1001602e <__copybits+0x46>
10016024:	2300      	movs	r3, #0
10016026:	f840 3b04 	str.w	r3, [r0], #4
1001602a:	4584      	cmp	ip, r0
1001602c:	d8fb      	bhi.n	10016026 <__copybits+0x3e>
1001602e:	bd10      	pop	{r4, pc}
10016030:	4584      	cmp	ip, r0
10016032:	d905      	bls.n	10016040 <__copybits+0x58>
10016034:	2300      	movs	r3, #0
10016036:	f840 3b04 	str.w	r3, [r0], #4
1001603a:	4584      	cmp	ip, r0
1001603c:	d8fb      	bhi.n	10016036 <__copybits+0x4e>
1001603e:	4770      	bx	lr
10016040:	4770      	bx	lr
10016042:	bf00      	nop

10016044 <__any_on>:
10016044:	6903      	ldr	r3, [r0, #16]
10016046:	114a      	asrs	r2, r1, #5
10016048:	4293      	cmp	r3, r2
1001604a:	f100 0014 	add.w	r0, r0, #20
1001604e:	da09      	bge.n	10016064 <__any_on+0x20>
10016050:	eb00 0383 	add.w	r3, r0, r3, lsl #2
10016054:	e002      	b.n	1001605c <__any_on+0x18>
10016056:	f853 2d04 	ldr.w	r2, [r3, #-4]!
1001605a:	b9a2      	cbnz	r2, 10016086 <__any_on+0x42>
1001605c:	4283      	cmp	r3, r0
1001605e:	d8fa      	bhi.n	10016056 <__any_on+0x12>
10016060:	2000      	movs	r0, #0
10016062:	4770      	bx	lr
10016064:	eb00 0382 	add.w	r3, r0, r2, lsl #2
10016068:	ddf8      	ble.n	1001605c <__any_on+0x18>
1001606a:	f011 011f 	ands.w	r1, r1, #31
1001606e:	d0f5      	beq.n	1001605c <__any_on+0x18>
10016070:	b410      	push	{r4}
10016072:	f850 4022 	ldr.w	r4, [r0, r2, lsl #2]
10016076:	fa24 f201 	lsr.w	r2, r4, r1
1001607a:	408a      	lsls	r2, r1
1001607c:	4294      	cmp	r4, r2
1001607e:	d008      	beq.n	10016092 <__any_on+0x4e>
10016080:	2001      	movs	r0, #1
10016082:	bc10      	pop	{r4}
10016084:	4770      	bx	lr
10016086:	2001      	movs	r0, #1
10016088:	4770      	bx	lr
1001608a:	f853 2d04 	ldr.w	r2, [r3, #-4]!
1001608e:	2a00      	cmp	r2, #0
10016090:	d1f6      	bne.n	10016080 <__any_on+0x3c>
10016092:	4283      	cmp	r3, r0
10016094:	d8f9      	bhi.n	1001608a <__any_on+0x46>
10016096:	2000      	movs	r0, #0
10016098:	bc10      	pop	{r4}
1001609a:	4770      	bx	lr

1001609c <__localeconv_l>:
1001609c:	30f0      	adds	r0, #240	@ 0xf0
1001609e:	4770      	bx	lr

100160a0 <_localeconv_r>:
100160a0:	4800      	ldr	r0, [pc, #0]	@ (100160a4 <_localeconv_r+0x4>)
100160a2:	4770      	bx	lr
100160a4:	20000648 	.word	0x20000648

100160a8 <localeconv>:
100160a8:	4800      	ldr	r0, [pc, #0]	@ (100160ac <localeconv+0x4>)
100160aa:	4770      	bx	lr
100160ac:	20000648 	.word	0x20000648

100160b0 <_mbtowc_r>:
100160b0:	b410      	push	{r4}
100160b2:	4c03      	ldr	r4, [pc, #12]	@ (100160c0 <_mbtowc_r+0x10>)
100160b4:	f8d4 40e4 	ldr.w	r4, [r4, #228]	@ 0xe4
100160b8:	46a4      	mov	ip, r4
100160ba:	bc10      	pop	{r4}
100160bc:	4760      	bx	ip
100160be:	bf00      	nop
100160c0:	20000558 	.word	0x20000558

100160c4 <__ascii_mbtowc>:
100160c4:	b082      	sub	sp, #8
100160c6:	b149      	cbz	r1, 100160dc <__ascii_mbtowc+0x18>
100160c8:	b15a      	cbz	r2, 100160e2 <__ascii_mbtowc+0x1e>
100160ca:	b16b      	cbz	r3, 100160e8 <__ascii_mbtowc+0x24>
100160cc:	7813      	ldrb	r3, [r2, #0]
100160ce:	600b      	str	r3, [r1, #0]
100160d0:	7812      	ldrb	r2, [r2, #0]
100160d2:	1e10      	subs	r0, r2, #0
100160d4:	bf18      	it	ne
100160d6:	2001      	movne	r0, #1
100160d8:	b002      	add	sp, #8
100160da:	4770      	bx	lr
100160dc:	a901      	add	r1, sp, #4
100160de:	2a00      	cmp	r2, #0
100160e0:	d1f3      	bne.n	100160ca <__ascii_mbtowc+0x6>
100160e2:	4610      	mov	r0, r2
100160e4:	b002      	add	sp, #8
100160e6:	4770      	bx	lr
100160e8:	f06f 0001 	mvn.w	r0, #1
100160ec:	e7f4      	b.n	100160d8 <__ascii_mbtowc+0x14>
100160ee:	bf00      	nop

100160f0 <abort>:
100160f0:	b508      	push	{r3, lr}
100160f2:	2006      	movs	r0, #6
100160f4:	f000 f910 	bl	10016318 <raise>
100160f8:	2001      	movs	r0, #1
100160fa:	f000 ff69 	bl	10016fd0 <_exit>
100160fe:	bf00      	nop

10016100 <_calloc_r>:
10016100:	b538      	push	{r3, r4, r5, lr}
10016102:	fba1 1402 	umull	r1, r4, r1, r2
10016106:	bb54      	cbnz	r4, 1001615e <_calloc_r+0x5e>
10016108:	f7fd ff00 	bl	10013f0c <_malloc_r>
1001610c:	4605      	mov	r5, r0
1001610e:	b350      	cbz	r0, 10016166 <_calloc_r+0x66>
10016110:	f850 2c04 	ldr.w	r2, [r0, #-4]
10016114:	f022 0203 	bic.w	r2, r2, #3
10016118:	3a04      	subs	r2, #4
1001611a:	2a24      	cmp	r2, #36	@ 0x24
1001611c:	d810      	bhi.n	10016140 <_calloc_r+0x40>
1001611e:	2a13      	cmp	r2, #19
10016120:	d913      	bls.n	1001614a <_calloc_r+0x4a>
10016122:	2a1b      	cmp	r2, #27
10016124:	e9c0 4400 	strd	r4, r4, [r0]
10016128:	d916      	bls.n	10016158 <_calloc_r+0x58>
1001612a:	2a24      	cmp	r2, #36	@ 0x24
1001612c:	e9c0 4402 	strd	r4, r4, [r0, #8]
10016130:	bf0a      	itet	eq
10016132:	e9c0 4404 	strdeq	r4, r4, [r0, #16]
10016136:	f100 0210 	addne.w	r2, r0, #16
1001613a:	f100 0218 	addeq.w	r2, r0, #24
1001613e:	e005      	b.n	1001614c <_calloc_r+0x4c>
10016140:	4621      	mov	r1, r4
10016142:	f7fb f949 	bl	100113d8 <memset>
10016146:	4628      	mov	r0, r5
10016148:	bd38      	pop	{r3, r4, r5, pc}
1001614a:	4602      	mov	r2, r0
1001614c:	2300      	movs	r3, #0
1001614e:	e9c2 3300 	strd	r3, r3, [r2]
10016152:	6093      	str	r3, [r2, #8]
10016154:	4628      	mov	r0, r5
10016156:	bd38      	pop	{r3, r4, r5, pc}
10016158:	f100 0208 	add.w	r2, r0, #8
1001615c:	e7f6      	b.n	1001614c <_calloc_r+0x4c>
1001615e:	f7fb fadb 	bl	10011718 <__errno>
10016162:	230c      	movs	r3, #12
10016164:	6003      	str	r3, [r0, #0]
10016166:	2500      	movs	r5, #0
10016168:	4628      	mov	r0, r5
1001616a:	bd38      	pop	{r3, r4, r5, pc}

1001616c <_fiprintf_r>:
1001616c:	b40c      	push	{r2, r3}
1001616e:	b500      	push	{lr}
10016170:	b083      	sub	sp, #12
10016172:	ab04      	add	r3, sp, #16
10016174:	f853 2b04 	ldr.w	r2, [r3], #4
10016178:	9301      	str	r3, [sp, #4]
1001617a:	f000 f989 	bl	10016490 <_vfiprintf_r>
1001617e:	b003      	add	sp, #12
10016180:	f85d eb04 	ldr.w	lr, [sp], #4
10016184:	b002      	add	sp, #8
10016186:	4770      	bx	lr

10016188 <fiprintf>:
10016188:	b40e      	push	{r1, r2, r3}
1001618a:	b510      	push	{r4, lr}
1001618c:	b083      	sub	sp, #12
1001618e:	ab05      	add	r3, sp, #20
10016190:	4c06      	ldr	r4, [pc, #24]	@ (100161ac <fiprintf+0x24>)
10016192:	f853 2b04 	ldr.w	r2, [r3], #4
10016196:	9301      	str	r3, [sp, #4]
10016198:	4601      	mov	r1, r0
1001619a:	6820      	ldr	r0, [r4, #0]
1001619c:	f000 f978 	bl	10016490 <_vfiprintf_r>
100161a0:	b003      	add	sp, #12
100161a2:	e8bd 4010 	ldmia.w	sp!, {r4, lr}
100161a6:	b003      	add	sp, #12
100161a8:	4770      	bx	lr
100161aa:	bf00      	nop
100161ac:	20000010 	.word	0x20000010

100161b0 <_wctomb_r>:
100161b0:	b410      	push	{r4}
100161b2:	4c03      	ldr	r4, [pc, #12]	@ (100161c0 <_wctomb_r+0x10>)
100161b4:	f8d4 40e0 	ldr.w	r4, [r4, #224]	@ 0xe0
100161b8:	46a4      	mov	ip, r4
100161ba:	bc10      	pop	{r4}
100161bc:	4760      	bx	ip
100161be:	bf00      	nop
100161c0:	20000558 	.word	0x20000558

100161c4 <__ascii_wctomb>:
100161c4:	b149      	cbz	r1, 100161da <__ascii_wctomb+0x16>
100161c6:	2aff      	cmp	r2, #255	@ 0xff
100161c8:	d802      	bhi.n	100161d0 <__ascii_wctomb+0xc>
100161ca:	700a      	strb	r2, [r1, #0]
100161cc:	2001      	movs	r0, #1
100161ce:	4770      	bx	lr
100161d0:	238a      	movs	r3, #138	@ 0x8a
100161d2:	6003      	str	r3, [r0, #0]
100161d4:	f04f 30ff 	mov.w	r0, #4294967295	@ 0xffffffff
100161d8:	4770      	bx	lr
100161da:	4608      	mov	r0, r1
100161dc:	4770      	bx	lr
100161de:	bf00      	nop

100161e0 <_init_signal_r>:
100161e0:	b538      	push	{r3, r4, r5, lr}
100161e2:	f8d0 4118 	ldr.w	r4, [r0, #280]	@ 0x118
100161e6:	b10c      	cbz	r4, 100161ec <_init_signal_r+0xc>
100161e8:	2000      	movs	r0, #0
100161ea:	bd38      	pop	{r3, r4, r5, pc}
100161ec:	2180      	movs	r1, #128	@ 0x80
100161ee:	4605      	mov	r5, r0
100161f0:	f7fd fe8c 	bl	10013f0c <_malloc_r>
100161f4:	4602      	mov	r2, r0
100161f6:	f8c5 0118 	str.w	r0, [r5, #280]	@ 0x118
100161fa:	b130      	cbz	r0, 1001620a <_init_signal_r+0x2a>
100161fc:	1f03      	subs	r3, r0, #4
100161fe:	327c      	adds	r2, #124	@ 0x7c
10016200:	f843 4f04 	str.w	r4, [r3, #4]!
10016204:	4293      	cmp	r3, r2
10016206:	d1fb      	bne.n	10016200 <_init_signal_r+0x20>
10016208:	e7ee      	b.n	100161e8 <_init_signal_r+0x8>
1001620a:	f04f 30ff 	mov.w	r0, #4294967295	@ 0xffffffff
1001620e:	bd38      	pop	{r3, r4, r5, pc}

10016210 <_signal_r>:
10016210:	b530      	push	{r4, r5, lr}
10016212:	291f      	cmp	r1, #31
10016214:	b083      	sub	sp, #12
10016216:	4605      	mov	r5, r0
10016218:	d809      	bhi.n	1001622e <_signal_r+0x1e>
1001621a:	f8d0 3118 	ldr.w	r3, [r0, #280]	@ 0x118
1001621e:	460c      	mov	r4, r1
10016220:	b153      	cbz	r3, 10016238 <_signal_r+0x28>
10016222:	f853 0024 	ldr.w	r0, [r3, r4, lsl #2]
10016226:	f843 2024 	str.w	r2, [r3, r4, lsl #2]
1001622a:	b003      	add	sp, #12
1001622c:	bd30      	pop	{r4, r5, pc}
1001622e:	2316      	movs	r3, #22
10016230:	6003      	str	r3, [r0, #0]
10016232:	f04f 30ff 	mov.w	r0, #4294967295	@ 0xffffffff
10016236:	e7f8      	b.n	1001622a <_signal_r+0x1a>
10016238:	2180      	movs	r1, #128	@ 0x80
1001623a:	9201      	str	r2, [sp, #4]
1001623c:	f7fd fe66 	bl	10013f0c <_malloc_r>
10016240:	9a01      	ldr	r2, [sp, #4]
10016242:	f8c5 0118 	str.w	r0, [r5, #280]	@ 0x118
10016246:	4603      	mov	r3, r0
10016248:	2800      	cmp	r0, #0
1001624a:	d0f2      	beq.n	10016232 <_signal_r+0x22>
1001624c:	1f01      	subs	r1, r0, #4
1001624e:	f100 057c 	add.w	r5, r0, #124	@ 0x7c
10016252:	2000      	movs	r0, #0
10016254:	f841 0f04 	str.w	r0, [r1, #4]!
10016258:	42a9      	cmp	r1, r5
1001625a:	d1fb      	bne.n	10016254 <_signal_r+0x44>
1001625c:	e7e1      	b.n	10016222 <_signal_r+0x12>
1001625e:	bf00      	nop

10016260 <_raise_r>:
10016260:	291f      	cmp	r1, #31
10016262:	b538      	push	{r3, r4, r5, lr}
10016264:	4605      	mov	r5, r0
10016266:	d81f      	bhi.n	100162a8 <_raise_r+0x48>
10016268:	f8d0 2118 	ldr.w	r2, [r0, #280]	@ 0x118
1001626c:	460c      	mov	r4, r1
1001626e:	b16a      	cbz	r2, 1001628c <_raise_r+0x2c>
10016270:	f852 3021 	ldr.w	r3, [r2, r1, lsl #2]
10016274:	b153      	cbz	r3, 1001628c <_raise_r+0x2c>
10016276:	2b01      	cmp	r3, #1
10016278:	d006      	beq.n	10016288 <_raise_r+0x28>
1001627a:	1c59      	adds	r1, r3, #1
1001627c:	d010      	beq.n	100162a0 <_raise_r+0x40>
1001627e:	2100      	movs	r1, #0
10016280:	f842 1024 	str.w	r1, [r2, r4, lsl #2]
10016284:	4620      	mov	r0, r4
10016286:	4798      	blx	r3
10016288:	2000      	movs	r0, #0
1001628a:	bd38      	pop	{r3, r4, r5, pc}
1001628c:	4628      	mov	r0, r5
1001628e:	f000 f8fd 	bl	1001648c <_getpid_r>
10016292:	4622      	mov	r2, r4
10016294:	4601      	mov	r1, r0
10016296:	4628      	mov	r0, r5
10016298:	e8bd 4038 	ldmia.w	sp!, {r3, r4, r5, lr}
1001629c:	f000 b8e0 	b.w	10016460 <_kill_r>
100162a0:	2316      	movs	r3, #22
100162a2:	6003      	str	r3, [r0, #0]
100162a4:	2001      	movs	r0, #1
100162a6:	bd38      	pop	{r3, r4, r5, pc}
100162a8:	2316      	movs	r3, #22
100162aa:	6003      	str	r3, [r0, #0]
100162ac:	f04f 30ff 	mov.w	r0, #4294967295	@ 0xffffffff
100162b0:	bd38      	pop	{r3, r4, r5, pc}
100162b2:	bf00      	nop

100162b4 <__sigtramp_r>:
100162b4:	291f      	cmp	r1, #31
100162b6:	d82c      	bhi.n	10016312 <__sigtramp_r+0x5e>
100162b8:	b538      	push	{r3, r4, r5, lr}
100162ba:	f8d0 3118 	ldr.w	r3, [r0, #280]	@ 0x118
100162be:	460c      	mov	r4, r1
100162c0:	4605      	mov	r5, r0
100162c2:	b1a3      	cbz	r3, 100162ee <__sigtramp_r+0x3a>
100162c4:	f853 2024 	ldr.w	r2, [r3, r4, lsl #2]
100162c8:	eb03 0384 	add.w	r3, r3, r4, lsl #2
100162cc:	b14a      	cbz	r2, 100162e2 <__sigtramp_r+0x2e>
100162ce:	1c51      	adds	r1, r2, #1
100162d0:	d00b      	beq.n	100162ea <__sigtramp_r+0x36>
100162d2:	2a01      	cmp	r2, #1
100162d4:	d007      	beq.n	100162e6 <__sigtramp_r+0x32>
100162d6:	2500      	movs	r5, #0
100162d8:	4620      	mov	r0, r4
100162da:	601d      	str	r5, [r3, #0]
100162dc:	4790      	blx	r2
100162de:	4628      	mov	r0, r5
100162e0:	bd38      	pop	{r3, r4, r5, pc}
100162e2:	2001      	movs	r0, #1
100162e4:	bd38      	pop	{r3, r4, r5, pc}
100162e6:	2003      	movs	r0, #3
100162e8:	bd38      	pop	{r3, r4, r5, pc}
100162ea:	2002      	movs	r0, #2
100162ec:	bd38      	pop	{r3, r4, r5, pc}
100162ee:	2180      	movs	r1, #128	@ 0x80
100162f0:	f7fd fe0c 	bl	10013f0c <_malloc_r>
100162f4:	4603      	mov	r3, r0
100162f6:	f8c5 0118 	str.w	r0, [r5, #280]	@ 0x118
100162fa:	b138      	cbz	r0, 1001630c <__sigtramp_r+0x58>
100162fc:	1f02      	subs	r2, r0, #4
100162fe:	2100      	movs	r1, #0
10016300:	307c      	adds	r0, #124	@ 0x7c
10016302:	f842 1f04 	str.w	r1, [r2, #4]!
10016306:	4282      	cmp	r2, r0
10016308:	d1fb      	bne.n	10016302 <__sigtramp_r+0x4e>
1001630a:	e7db      	b.n	100162c4 <__sigtramp_r+0x10>
1001630c:	f04f 30ff 	mov.w	r0, #4294967295	@ 0xffffffff
10016310:	bd38      	pop	{r3, r4, r5, pc}
10016312:	f04f 30ff 	mov.w	r0, #4294967295	@ 0xffffffff
10016316:	4770      	bx	lr

10016318 <raise>:
10016318:	b538      	push	{r3, r4, r5, lr}
1001631a:	4b14      	ldr	r3, [pc, #80]	@ (1001636c <raise+0x54>)
1001631c:	281f      	cmp	r0, #31
1001631e:	681d      	ldr	r5, [r3, #0]
10016320:	d81e      	bhi.n	10016360 <raise+0x48>
10016322:	f8d5 2118 	ldr.w	r2, [r5, #280]	@ 0x118
10016326:	4604      	mov	r4, r0
10016328:	b162      	cbz	r2, 10016344 <raise+0x2c>
1001632a:	f852 3020 	ldr.w	r3, [r2, r0, lsl #2]
1001632e:	b14b      	cbz	r3, 10016344 <raise+0x2c>
10016330:	2b01      	cmp	r3, #1
10016332:	d005      	beq.n	10016340 <raise+0x28>
10016334:	1c59      	adds	r1, r3, #1
10016336:	d00f      	beq.n	10016358 <raise+0x40>
10016338:	2100      	movs	r1, #0
1001633a:	f842 1020 	str.w	r1, [r2, r0, lsl #2]
1001633e:	4798      	blx	r3
10016340:	2000      	movs	r0, #0
10016342:	bd38      	pop	{r3, r4, r5, pc}
10016344:	4628      	mov	r0, r5
10016346:	f000 f8a1 	bl	1001648c <_getpid_r>
1001634a:	4622      	mov	r2, r4
1001634c:	4601      	mov	r1, r0
1001634e:	4628      	mov	r0, r5
10016350:	e8bd 4038 	ldmia.w	sp!, {r3, r4, r5, lr}
10016354:	f000 b884 	b.w	10016460 <_kill_r>
10016358:	2316      	movs	r3, #22
1001635a:	602b      	str	r3, [r5, #0]
1001635c:	2001      	movs	r0, #1
1001635e:	bd38      	pop	{r3, r4, r5, pc}
10016360:	2316      	movs	r3, #22
10016362:	602b      	str	r3, [r5, #0]
10016364:	f04f 30ff 	mov.w	r0, #4294967295	@ 0xffffffff
10016368:	bd38      	pop	{r3, r4, r5, pc}
1001636a:	bf00      	nop
1001636c:	20000010 	.word	0x20000010

10016370 <signal>:
10016370:	4b12      	ldr	r3, [pc, #72]	@ (100163bc <signal+0x4c>)
10016372:	281f      	cmp	r0, #31
10016374:	b570      	push	{r4, r5, r6, lr}
10016376:	681e      	ldr	r6, [r3, #0]
10016378:	d809      	bhi.n	1001638e <signal+0x1e>
1001637a:	f8d6 3118 	ldr.w	r3, [r6, #280]	@ 0x118
1001637e:	4604      	mov	r4, r0
10016380:	460d      	mov	r5, r1
10016382:	b14b      	cbz	r3, 10016398 <signal+0x28>
10016384:	f853 0024 	ldr.w	r0, [r3, r4, lsl #2]
10016388:	f843 5024 	str.w	r5, [r3, r4, lsl #2]
1001638c:	bd70      	pop	{r4, r5, r6, pc}
1001638e:	2316      	movs	r3, #22
10016390:	6033      	str	r3, [r6, #0]
10016392:	f04f 30ff 	mov.w	r0, #4294967295	@ 0xffffffff
10016396:	bd70      	pop	{r4, r5, r6, pc}
10016398:	2180      	movs	r1, #128	@ 0x80
1001639a:	4630      	mov	r0, r6
1001639c:	f7fd fdb6 	bl	10013f0c <_malloc_r>
100163a0:	4603      	mov	r3, r0
100163a2:	f8c6 0118 	str.w	r0, [r6, #280]	@ 0x118
100163a6:	2800      	cmp	r0, #0
100163a8:	d0f3      	beq.n	10016392 <signal+0x22>
100163aa:	1f02      	subs	r2, r0, #4
100163ac:	2100      	movs	r1, #0
100163ae:	307c      	adds	r0, #124	@ 0x7c
100163b0:	f842 1f04 	str.w	r1, [r2, #4]!
100163b4:	4282      	cmp	r2, r0
100163b6:	d1fb      	bne.n	100163b0 <signal+0x40>
100163b8:	e7e4      	b.n	10016384 <signal+0x14>
100163ba:	bf00      	nop
100163bc:	20000010 	.word	0x20000010

100163c0 <_init_signal>:
100163c0:	b538      	push	{r3, r4, r5, lr}
100163c2:	4b0c      	ldr	r3, [pc, #48]	@ (100163f4 <_init_signal+0x34>)
100163c4:	681d      	ldr	r5, [r3, #0]
100163c6:	f8d5 4118 	ldr.w	r4, [r5, #280]	@ 0x118
100163ca:	b10c      	cbz	r4, 100163d0 <_init_signal+0x10>
100163cc:	2000      	movs	r0, #0
100163ce:	bd38      	pop	{r3, r4, r5, pc}
100163d0:	2180      	movs	r1, #128	@ 0x80
100163d2:	4628      	mov	r0, r5
100163d4:	f7fd fd9a 	bl	10013f0c <_malloc_r>
100163d8:	f8c5 0118 	str.w	r0, [r5, #280]	@ 0x118
100163dc:	b138      	cbz	r0, 100163ee <_init_signal+0x2e>
100163de:	1f03      	subs	r3, r0, #4
100163e0:	f100 027c 	add.w	r2, r0, #124	@ 0x7c
100163e4:	f843 4f04 	str.w	r4, [r3, #4]!
100163e8:	4293      	cmp	r3, r2
100163ea:	d1fb      	bne.n	100163e4 <_init_signal+0x24>
100163ec:	e7ee      	b.n	100163cc <_init_signal+0xc>
100163ee:	f04f 30ff 	mov.w	r0, #4294967295	@ 0xffffffff
100163f2:	bd38      	pop	{r3, r4, r5, pc}
100163f4:	20000010 	.word	0x20000010

100163f8 <__sigtramp>:
100163f8:	b538      	push	{r3, r4, r5, lr}
100163fa:	4b18      	ldr	r3, [pc, #96]	@ (1001645c <__sigtramp+0x64>)
100163fc:	281f      	cmp	r0, #31
100163fe:	681d      	ldr	r5, [r3, #0]
10016400:	d828      	bhi.n	10016454 <__sigtramp+0x5c>
10016402:	4604      	mov	r4, r0
10016404:	f8d5 0118 	ldr.w	r0, [r5, #280]	@ 0x118
10016408:	b1a0      	cbz	r0, 10016434 <__sigtramp+0x3c>
1001640a:	f850 3024 	ldr.w	r3, [r0, r4, lsl #2]
1001640e:	eb00 0084 	add.w	r0, r0, r4, lsl #2
10016412:	b14b      	cbz	r3, 10016428 <__sigtramp+0x30>
10016414:	1c5a      	adds	r2, r3, #1
10016416:	d00b      	beq.n	10016430 <__sigtramp+0x38>
10016418:	2b01      	cmp	r3, #1
1001641a:	d007      	beq.n	1001642c <__sigtramp+0x34>
1001641c:	2500      	movs	r5, #0
1001641e:	6005      	str	r5, [r0, #0]
10016420:	4620      	mov	r0, r4
10016422:	4798      	blx	r3
10016424:	4628      	mov	r0, r5
10016426:	bd38      	pop	{r3, r4, r5, pc}
10016428:	2001      	movs	r0, #1
1001642a:	bd38      	pop	{r3, r4, r5, pc}
1001642c:	2003      	movs	r0, #3
1001642e:	bd38      	pop	{r3, r4, r5, pc}
10016430:	2002      	movs	r0, #2
10016432:	bd38      	pop	{r3, r4, r5, pc}
10016434:	2180      	movs	r1, #128	@ 0x80
10016436:	4628      	mov	r0, r5
10016438:	f7fd fd68 	bl	10013f0c <_malloc_r>
1001643c:	f8c5 0118 	str.w	r0, [r5, #280]	@ 0x118
10016440:	b140      	cbz	r0, 10016454 <__sigtramp+0x5c>
10016442:	1f03      	subs	r3, r0, #4
10016444:	f100 017c 	add.w	r1, r0, #124	@ 0x7c
10016448:	2200      	movs	r2, #0
1001644a:	f843 2f04 	str.w	r2, [r3, #4]!
1001644e:	428b      	cmp	r3, r1
10016450:	d1fb      	bne.n	1001644a <__sigtramp+0x52>
10016452:	e7da      	b.n	1001640a <__sigtramp+0x12>
10016454:	f04f 30ff 	mov.w	r0, #4294967295	@ 0xffffffff
10016458:	bd38      	pop	{r3, r4, r5, pc}
1001645a:	bf00      	nop
1001645c:	20000010 	.word	0x20000010

10016460 <_kill_r>:
10016460:	b570      	push	{r4, r5, r6, lr}
10016462:	460c      	mov	r4, r1
10016464:	4d08      	ldr	r5, [pc, #32]	@ (10016488 <_kill_r+0x28>)
10016466:	4603      	mov	r3, r0
10016468:	2600      	movs	r6, #0
1001646a:	4620      	mov	r0, r4
1001646c:	4611      	mov	r1, r2
1001646e:	461c      	mov	r4, r3
10016470:	602e      	str	r6, [r5, #0]
10016472:	f7f9 ff67 	bl	10010344 <_kill>
10016476:	1c43      	adds	r3, r0, #1
10016478:	d000      	beq.n	1001647c <_kill_r+0x1c>
1001647a:	bd70      	pop	{r4, r5, r6, pc}
1001647c:	682b      	ldr	r3, [r5, #0]
1001647e:	2b00      	cmp	r3, #0
10016480:	d0fb      	beq.n	1001647a <_kill_r+0x1a>
10016482:	6023      	str	r3, [r4, #0]
10016484:	bd70      	pop	{r4, r5, r6, pc}
10016486:	bf00      	nop
10016488:	200015a8 	.word	0x200015a8

1001648c <_getpid_r>:
1001648c:	f7f9 bf56 	b.w	1001033c <_getpid>

10016490 <_vfiprintf_r>:
10016490:	e92d 4ff0 	stmdb	sp!, {r4, r5, r6, r7, r8, r9, sl, fp, lr}
10016494:	b0ad      	sub	sp, #180	@ 0xb4
10016496:	e9cd 3007 	strd	r3, r0, [sp, #28]
1001649a:	461c      	mov	r4, r3
1001649c:	9102      	str	r1, [sp, #8]
1001649e:	4693      	mov	fp, r2
100164a0:	b118      	cbz	r0, 100164aa <_vfiprintf_r+0x1a>
100164a2:	6b43      	ldr	r3, [r0, #52]	@ 0x34
100164a4:	2b00      	cmp	r3, #0
100164a6:	f000 8503 	beq.w	10016eb0 <_vfiprintf_r+0xa20>
100164aa:	9902      	ldr	r1, [sp, #8]
100164ac:	f9b1 200c 	ldrsh.w	r2, [r1, #12]
100164b0:	6e4b      	ldr	r3, [r1, #100]	@ 0x64
100164b2:	0495      	lsls	r5, r2, #18
100164b4:	d405      	bmi.n	100164c2 <_vfiprintf_r+0x32>
100164b6:	f442 5200 	orr.w	r2, r2, #8192	@ 0x2000
100164ba:	f423 5300 	bic.w	r3, r3, #8192	@ 0x2000
100164be:	818a      	strh	r2, [r1, #12]
100164c0:	664b      	str	r3, [r1, #100]	@ 0x64
100164c2:	0498      	lsls	r0, r3, #18
100164c4:	f100 8524 	bmi.w	10016f10 <_vfiprintf_r+0xa80>
100164c8:	9b02      	ldr	r3, [sp, #8]
100164ca:	f9b3 200c 	ldrsh.w	r2, [r3, #12]
100164ce:	0711      	lsls	r1, r2, #28
100164d0:	f140 80d3 	bpl.w	1001667a <_vfiprintf_r+0x1ea>
100164d4:	691b      	ldr	r3, [r3, #16]
100164d6:	2b00      	cmp	r3, #0
100164d8:	f000 80cf 	beq.w	1001667a <_vfiprintf_r+0x1ea>
100164dc:	f002 021a 	and.w	r2, r2, #26
100164e0:	2a0a      	cmp	r2, #10
100164e2:	f000 80d9 	beq.w	10016698 <_vfiprintf_r+0x208>
100164e6:	2300      	movs	r3, #0
100164e8:	e9cd 3310 	strd	r3, r3, [sp, #64]	@ 0x40
100164ec:	f10d 0970 	add.w	r9, sp, #112	@ 0x70
100164f0:	f8cd 903c 	str.w	r9, [sp, #60]	@ 0x3c
100164f4:	9309      	str	r3, [sp, #36]	@ 0x24
100164f6:	46ca      	mov	sl, r9
100164f8:	9305      	str	r3, [sp, #20]
100164fa:	f89b 3000 	ldrb.w	r3, [fp]
100164fe:	2b00      	cmp	r3, #0
10016500:	f000 80f4 	beq.w	100166ec <_vfiprintf_r+0x25c>
10016504:	465c      	mov	r4, fp
10016506:	e004      	b.n	10016512 <_vfiprintf_r+0x82>
10016508:	f814 3f01 	ldrb.w	r3, [r4, #1]!
1001650c:	2b00      	cmp	r3, #0
1001650e:	f000 80d2 	beq.w	100166b6 <_vfiprintf_r+0x226>
10016512:	2b25      	cmp	r3, #37	@ 0x25
10016514:	d1f8      	bne.n	10016508 <_vfiprintf_r+0x78>
10016516:	ebb4 050b 	subs.w	r5, r4, fp
1001651a:	f040 80cf 	bne.w	100166bc <_vfiprintf_r+0x22c>
1001651e:	7823      	ldrb	r3, [r4, #0]
10016520:	2b00      	cmp	r3, #0
10016522:	f000 80e3 	beq.w	100166ec <_vfiprintf_r+0x25c>
10016526:	f04f 0300 	mov.w	r3, #0
1001652a:	f88d 3037 	strb.w	r3, [sp, #55]	@ 0x37
1001652e:	f04f 32ff 	mov.w	r2, #4294967295	@ 0xffffffff
10016532:	2300      	movs	r3, #0
10016534:	e9cd 2303 	strd	r2, r3, [sp, #12]
10016538:	7861      	ldrb	r1, [r4, #1]
1001653a:	f104 0b01 	add.w	fp, r4, #1
1001653e:	4698      	mov	r8, r3
10016540:	f10b 0b01 	add.w	fp, fp, #1
10016544:	f1a1 0320 	sub.w	r3, r1, #32
10016548:	2b58      	cmp	r3, #88	@ 0x58
1001654a:	f200 80dc 	bhi.w	10016706 <_vfiprintf_r+0x276>
1001654e:	e8df f013 	tbh	[pc, r3, lsl #1]
10016552:	01b2      	.short	0x01b2
10016554:	00da00da 	.word	0x00da00da
10016558:	00da01ad 	.word	0x00da01ad
1001655c:	00da00da 	.word	0x00da00da
10016560:	00da00da 	.word	0x00da00da
10016564:	017600da 	.word	0x017600da
10016568:	00da01a7 	.word	0x00da01a7
1001656c:	01860181 	.word	0x01860181
10016570:	01a200da 	.word	0x01a200da
10016574:	00590059 	.word	0x00590059
10016578:	00590059 	.word	0x00590059
1001657c:	00590059 	.word	0x00590059
10016580:	00590059 	.word	0x00590059
10016584:	00da0059 	.word	0x00da0059
10016588:	00da00da 	.word	0x00da00da
1001658c:	00da00da 	.word	0x00da00da
10016590:	00da00da 	.word	0x00da00da
10016594:	00da00da 	.word	0x00da00da
10016598:	006800da 	.word	0x006800da
1001659c:	00da00da 	.word	0x00da00da
100165a0:	00da00da 	.word	0x00da00da
100165a4:	00da00da 	.word	0x00da00da
100165a8:	00da00da 	.word	0x00da00da
100165ac:	00da00da 	.word	0x00da00da
100165b0:	00da0219 	.word	0x00da0219
100165b4:	00da00da 	.word	0x00da00da
100165b8:	00da00da 	.word	0x00da00da
100165bc:	00da01ea 	.word	0x00da01ea
100165c0:	041d00da 	.word	0x041d00da
100165c4:	00da00da 	.word	0x00da00da
100165c8:	00da00da 	.word	0x00da00da
100165cc:	00da00da 	.word	0x00da00da
100165d0:	00da00da 	.word	0x00da00da
100165d4:	00da00da 	.word	0x00da00da
100165d8:	006a01dd 	.word	0x006a01dd
100165dc:	00da00da 	.word	0x00da00da
100165e0:	01d800da 	.word	0x01d800da
100165e4:	00da006a 	.word	0x00da006a
100165e8:	01cb00da 	.word	0x01cb00da
100165ec:	01bd00da 	.word	0x01bd00da
100165f0:	027f041b 	.word	0x027f041b
100165f4:	00da027a 	.word	0x00da027a
100165f8:	00da0259 	.word	0x00da0259
100165fc:	00da0419 	.word	0x00da0419
10016600:	044200da 	.word	0x044200da
10016604:	f1a1 0330 	sub.w	r3, r1, #48	@ 0x30
10016608:	2200      	movs	r2, #0
1001660a:	f81b 1b01 	ldrb.w	r1, [fp], #1
1001660e:	eb02 0282 	add.w	r2, r2, r2, lsl #2
10016612:	eb03 0242 	add.w	r2, r3, r2, lsl #1
10016616:	f1a1 0330 	sub.w	r3, r1, #48	@ 0x30
1001661a:	2b09      	cmp	r3, #9
1001661c:	d9f5      	bls.n	1001660a <_vfiprintf_r+0x17a>
1001661e:	9204      	str	r2, [sp, #16]
10016620:	e790      	b.n	10016544 <_vfiprintf_r+0xb4>
10016622:	f048 0810 	orr.w	r8, r8, #16
10016626:	f018 0f20 	tst.w	r8, #32
1001662a:	f000 80d7 	beq.w	100167dc <_vfiprintf_r+0x34c>
1001662e:	9b07      	ldr	r3, [sp, #28]
10016630:	3307      	adds	r3, #7
10016632:	f023 0307 	bic.w	r3, r3, #7
10016636:	461a      	mov	r2, r3
10016638:	6859      	ldr	r1, [r3, #4]
1001663a:	f852 3b08 	ldr.w	r3, [r2], #8
1001663e:	9207      	str	r2, [sp, #28]
10016640:	460a      	mov	r2, r1
10016642:	2900      	cmp	r1, #0
10016644:	f2c0 80de 	blt.w	10016804 <_vfiprintf_r+0x374>
10016648:	9903      	ldr	r1, [sp, #12]
1001664a:	f89d 5037 	ldrb.w	r5, [sp, #55]	@ 0x37
1001664e:	2900      	cmp	r1, #0
10016650:	f2c0 80e3 	blt.w	1001681a <_vfiprintf_r+0x38a>
10016654:	ea53 0102 	orrs.w	r1, r3, r2
10016658:	f028 0880 	bic.w	r8, r8, #128	@ 0x80
1001665c:	f040 80dd 	bne.w	1001681a <_vfiprintf_r+0x38a>
10016660:	9b03      	ldr	r3, [sp, #12]
10016662:	2b00      	cmp	r3, #0
10016664:	f040 8459 	bne.w	10016f1a <_vfiprintf_r+0xa8a>
10016668:	9301      	str	r3, [sp, #4]
1001666a:	464c      	mov	r4, r9
1001666c:	2d00      	cmp	r5, #0
1001666e:	f000 81be 	beq.w	100169ee <_vfiprintf_r+0x55e>
10016672:	9a01      	ldr	r2, [sp, #4]
10016674:	3201      	adds	r2, #1
10016676:	9201      	str	r2, [sp, #4]
10016678:	e1b9      	b.n	100169ee <_vfiprintf_r+0x55e>
1001667a:	9d02      	ldr	r5, [sp, #8]
1001667c:	9808      	ldr	r0, [sp, #32]
1001667e:	4629      	mov	r1, r5
10016680:	f7fe feca 	bl	10015418 <__swsetup_r>
10016684:	2800      	cmp	r0, #0
10016686:	f040 8443 	bne.w	10016f10 <_vfiprintf_r+0xa80>
1001668a:	f9b5 200c 	ldrsh.w	r2, [r5, #12]
1001668e:	f002 021a 	and.w	r2, r2, #26
10016692:	2a0a      	cmp	r2, #10
10016694:	f47f af27 	bne.w	100164e6 <_vfiprintf_r+0x56>
10016698:	9b02      	ldr	r3, [sp, #8]
1001669a:	f9b3 300e 	ldrsh.w	r3, [r3, #14]
1001669e:	2b00      	cmp	r3, #0
100166a0:	f6ff af21 	blt.w	100164e6 <_vfiprintf_r+0x56>
100166a4:	9902      	ldr	r1, [sp, #8]
100166a6:	9808      	ldr	r0, [sp, #32]
100166a8:	4623      	mov	r3, r4
100166aa:	465a      	mov	r2, fp
100166ac:	b02d      	add	sp, #180	@ 0xb4
100166ae:	e8bd 4ff0 	ldmia.w	sp!, {r4, r5, r6, r7, r8, r9, sl, fp, lr}
100166b2:	f000 bc57 	b.w	10016f64 <__sbprintf>
100166b6:	ebb4 050b 	subs.w	r5, r4, fp
100166ba:	d017      	beq.n	100166ec <_vfiprintf_r+0x25c>
100166bc:	9b11      	ldr	r3, [sp, #68]	@ 0x44
100166be:	442b      	add	r3, r5
100166c0:	9311      	str	r3, [sp, #68]	@ 0x44
100166c2:	9b10      	ldr	r3, [sp, #64]	@ 0x40
100166c4:	3301      	adds	r3, #1
100166c6:	2b07      	cmp	r3, #7
100166c8:	e9ca b500 	strd	fp, r5, [sl]
100166cc:	9310      	str	r3, [sp, #64]	@ 0x40
100166ce:	dc05      	bgt.n	100166dc <_vfiprintf_r+0x24c>
100166d0:	f10a 0a08 	add.w	sl, sl, #8
100166d4:	9b05      	ldr	r3, [sp, #20]
100166d6:	442b      	add	r3, r5
100166d8:	9305      	str	r3, [sp, #20]
100166da:	e720      	b.n	1001651e <_vfiprintf_r+0x8e>
100166dc:	9902      	ldr	r1, [sp, #8]
100166de:	9808      	ldr	r0, [sp, #32]
100166e0:	aa0f      	add	r2, sp, #60	@ 0x3c
100166e2:	f7fe ff5f 	bl	100155a4 <__sprint_r>
100166e6:	b928      	cbnz	r0, 100166f4 <_vfiprintf_r+0x264>
100166e8:	46ca      	mov	sl, r9
100166ea:	e7f3      	b.n	100166d4 <_vfiprintf_r+0x244>
100166ec:	9b11      	ldr	r3, [sp, #68]	@ 0x44
100166ee:	2b00      	cmp	r3, #0
100166f0:	f040 8400 	bne.w	10016ef4 <_vfiprintf_r+0xa64>
100166f4:	9b02      	ldr	r3, [sp, #8]
100166f6:	899b      	ldrh	r3, [r3, #12]
100166f8:	065b      	lsls	r3, r3, #25
100166fa:	f100 8409 	bmi.w	10016f10 <_vfiprintf_r+0xa80>
100166fe:	9805      	ldr	r0, [sp, #20]
10016700:	b02d      	add	sp, #180	@ 0xb4
10016702:	e8bd 8ff0 	ldmia.w	sp!, {r4, r5, r6, r7, r8, r9, sl, fp, pc}
10016706:	2900      	cmp	r1, #0
10016708:	d0f0      	beq.n	100166ec <_vfiprintf_r+0x25c>
1001670a:	2300      	movs	r3, #0
1001670c:	f88d 3037 	strb.w	r3, [sp, #55]	@ 0x37
10016710:	2301      	movs	r3, #1
10016712:	f88d 1048 	strb.w	r1, [sp, #72]	@ 0x48
10016716:	9301      	str	r3, [sp, #4]
10016718:	ac12      	add	r4, sp, #72	@ 0x48
1001671a:	2200      	movs	r2, #0
1001671c:	9203      	str	r2, [sp, #12]
1001671e:	9206      	str	r2, [sp, #24]
10016720:	f018 0784 	ands.w	r7, r8, #132	@ 0x84
10016724:	e9dd 2110 	ldrd	r2, r1, [sp, #64]	@ 0x40
10016728:	d105      	bne.n	10016736 <_vfiprintf_r+0x2a6>
1001672a:	9804      	ldr	r0, [sp, #16]
1001672c:	9d01      	ldr	r5, [sp, #4]
1001672e:	1b45      	subs	r5, r0, r5
10016730:	2d00      	cmp	r5, #0
10016732:	f300 824f 	bgt.w	10016bd4 <_vfiprintf_r+0x744>
10016736:	f89d 0037 	ldrb.w	r0, [sp, #55]	@ 0x37
1001673a:	b180      	cbz	r0, 1001675e <_vfiprintf_r+0x2ce>
1001673c:	3201      	adds	r2, #1
1001673e:	f10d 0037 	add.w	r0, sp, #55	@ 0x37
10016742:	3101      	adds	r1, #1
10016744:	f8ca 0000 	str.w	r0, [sl]
10016748:	2a07      	cmp	r2, #7
1001674a:	f04f 0001 	mov.w	r0, #1
1001674e:	e9cd 2110 	strd	r2, r1, [sp, #64]	@ 0x40
10016752:	f8ca 0004 	str.w	r0, [sl, #4]
10016756:	f300 8277 	bgt.w	10016c48 <_vfiprintf_r+0x7b8>
1001675a:	f10a 0a08 	add.w	sl, sl, #8
1001675e:	9806      	ldr	r0, [sp, #24]
10016760:	b178      	cbz	r0, 10016782 <_vfiprintf_r+0x2f2>
10016762:	3201      	adds	r2, #1
10016764:	a80e      	add	r0, sp, #56	@ 0x38
10016766:	3102      	adds	r1, #2
10016768:	f8ca 0000 	str.w	r0, [sl]
1001676c:	2a07      	cmp	r2, #7
1001676e:	f04f 0002 	mov.w	r0, #2
10016772:	e9cd 2110 	strd	r2, r1, [sp, #64]	@ 0x40
10016776:	f8ca 0004 	str.w	r0, [sl, #4]
1001677a:	f300 8273 	bgt.w	10016c64 <_vfiprintf_r+0x7d4>
1001677e:	f10a 0a08 	add.w	sl, sl, #8
10016782:	2f80      	cmp	r7, #128	@ 0x80
10016784:	f000 819b 	beq.w	10016abe <_vfiprintf_r+0x62e>
10016788:	9803      	ldr	r0, [sp, #12]
1001678a:	1ac5      	subs	r5, r0, r3
1001678c:	2d00      	cmp	r5, #0
1001678e:	f300 81d5 	bgt.w	10016b3c <_vfiprintf_r+0x6ac>
10016792:	3201      	adds	r2, #1
10016794:	4419      	add	r1, r3
10016796:	2a07      	cmp	r2, #7
10016798:	e9cd 2110 	strd	r2, r1, [sp, #64]	@ 0x40
1001679c:	f8ca 4000 	str.w	r4, [sl]
100167a0:	f8ca 3004 	str.w	r3, [sl, #4]
100167a4:	f300 8202 	bgt.w	10016bac <_vfiprintf_r+0x71c>
100167a8:	f10a 0a08 	add.w	sl, sl, #8
100167ac:	f018 0f04 	tst.w	r8, #4
100167b0:	d005      	beq.n	100167be <_vfiprintf_r+0x32e>
100167b2:	9b04      	ldr	r3, [sp, #16]
100167b4:	9a01      	ldr	r2, [sp, #4]
100167b6:	1a9c      	subs	r4, r3, r2
100167b8:	2c00      	cmp	r4, #0
100167ba:	f300 8261 	bgt.w	10016c80 <_vfiprintf_r+0x7f0>
100167be:	e9dd 2304 	ldrd	r2, r3, [sp, #16]
100167c2:	9801      	ldr	r0, [sp, #4]
100167c4:	4282      	cmp	r2, r0
100167c6:	bfac      	ite	ge
100167c8:	189b      	addge	r3, r3, r2
100167ca:	181b      	addlt	r3, r3, r0
100167cc:	9305      	str	r3, [sp, #20]
100167ce:	2900      	cmp	r1, #0
100167d0:	f040 81f7 	bne.w	10016bc2 <_vfiprintf_r+0x732>
100167d4:	2300      	movs	r3, #0
100167d6:	9310      	str	r3, [sp, #64]	@ 0x40
100167d8:	46ca      	mov	sl, r9
100167da:	e68e      	b.n	100164fa <_vfiprintf_r+0x6a>
100167dc:	9a07      	ldr	r2, [sp, #28]
100167de:	f018 0f10 	tst.w	r8, #16
100167e2:	f852 3b04 	ldr.w	r3, [r2], #4
100167e6:	9207      	str	r2, [sp, #28]
100167e8:	d107      	bne.n	100167fa <_vfiprintf_r+0x36a>
100167ea:	f018 0f40 	tst.w	r8, #64	@ 0x40
100167ee:	d004      	beq.n	100167fa <_vfiprintf_r+0x36a>
100167f0:	f343 32c0 	sbfx	r2, r3, #15, #1
100167f4:	4611      	mov	r1, r2
100167f6:	b21b      	sxth	r3, r3
100167f8:	e723      	b.n	10016642 <_vfiprintf_r+0x1b2>
100167fa:	17da      	asrs	r2, r3, #31
100167fc:	4611      	mov	r1, r2
100167fe:	2900      	cmp	r1, #0
10016800:	f6bf af22 	bge.w	10016648 <_vfiprintf_r+0x1b8>
10016804:	9903      	ldr	r1, [sp, #12]
10016806:	425b      	negs	r3, r3
10016808:	eb62 0242 	sbc.w	r2, r2, r2, lsl #1
1001680c:	252d      	movs	r5, #45	@ 0x2d
1001680e:	2900      	cmp	r1, #0
10016810:	f88d 5037 	strb.w	r5, [sp, #55]	@ 0x37
10016814:	db01      	blt.n	1001681a <_vfiprintf_r+0x38a>
10016816:	f028 0880 	bic.w	r8, r8, #128	@ 0x80
1001681a:	2b0a      	cmp	r3, #10
1001681c:	f172 0100 	sbcs.w	r1, r2, #0
10016820:	f080 82f3 	bcs.w	10016e0a <_vfiprintf_r+0x97a>
10016824:	3330      	adds	r3, #48	@ 0x30
10016826:	b2db      	uxtb	r3, r3
10016828:	f88d 306f 	strb.w	r3, [sp, #111]	@ 0x6f
1001682c:	9b03      	ldr	r3, [sp, #12]
1001682e:	2b01      	cmp	r3, #1
10016830:	bfb8      	it	lt
10016832:	2301      	movlt	r3, #1
10016834:	9301      	str	r3, [sp, #4]
10016836:	f10d 046f 	add.w	r4, sp, #111	@ 0x6f
1001683a:	2301      	movs	r3, #1
1001683c:	e716      	b.n	1001666c <_vfiprintf_r+0x1dc>
1001683e:	9b07      	ldr	r3, [sp, #28]
10016840:	f853 2b04 	ldr.w	r2, [r3], #4
10016844:	9204      	str	r2, [sp, #16]
10016846:	2a00      	cmp	r2, #0
10016848:	f280 8288 	bge.w	10016d5c <_vfiprintf_r+0x8cc>
1001684c:	9a04      	ldr	r2, [sp, #16]
1001684e:	9307      	str	r3, [sp, #28]
10016850:	4252      	negs	r2, r2
10016852:	9204      	str	r2, [sp, #16]
10016854:	f89b 1000 	ldrb.w	r1, [fp]
10016858:	f048 0804 	orr.w	r8, r8, #4
1001685c:	e670      	b.n	10016540 <_vfiprintf_r+0xb0>
1001685e:	4658      	mov	r0, fp
10016860:	f810 1b01 	ldrb.w	r1, [r0], #1
10016864:	292a      	cmp	r1, #42	@ 0x2a
10016866:	f000 835a 	beq.w	10016f1e <_vfiprintf_r+0xa8e>
1001686a:	f1a1 0330 	sub.w	r3, r1, #48	@ 0x30
1001686e:	2b09      	cmp	r3, #9
10016870:	bf98      	it	ls
10016872:	2200      	movls	r2, #0
10016874:	f200 8347 	bhi.w	10016f06 <_vfiprintf_r+0xa76>
10016878:	f810 1b01 	ldrb.w	r1, [r0], #1
1001687c:	eb02 0282 	add.w	r2, r2, r2, lsl #2
10016880:	eb03 0242 	add.w	r2, r3, r2, lsl #1
10016884:	f1a1 0330 	sub.w	r3, r1, #48	@ 0x30
10016888:	2b09      	cmp	r3, #9
1001688a:	d9f5      	bls.n	10016878 <_vfiprintf_r+0x3e8>
1001688c:	ea42 73e2 	orr.w	r3, r2, r2, asr #31
10016890:	9303      	str	r3, [sp, #12]
10016892:	4683      	mov	fp, r0
10016894:	e656      	b.n	10016544 <_vfiprintf_r+0xb4>
10016896:	f89b 1000 	ldrb.w	r1, [fp]
1001689a:	f048 0880 	orr.w	r8, r8, #128	@ 0x80
1001689e:	e64f      	b.n	10016540 <_vfiprintf_r+0xb0>
100168a0:	232b      	movs	r3, #43	@ 0x2b
100168a2:	f89b 1000 	ldrb.w	r1, [fp]
100168a6:	f88d 3037 	strb.w	r3, [sp, #55]	@ 0x37
100168aa:	e649      	b.n	10016540 <_vfiprintf_r+0xb0>
100168ac:	f89b 1000 	ldrb.w	r1, [fp]
100168b0:	f048 0801 	orr.w	r8, r8, #1
100168b4:	e644      	b.n	10016540 <_vfiprintf_r+0xb0>
100168b6:	f89d 3037 	ldrb.w	r3, [sp, #55]	@ 0x37
100168ba:	f89b 1000 	ldrb.w	r1, [fp]
100168be:	2b00      	cmp	r3, #0
100168c0:	f47f ae3e 	bne.w	10016540 <_vfiprintf_r+0xb0>
100168c4:	2320      	movs	r3, #32
100168c6:	f88d 3037 	strb.w	r3, [sp, #55]	@ 0x37
100168ca:	e639      	b.n	10016540 <_vfiprintf_r+0xb0>
100168cc:	f018 0f20 	tst.w	r8, #32
100168d0:	f000 824d 	beq.w	10016d6e <_vfiprintf_r+0x8de>
100168d4:	9b07      	ldr	r3, [sp, #28]
100168d6:	9a05      	ldr	r2, [sp, #20]
100168d8:	681b      	ldr	r3, [r3, #0]
100168da:	601a      	str	r2, [r3, #0]
100168dc:	17d2      	asrs	r2, r2, #31
100168de:	605a      	str	r2, [r3, #4]
100168e0:	9b07      	ldr	r3, [sp, #28]
100168e2:	3304      	adds	r3, #4
100168e4:	9307      	str	r3, [sp, #28]
100168e6:	e608      	b.n	100164fa <_vfiprintf_r+0x6a>
100168e8:	f89b 1000 	ldrb.w	r1, [fp]
100168ec:	296c      	cmp	r1, #108	@ 0x6c
100168ee:	bf03      	ittte	eq
100168f0:	f89b 1001 	ldrbeq.w	r1, [fp, #1]
100168f4:	f048 0820 	orreq.w	r8, r8, #32
100168f8:	f10b 0b01 	addeq.w	fp, fp, #1
100168fc:	f048 0810 	orrne.w	r8, r8, #16
10016900:	e61e      	b.n	10016540 <_vfiprintf_r+0xb0>
10016902:	f89b 1000 	ldrb.w	r1, [fp]
10016906:	f048 0840 	orr.w	r8, r8, #64	@ 0x40
1001690a:	e619      	b.n	10016540 <_vfiprintf_r+0xb0>
1001690c:	9b07      	ldr	r3, [sp, #28]
1001690e:	2200      	movs	r2, #0
10016910:	f88d 2037 	strb.w	r2, [sp, #55]	@ 0x37
10016914:	f853 2b04 	ldr.w	r2, [r3], #4
10016918:	9307      	str	r3, [sp, #28]
1001691a:	2301      	movs	r3, #1
1001691c:	f88d 2048 	strb.w	r2, [sp, #72]	@ 0x48
10016920:	9301      	str	r3, [sp, #4]
10016922:	ac12      	add	r4, sp, #72	@ 0x48
10016924:	e6f9      	b.n	1001671a <_vfiprintf_r+0x28a>
10016926:	f048 0110 	orr.w	r1, r8, #16
1001692a:	f011 0220 	ands.w	r2, r1, #32
1001692e:	f000 81de 	beq.w	10016cee <_vfiprintf_r+0x85e>
10016932:	9b07      	ldr	r3, [sp, #28]
10016934:	3307      	adds	r3, #7
10016936:	f023 0307 	bic.w	r3, r3, #7
1001693a:	4618      	mov	r0, r3
1001693c:	685a      	ldr	r2, [r3, #4]
1001693e:	f850 3b08 	ldr.w	r3, [r0], #8
10016942:	9007      	str	r0, [sp, #28]
10016944:	9803      	ldr	r0, [sp, #12]
10016946:	2500      	movs	r5, #0
10016948:	42a8      	cmp	r0, r5
1001694a:	f88d 5037 	strb.w	r5, [sp, #55]	@ 0x37
1001694e:	f2c0 82a7 	blt.w	10016ea0 <_vfiprintf_r+0xa10>
10016952:	2501      	movs	r5, #1
10016954:	ea53 0002 	orrs.w	r0, r3, r2
10016958:	f021 0880 	bic.w	r8, r1, #128	@ 0x80
1001695c:	f040 8094 	bne.w	10016a88 <_vfiprintf_r+0x5f8>
10016960:	9803      	ldr	r0, [sp, #12]
10016962:	2800      	cmp	r0, #0
10016964:	f040 829e 	bne.w	10016ea4 <_vfiprintf_r+0xa14>
10016968:	2d00      	cmp	r5, #0
1001696a:	f040 81f3 	bne.w	10016d54 <_vfiprintf_r+0x8c4>
1001696e:	f011 0301 	ands.w	r3, r1, #1
10016972:	f000 81f8 	beq.w	10016d66 <_vfiprintf_r+0x8d6>
10016976:	2230      	movs	r2, #48	@ 0x30
10016978:	f88d 206f 	strb.w	r2, [sp, #111]	@ 0x6f
1001697c:	9301      	str	r3, [sp, #4]
1001697e:	f10d 046f 	add.w	r4, sp, #111	@ 0x6f
10016982:	e034      	b.n	100169ee <_vfiprintf_r+0x55e>
10016984:	f048 0110 	orr.w	r1, r8, #16
10016988:	f011 0220 	ands.w	r2, r1, #32
1001698c:	f000 81be 	beq.w	10016d0c <_vfiprintf_r+0x87c>
10016990:	9b07      	ldr	r3, [sp, #28]
10016992:	3307      	adds	r3, #7
10016994:	f023 0307 	bic.w	r3, r3, #7
10016998:	4618      	mov	r0, r3
1001699a:	685a      	ldr	r2, [r3, #4]
1001699c:	f850 3b08 	ldr.w	r3, [r0], #8
100169a0:	9007      	str	r0, [sp, #28]
100169a2:	9803      	ldr	r0, [sp, #12]
100169a4:	2500      	movs	r5, #0
100169a6:	42a8      	cmp	r0, r5
100169a8:	f88d 5037 	strb.w	r5, [sp, #55]	@ 0x37
100169ac:	dad2      	bge.n	10016954 <_vfiprintf_r+0x4c4>
100169ae:	4688      	mov	r8, r1
100169b0:	464c      	mov	r4, r9
100169b2:	f003 0107 	and.w	r1, r3, #7
100169b6:	08db      	lsrs	r3, r3, #3
100169b8:	ea43 7342 	orr.w	r3, r3, r2, lsl #29
100169bc:	08d2      	lsrs	r2, r2, #3
100169be:	3130      	adds	r1, #48	@ 0x30
100169c0:	ea53 0502 	orrs.w	r5, r3, r2
100169c4:	4620      	mov	r0, r4
100169c6:	f804 1d01 	strb.w	r1, [r4, #-1]!
100169ca:	d1f2      	bne.n	100169b2 <_vfiprintf_r+0x522>
100169cc:	f018 0f01 	tst.w	r8, #1
100169d0:	d06d      	beq.n	10016aae <_vfiprintf_r+0x61e>
100169d2:	2930      	cmp	r1, #48	@ 0x30
100169d4:	d06b      	beq.n	10016aae <_vfiprintf_r+0x61e>
100169d6:	9a03      	ldr	r2, [sp, #12]
100169d8:	3802      	subs	r0, #2
100169da:	2330      	movs	r3, #48	@ 0x30
100169dc:	f804 3c01 	strb.w	r3, [r4, #-1]
100169e0:	eba9 0300 	sub.w	r3, r9, r0
100169e4:	429a      	cmp	r2, r3
100169e6:	bfb8      	it	lt
100169e8:	461a      	movlt	r2, r3
100169ea:	4604      	mov	r4, r0
100169ec:	9201      	str	r2, [sp, #4]
100169ee:	f018 0202 	ands.w	r2, r8, #2
100169f2:	9206      	str	r2, [sp, #24]
100169f4:	f43f ae94 	beq.w	10016720 <_vfiprintf_r+0x290>
100169f8:	9a01      	ldr	r2, [sp, #4]
100169fa:	3202      	adds	r2, #2
100169fc:	9201      	str	r2, [sp, #4]
100169fe:	2202      	movs	r2, #2
10016a00:	9206      	str	r2, [sp, #24]
10016a02:	e68d      	b.n	10016720 <_vfiprintf_r+0x290>
10016a04:	9d07      	ldr	r5, [sp, #28]
10016a06:	9b03      	ldr	r3, [sp, #12]
10016a08:	f855 4b04 	ldr.w	r4, [r5], #4
10016a0c:	2100      	movs	r1, #0
10016a0e:	f88d 1037 	strb.w	r1, [sp, #55]	@ 0x37
10016a12:	2c00      	cmp	r4, #0
10016a14:	f000 825e 	beq.w	10016ed4 <_vfiprintf_r+0xa44>
10016a18:	2b00      	cmp	r3, #0
10016a1a:	f2c0 81df 	blt.w	10016ddc <_vfiprintf_r+0x94c>
10016a1e:	461a      	mov	r2, r3
10016a20:	4620      	mov	r0, r4
10016a22:	f7fd fa0d 	bl	10013e40 <memchr>
10016a26:	2800      	cmp	r0, #0
10016a28:	f000 826b 	beq.w	10016f02 <_vfiprintf_r+0xa72>
10016a2c:	1b03      	subs	r3, r0, r4
10016a2e:	f89d 2037 	ldrb.w	r2, [sp, #55]	@ 0x37
10016a32:	ea23 71e3 	bic.w	r1, r3, r3, asr #31
10016a36:	9101      	str	r1, [sp, #4]
10016a38:	2a00      	cmp	r2, #0
10016a3a:	f000 8252 	beq.w	10016ee2 <_vfiprintf_r+0xa52>
10016a3e:	2200      	movs	r2, #0
10016a40:	9507      	str	r5, [sp, #28]
10016a42:	9203      	str	r2, [sp, #12]
10016a44:	e615      	b.n	10016672 <_vfiprintf_r+0x1e2>
10016a46:	f89b 1000 	ldrb.w	r1, [fp]
10016a4a:	f048 0820 	orr.w	r8, r8, #32
10016a4e:	e577      	b.n	10016540 <_vfiprintf_r+0xb0>
10016a50:	9a07      	ldr	r2, [sp, #28]
10016a52:	f852 3b04 	ldr.w	r3, [r2], #4
10016a56:	9207      	str	r2, [sp, #28]
10016a58:	f647 0230 	movw	r2, #30768	@ 0x7830
10016a5c:	f8ad 2038 	strh.w	r2, [sp, #56]	@ 0x38
10016a60:	4ab2      	ldr	r2, [pc, #712]	@ (10016d2c <_vfiprintf_r+0x89c>)
10016a62:	9209      	str	r2, [sp, #36]	@ 0x24
10016a64:	f048 0802 	orr.w	r8, r8, #2
10016a68:	2200      	movs	r2, #0
10016a6a:	2100      	movs	r1, #0
10016a6c:	f88d 1037 	strb.w	r1, [sp, #55]	@ 0x37
10016a70:	9903      	ldr	r1, [sp, #12]
10016a72:	2900      	cmp	r1, #0
10016a74:	db0d      	blt.n	10016a92 <_vfiprintf_r+0x602>
10016a76:	4641      	mov	r1, r8
10016a78:	ea53 0002 	orrs.w	r0, r3, r2
10016a7c:	f04f 0502 	mov.w	r5, #2
10016a80:	f021 0880 	bic.w	r8, r1, #128	@ 0x80
10016a84:	f43f af6c 	beq.w	10016960 <_vfiprintf_r+0x4d0>
10016a88:	2d01      	cmp	r5, #1
10016a8a:	f000 8254 	beq.w	10016f36 <_vfiprintf_r+0xaa6>
10016a8e:	2d02      	cmp	r5, #2
10016a90:	d18e      	bne.n	100169b0 <_vfiprintf_r+0x520>
10016a92:	9809      	ldr	r0, [sp, #36]	@ 0x24
10016a94:	464c      	mov	r4, r9
10016a96:	f003 010f 	and.w	r1, r3, #15
10016a9a:	091b      	lsrs	r3, r3, #4
10016a9c:	5c41      	ldrb	r1, [r0, r1]
10016a9e:	f804 1d01 	strb.w	r1, [r4, #-1]!
10016aa2:	ea43 7302 	orr.w	r3, r3, r2, lsl #28
10016aa6:	0912      	lsrs	r2, r2, #4
10016aa8:	ea53 0102 	orrs.w	r1, r3, r2
10016aac:	d1f3      	bne.n	10016a96 <_vfiprintf_r+0x606>
10016aae:	9a03      	ldr	r2, [sp, #12]
10016ab0:	eba9 0304 	sub.w	r3, r9, r4
10016ab4:	429a      	cmp	r2, r3
10016ab6:	bfb8      	it	lt
10016ab8:	461a      	movlt	r2, r3
10016aba:	9201      	str	r2, [sp, #4]
10016abc:	e797      	b.n	100169ee <_vfiprintf_r+0x55e>
10016abe:	9804      	ldr	r0, [sp, #16]
10016ac0:	9d01      	ldr	r5, [sp, #4]
10016ac2:	1b45      	subs	r5, r0, r5
10016ac4:	2d00      	cmp	r5, #0
10016ac6:	f77f ae5f 	ble.w	10016788 <_vfiprintf_r+0x2f8>
10016aca:	2d10      	cmp	r5, #16
10016acc:	4e98      	ldr	r6, [pc, #608]	@ (10016d30 <_vfiprintf_r+0x8a0>)
10016ace:	dd23      	ble.n	10016b18 <_vfiprintf_r+0x688>
10016ad0:	9406      	str	r4, [sp, #24]
10016ad2:	4650      	mov	r0, sl
10016ad4:	9c08      	ldr	r4, [sp, #32]
10016ad6:	2710      	movs	r7, #16
10016ad8:	469a      	mov	sl, r3
10016ada:	e004      	b.n	10016ae6 <_vfiprintf_r+0x656>
10016adc:	3d10      	subs	r5, #16
10016ade:	2d10      	cmp	r5, #16
10016ae0:	f100 0008 	add.w	r0, r0, #8
10016ae4:	dd15      	ble.n	10016b12 <_vfiprintf_r+0x682>
10016ae6:	3201      	adds	r2, #1
10016ae8:	3110      	adds	r1, #16
10016aea:	2a07      	cmp	r2, #7
10016aec:	e9c0 6700 	strd	r6, r7, [r0]
10016af0:	e9cd 2110 	strd	r2, r1, [sp, #64]	@ 0x40
10016af4:	ddf2      	ble.n	10016adc <_vfiprintf_r+0x64c>
10016af6:	9902      	ldr	r1, [sp, #8]
10016af8:	aa0f      	add	r2, sp, #60	@ 0x3c
10016afa:	4620      	mov	r0, r4
10016afc:	f7fe fd52 	bl	100155a4 <__sprint_r>
10016b00:	2800      	cmp	r0, #0
10016b02:	f47f adf7 	bne.w	100166f4 <_vfiprintf_r+0x264>
10016b06:	3d10      	subs	r5, #16
10016b08:	2d10      	cmp	r5, #16
10016b0a:	e9dd 2110 	ldrd	r2, r1, [sp, #64]	@ 0x40
10016b0e:	4648      	mov	r0, r9
10016b10:	dce9      	bgt.n	10016ae6 <_vfiprintf_r+0x656>
10016b12:	9c06      	ldr	r4, [sp, #24]
10016b14:	4653      	mov	r3, sl
10016b16:	4682      	mov	sl, r0
10016b18:	3201      	adds	r2, #1
10016b1a:	4429      	add	r1, r5
10016b1c:	2a07      	cmp	r2, #7
10016b1e:	e9cd 2110 	strd	r2, r1, [sp, #64]	@ 0x40
10016b22:	f8ca 6000 	str.w	r6, [sl]
10016b26:	f8ca 5004 	str.w	r5, [sl, #4]
10016b2a:	f300 81c5 	bgt.w	10016eb8 <_vfiprintf_r+0xa28>
10016b2e:	9803      	ldr	r0, [sp, #12]
10016b30:	1ac5      	subs	r5, r0, r3
10016b32:	2d00      	cmp	r5, #0
10016b34:	f10a 0a08 	add.w	sl, sl, #8
10016b38:	f77f ae2b 	ble.w	10016792 <_vfiprintf_r+0x302>
10016b3c:	2d10      	cmp	r5, #16
10016b3e:	4e7c      	ldr	r6, [pc, #496]	@ (10016d30 <_vfiprintf_r+0x8a0>)
10016b40:	dd26      	ble.n	10016b90 <_vfiprintf_r+0x700>
10016b42:	9403      	str	r4, [sp, #12]
10016b44:	4650      	mov	r0, sl
10016b46:	9c08      	ldr	r4, [sp, #32]
10016b48:	46b2      	mov	sl, r6
10016b4a:	2710      	movs	r7, #16
10016b4c:	461e      	mov	r6, r3
10016b4e:	e004      	b.n	10016b5a <_vfiprintf_r+0x6ca>
10016b50:	3d10      	subs	r5, #16
10016b52:	2d10      	cmp	r5, #16
10016b54:	f100 0008 	add.w	r0, r0, #8
10016b58:	dd16      	ble.n	10016b88 <_vfiprintf_r+0x6f8>
10016b5a:	3201      	adds	r2, #1
10016b5c:	4b74      	ldr	r3, [pc, #464]	@ (10016d30 <_vfiprintf_r+0x8a0>)
10016b5e:	3110      	adds	r1, #16
10016b60:	2a07      	cmp	r2, #7
10016b62:	e9c0 3700 	strd	r3, r7, [r0]
10016b66:	e9cd 2110 	strd	r2, r1, [sp, #64]	@ 0x40
10016b6a:	ddf1      	ble.n	10016b50 <_vfiprintf_r+0x6c0>
10016b6c:	9902      	ldr	r1, [sp, #8]
10016b6e:	aa0f      	add	r2, sp, #60	@ 0x3c
10016b70:	4620      	mov	r0, r4
10016b72:	f7fe fd17 	bl	100155a4 <__sprint_r>
10016b76:	2800      	cmp	r0, #0
10016b78:	f47f adbc 	bne.w	100166f4 <_vfiprintf_r+0x264>
10016b7c:	3d10      	subs	r5, #16
10016b7e:	2d10      	cmp	r5, #16
10016b80:	e9dd 2110 	ldrd	r2, r1, [sp, #64]	@ 0x40
10016b84:	4648      	mov	r0, r9
10016b86:	dce8      	bgt.n	10016b5a <_vfiprintf_r+0x6ca>
10016b88:	9c03      	ldr	r4, [sp, #12]
10016b8a:	4633      	mov	r3, r6
10016b8c:	4656      	mov	r6, sl
10016b8e:	4682      	mov	sl, r0
10016b90:	3201      	adds	r2, #1
10016b92:	4429      	add	r1, r5
10016b94:	2a07      	cmp	r2, #7
10016b96:	e9cd 2110 	strd	r2, r1, [sp, #64]	@ 0x40
10016b9a:	f8ca 6000 	str.w	r6, [sl]
10016b9e:	f8ca 5004 	str.w	r5, [sl, #4]
10016ba2:	f300 80c9 	bgt.w	10016d38 <_vfiprintf_r+0x8a8>
10016ba6:	f10a 0a08 	add.w	sl, sl, #8
10016baa:	e5f2      	b.n	10016792 <_vfiprintf_r+0x302>
10016bac:	9902      	ldr	r1, [sp, #8]
10016bae:	9808      	ldr	r0, [sp, #32]
10016bb0:	aa0f      	add	r2, sp, #60	@ 0x3c
10016bb2:	f7fe fcf7 	bl	100155a4 <__sprint_r>
10016bb6:	2800      	cmp	r0, #0
10016bb8:	f47f ad9c 	bne.w	100166f4 <_vfiprintf_r+0x264>
10016bbc:	9911      	ldr	r1, [sp, #68]	@ 0x44
10016bbe:	46ca      	mov	sl, r9
10016bc0:	e5f4      	b.n	100167ac <_vfiprintf_r+0x31c>
10016bc2:	9902      	ldr	r1, [sp, #8]
10016bc4:	9808      	ldr	r0, [sp, #32]
10016bc6:	aa0f      	add	r2, sp, #60	@ 0x3c
10016bc8:	f7fe fcec 	bl	100155a4 <__sprint_r>
10016bcc:	2800      	cmp	r0, #0
10016bce:	f43f ae01 	beq.w	100167d4 <_vfiprintf_r+0x344>
10016bd2:	e58f      	b.n	100166f4 <_vfiprintf_r+0x264>
10016bd4:	2d10      	cmp	r5, #16
10016bd6:	4e57      	ldr	r6, [pc, #348]	@ (10016d34 <_vfiprintf_r+0x8a4>)
10016bd8:	dd28      	ble.n	10016c2c <_vfiprintf_r+0x79c>
10016bda:	e9cd 740a 	strd	r7, r4, [sp, #40]	@ 0x28
10016bde:	4650      	mov	r0, sl
10016be0:	4637      	mov	r7, r6
10016be2:	9c08      	ldr	r4, [sp, #32]
10016be4:	9e02      	ldr	r6, [sp, #8]
10016be6:	469a      	mov	sl, r3
10016be8:	e004      	b.n	10016bf4 <_vfiprintf_r+0x764>
10016bea:	3d10      	subs	r5, #16
10016bec:	2d10      	cmp	r5, #16
10016bee:	f100 0008 	add.w	r0, r0, #8
10016bf2:	dd16      	ble.n	10016c22 <_vfiprintf_r+0x792>
10016bf4:	3201      	adds	r2, #1
10016bf6:	3110      	adds	r1, #16
10016bf8:	2310      	movs	r3, #16
10016bfa:	2a07      	cmp	r2, #7
10016bfc:	e9cd 2110 	strd	r2, r1, [sp, #64]	@ 0x40
10016c00:	6007      	str	r7, [r0, #0]
10016c02:	6043      	str	r3, [r0, #4]
10016c04:	ddf1      	ble.n	10016bea <_vfiprintf_r+0x75a>
10016c06:	aa0f      	add	r2, sp, #60	@ 0x3c
10016c08:	4631      	mov	r1, r6
10016c0a:	4620      	mov	r0, r4
10016c0c:	f7fe fcca 	bl	100155a4 <__sprint_r>
10016c10:	2800      	cmp	r0, #0
10016c12:	f47f ad6f 	bne.w	100166f4 <_vfiprintf_r+0x264>
10016c16:	3d10      	subs	r5, #16
10016c18:	2d10      	cmp	r5, #16
10016c1a:	e9dd 2110 	ldrd	r2, r1, [sp, #64]	@ 0x40
10016c1e:	4648      	mov	r0, r9
10016c20:	dce8      	bgt.n	10016bf4 <_vfiprintf_r+0x764>
10016c22:	463e      	mov	r6, r7
10016c24:	9c0b      	ldr	r4, [sp, #44]	@ 0x2c
10016c26:	9f0a      	ldr	r7, [sp, #40]	@ 0x28
10016c28:	4653      	mov	r3, sl
10016c2a:	4682      	mov	sl, r0
10016c2c:	3201      	adds	r2, #1
10016c2e:	4429      	add	r1, r5
10016c30:	2a07      	cmp	r2, #7
10016c32:	e9cd 2110 	strd	r2, r1, [sp, #64]	@ 0x40
10016c36:	f8ca 6000 	str.w	r6, [sl]
10016c3a:	f8ca 5004 	str.w	r5, [sl, #4]
10016c3e:	f300 8121 	bgt.w	10016e84 <_vfiprintf_r+0x9f4>
10016c42:	f10a 0a08 	add.w	sl, sl, #8
10016c46:	e576      	b.n	10016736 <_vfiprintf_r+0x2a6>
10016c48:	9902      	ldr	r1, [sp, #8]
10016c4a:	9808      	ldr	r0, [sp, #32]
10016c4c:	930a      	str	r3, [sp, #40]	@ 0x28
10016c4e:	aa0f      	add	r2, sp, #60	@ 0x3c
10016c50:	f7fe fca8 	bl	100155a4 <__sprint_r>
10016c54:	2800      	cmp	r0, #0
10016c56:	f47f ad4d 	bne.w	100166f4 <_vfiprintf_r+0x264>
10016c5a:	e9dd 2110 	ldrd	r2, r1, [sp, #64]	@ 0x40
10016c5e:	9b0a      	ldr	r3, [sp, #40]	@ 0x28
10016c60:	46ca      	mov	sl, r9
10016c62:	e57c      	b.n	1001675e <_vfiprintf_r+0x2ce>
10016c64:	9902      	ldr	r1, [sp, #8]
10016c66:	9808      	ldr	r0, [sp, #32]
10016c68:	9306      	str	r3, [sp, #24]
10016c6a:	aa0f      	add	r2, sp, #60	@ 0x3c
10016c6c:	f7fe fc9a 	bl	100155a4 <__sprint_r>
10016c70:	2800      	cmp	r0, #0
10016c72:	f47f ad3f 	bne.w	100166f4 <_vfiprintf_r+0x264>
10016c76:	e9dd 2110 	ldrd	r2, r1, [sp, #64]	@ 0x40
10016c7a:	9b06      	ldr	r3, [sp, #24]
10016c7c:	46ca      	mov	sl, r9
10016c7e:	e580      	b.n	10016782 <_vfiprintf_r+0x2f2>
10016c80:	2c10      	cmp	r4, #16
10016c82:	9b10      	ldr	r3, [sp, #64]	@ 0x40
10016c84:	4e2b      	ldr	r6, [pc, #172]	@ (10016d34 <_vfiprintf_r+0x8a4>)
10016c86:	dd1f      	ble.n	10016cc8 <_vfiprintf_r+0x838>
10016c88:	9f08      	ldr	r7, [sp, #32]
10016c8a:	f8dd 8008 	ldr.w	r8, [sp, #8]
10016c8e:	2510      	movs	r5, #16
10016c90:	e004      	b.n	10016c9c <_vfiprintf_r+0x80c>
10016c92:	3c10      	subs	r4, #16
10016c94:	2c10      	cmp	r4, #16
10016c96:	f10a 0a08 	add.w	sl, sl, #8
10016c9a:	dd15      	ble.n	10016cc8 <_vfiprintf_r+0x838>
10016c9c:	3301      	adds	r3, #1
10016c9e:	3110      	adds	r1, #16
10016ca0:	2b07      	cmp	r3, #7
10016ca2:	e9ca 6500 	strd	r6, r5, [sl]
10016ca6:	e9cd 3110 	strd	r3, r1, [sp, #64]	@ 0x40
10016caa:	ddf2      	ble.n	10016c92 <_vfiprintf_r+0x802>
10016cac:	aa0f      	add	r2, sp, #60	@ 0x3c
10016cae:	4641      	mov	r1, r8
10016cb0:	4638      	mov	r0, r7
10016cb2:	f7fe fc77 	bl	100155a4 <__sprint_r>
10016cb6:	2800      	cmp	r0, #0
10016cb8:	f47f ad1c 	bne.w	100166f4 <_vfiprintf_r+0x264>
10016cbc:	3c10      	subs	r4, #16
10016cbe:	2c10      	cmp	r4, #16
10016cc0:	e9dd 3110 	ldrd	r3, r1, [sp, #64]	@ 0x40
10016cc4:	46ca      	mov	sl, r9
10016cc6:	dce9      	bgt.n	10016c9c <_vfiprintf_r+0x80c>
10016cc8:	3301      	adds	r3, #1
10016cca:	4421      	add	r1, r4
10016ccc:	2b07      	cmp	r3, #7
10016cce:	e9ca 6400 	strd	r6, r4, [sl]
10016cd2:	e9cd 3110 	strd	r3, r1, [sp, #64]	@ 0x40
10016cd6:	f77f ad72 	ble.w	100167be <_vfiprintf_r+0x32e>
10016cda:	9902      	ldr	r1, [sp, #8]
10016cdc:	9808      	ldr	r0, [sp, #32]
10016cde:	aa0f      	add	r2, sp, #60	@ 0x3c
10016ce0:	f7fe fc60 	bl	100155a4 <__sprint_r>
10016ce4:	2800      	cmp	r0, #0
10016ce6:	f47f ad05 	bne.w	100166f4 <_vfiprintf_r+0x264>
10016cea:	9911      	ldr	r1, [sp, #68]	@ 0x44
10016cec:	e567      	b.n	100167be <_vfiprintf_r+0x32e>
10016cee:	9807      	ldr	r0, [sp, #28]
10016cf0:	f850 3b04 	ldr.w	r3, [r0], #4
10016cf4:	9007      	str	r0, [sp, #28]
10016cf6:	f011 0010 	ands.w	r0, r1, #16
10016cfa:	f47f ae23 	bne.w	10016944 <_vfiprintf_r+0x4b4>
10016cfe:	f011 0240 	ands.w	r2, r1, #64	@ 0x40
10016d02:	f43f ae1f 	beq.w	10016944 <_vfiprintf_r+0x4b4>
10016d06:	b29b      	uxth	r3, r3
10016d08:	4602      	mov	r2, r0
10016d0a:	e61b      	b.n	10016944 <_vfiprintf_r+0x4b4>
10016d0c:	9807      	ldr	r0, [sp, #28]
10016d0e:	f850 3b04 	ldr.w	r3, [r0], #4
10016d12:	9007      	str	r0, [sp, #28]
10016d14:	f011 0010 	ands.w	r0, r1, #16
10016d18:	f47f ae43 	bne.w	100169a2 <_vfiprintf_r+0x512>
10016d1c:	f011 0240 	ands.w	r2, r1, #64	@ 0x40
10016d20:	f43f ae3f 	beq.w	100169a2 <_vfiprintf_r+0x512>
10016d24:	b29b      	uxth	r3, r3
10016d26:	4602      	mov	r2, r0
10016d28:	e63b      	b.n	100169a2 <_vfiprintf_r+0x512>
10016d2a:	bf00      	nop
10016d2c:	100180c4 	.word	0x100180c4
10016d30:	1001a4c8 	.word	0x1001a4c8
10016d34:	1001a4b8 	.word	0x1001a4b8
10016d38:	9902      	ldr	r1, [sp, #8]
10016d3a:	9808      	ldr	r0, [sp, #32]
10016d3c:	9303      	str	r3, [sp, #12]
10016d3e:	aa0f      	add	r2, sp, #60	@ 0x3c
10016d40:	f7fe fc30 	bl	100155a4 <__sprint_r>
10016d44:	2800      	cmp	r0, #0
10016d46:	f47f acd5 	bne.w	100166f4 <_vfiprintf_r+0x264>
10016d4a:	e9dd 2110 	ldrd	r2, r1, [sp, #64]	@ 0x40
10016d4e:	9b03      	ldr	r3, [sp, #12]
10016d50:	46ca      	mov	sl, r9
10016d52:	e51e      	b.n	10016792 <_vfiprintf_r+0x302>
10016d54:	9b03      	ldr	r3, [sp, #12]
10016d56:	9301      	str	r3, [sp, #4]
10016d58:	464c      	mov	r4, r9
10016d5a:	e648      	b.n	100169ee <_vfiprintf_r+0x55e>
10016d5c:	f89b 1000 	ldrb.w	r1, [fp]
10016d60:	9307      	str	r3, [sp, #28]
10016d62:	f7ff bbed 	b.w	10016540 <_vfiprintf_r+0xb0>
10016d66:	9a03      	ldr	r2, [sp, #12]
10016d68:	9201      	str	r2, [sp, #4]
10016d6a:	464c      	mov	r4, r9
10016d6c:	e63f      	b.n	100169ee <_vfiprintf_r+0x55e>
10016d6e:	f018 0f10 	tst.w	r8, #16
10016d72:	d138      	bne.n	10016de6 <_vfiprintf_r+0x956>
10016d74:	f018 0f40 	tst.w	r8, #64	@ 0x40
10016d78:	d035      	beq.n	10016de6 <_vfiprintf_r+0x956>
10016d7a:	9b07      	ldr	r3, [sp, #28]
10016d7c:	9a05      	ldr	r2, [sp, #20]
10016d7e:	681b      	ldr	r3, [r3, #0]
10016d80:	801a      	strh	r2, [r3, #0]
10016d82:	e5ad      	b.n	100168e0 <_vfiprintf_r+0x450>
10016d84:	4641      	mov	r1, r8
10016d86:	e5d0      	b.n	1001692a <_vfiprintf_r+0x49a>
10016d88:	4641      	mov	r1, r8
10016d8a:	e5fd      	b.n	10016988 <_vfiprintf_r+0x4f8>
10016d8c:	4b6b      	ldr	r3, [pc, #428]	@ (10016f3c <_vfiprintf_r+0xaac>)
10016d8e:	9309      	str	r3, [sp, #36]	@ 0x24
10016d90:	f018 0220 	ands.w	r2, r8, #32
10016d94:	d02c      	beq.n	10016df0 <_vfiprintf_r+0x960>
10016d96:	9b07      	ldr	r3, [sp, #28]
10016d98:	3307      	adds	r3, #7
10016d9a:	f023 0307 	bic.w	r3, r3, #7
10016d9e:	4618      	mov	r0, r3
10016da0:	685a      	ldr	r2, [r3, #4]
10016da2:	f850 3b08 	ldr.w	r3, [r0], #8
10016da6:	9007      	str	r0, [sp, #28]
10016da8:	f018 0f01 	tst.w	r8, #1
10016dac:	f43f ae5d 	beq.w	10016a6a <_vfiprintf_r+0x5da>
10016db0:	ea53 0002 	orrs.w	r0, r3, r2
10016db4:	f43f ae59 	beq.w	10016a6a <_vfiprintf_r+0x5da>
10016db8:	f88d 1039 	strb.w	r1, [sp, #57]	@ 0x39
10016dbc:	2130      	movs	r1, #48	@ 0x30
10016dbe:	f88d 1038 	strb.w	r1, [sp, #56]	@ 0x38
10016dc2:	2100      	movs	r1, #0
10016dc4:	f88d 1037 	strb.w	r1, [sp, #55]	@ 0x37
10016dc8:	9903      	ldr	r1, [sp, #12]
10016dca:	2900      	cmp	r1, #0
10016dcc:	f280 808d 	bge.w	10016eea <_vfiprintf_r+0xa5a>
10016dd0:	f048 0802 	orr.w	r8, r8, #2
10016dd4:	e65d      	b.n	10016a92 <_vfiprintf_r+0x602>
10016dd6:	4b5a      	ldr	r3, [pc, #360]	@ (10016f40 <_vfiprintf_r+0xab0>)
10016dd8:	9309      	str	r3, [sp, #36]	@ 0x24
10016dda:	e7d9      	b.n	10016d90 <_vfiprintf_r+0x900>
10016ddc:	4620      	mov	r0, r4
10016dde:	f7fa fa8f 	bl	10011300 <strlen>
10016de2:	4603      	mov	r3, r0
10016de4:	e623      	b.n	10016a2e <_vfiprintf_r+0x59e>
10016de6:	9b07      	ldr	r3, [sp, #28]
10016de8:	9a05      	ldr	r2, [sp, #20]
10016dea:	681b      	ldr	r3, [r3, #0]
10016dec:	601a      	str	r2, [r3, #0]
10016dee:	e577      	b.n	100168e0 <_vfiprintf_r+0x450>
10016df0:	9807      	ldr	r0, [sp, #28]
10016df2:	f850 3b04 	ldr.w	r3, [r0], #4
10016df6:	9007      	str	r0, [sp, #28]
10016df8:	f018 0010 	ands.w	r0, r8, #16
10016dfc:	d1d4      	bne.n	10016da8 <_vfiprintf_r+0x918>
10016dfe:	f018 0240 	ands.w	r2, r8, #64	@ 0x40
10016e02:	bf1c      	itt	ne
10016e04:	b29b      	uxthne	r3, r3
10016e06:	4602      	movne	r2, r0
10016e08:	e7ce      	b.n	10016da8 <_vfiprintf_r+0x918>
10016e0a:	4e4e      	ldr	r6, [pc, #312]	@ (10016f44 <_vfiprintf_r+0xab4>)
10016e0c:	f8cd a004 	str.w	sl, [sp, #4]
10016e10:	464c      	mov	r4, r9
10016e12:	f04f 0e05 	mov.w	lr, #5
10016e16:	1899      	adds	r1, r3, r2
10016e18:	f141 0100 	adc.w	r1, r1, #0
10016e1c:	fba6 0701 	umull	r0, r7, r6, r1
10016e20:	f027 0003 	bic.w	r0, r7, #3
10016e24:	eb00 0097 	add.w	r0, r0, r7, lsr #2
10016e28:	1a09      	subs	r1, r1, r0
10016e2a:	1a58      	subs	r0, r3, r1
10016e2c:	469a      	mov	sl, r3
10016e2e:	4694      	mov	ip, r2
10016e30:	f162 0300 	sbc.w	r3, r2, #0
10016e34:	f04f 32cc 	mov.w	r2, #3435973836	@ 0xcccccccc
10016e38:	fb02 f200 	mul.w	r2, r2, r0
10016e3c:	fb06 2203 	mla	r2, r6, r3, r2
10016e40:	fba0 3006 	umull	r3, r0, r0, r6
10016e44:	f003 0701 	and.w	r7, r3, #1
10016e48:	4402      	add	r2, r0
10016e4a:	fba7 070e 	umull	r0, r7, r7, lr
10016e4e:	1840      	adds	r0, r0, r1
10016e50:	f1ba 0f0a 	cmp.w	sl, #10
10016e54:	ea4f 0353 	mov.w	r3, r3, lsr #1
10016e58:	f100 0030 	add.w	r0, r0, #48	@ 0x30
10016e5c:	f17c 0c00 	sbcs.w	ip, ip, #0
10016e60:	ea43 73c2 	orr.w	r3, r3, r2, lsl #31
10016e64:	f804 0d01 	strb.w	r0, [r4, #-1]!
10016e68:	ea4f 0252 	mov.w	r2, r2, lsr #1
10016e6c:	d2d3      	bcs.n	10016e16 <_vfiprintf_r+0x986>
10016e6e:	9a03      	ldr	r2, [sp, #12]
10016e70:	f8dd a004 	ldr.w	sl, [sp, #4]
10016e74:	eba9 0304 	sub.w	r3, r9, r4
10016e78:	429a      	cmp	r2, r3
10016e7a:	bfb8      	it	lt
10016e7c:	461a      	movlt	r2, r3
10016e7e:	9201      	str	r2, [sp, #4]
10016e80:	f7ff bbf4 	b.w	1001666c <_vfiprintf_r+0x1dc>
10016e84:	9902      	ldr	r1, [sp, #8]
10016e86:	9808      	ldr	r0, [sp, #32]
10016e88:	930a      	str	r3, [sp, #40]	@ 0x28
10016e8a:	aa0f      	add	r2, sp, #60	@ 0x3c
10016e8c:	f7fe fb8a 	bl	100155a4 <__sprint_r>
10016e90:	2800      	cmp	r0, #0
10016e92:	f47f ac2f 	bne.w	100166f4 <_vfiprintf_r+0x264>
10016e96:	e9dd 2110 	ldrd	r2, r1, [sp, #64]	@ 0x40
10016e9a:	9b0a      	ldr	r3, [sp, #40]	@ 0x28
10016e9c:	46ca      	mov	sl, r9
10016e9e:	e44a      	b.n	10016736 <_vfiprintf_r+0x2a6>
10016ea0:	4688      	mov	r8, r1
10016ea2:	e4ba      	b.n	1001681a <_vfiprintf_r+0x38a>
10016ea4:	2d01      	cmp	r5, #1
10016ea6:	f47f adf2 	bne.w	10016a8e <_vfiprintf_r+0x5fe>
10016eaa:	2500      	movs	r5, #0
10016eac:	2330      	movs	r3, #48	@ 0x30
10016eae:	e4bb      	b.n	10016828 <_vfiprintf_r+0x398>
10016eb0:	f7fb fa68 	bl	10012384 <__sinit>
10016eb4:	f7ff baf9 	b.w	100164aa <_vfiprintf_r+0x1a>
10016eb8:	9902      	ldr	r1, [sp, #8]
10016eba:	9808      	ldr	r0, [sp, #32]
10016ebc:	9306      	str	r3, [sp, #24]
10016ebe:	aa0f      	add	r2, sp, #60	@ 0x3c
10016ec0:	f7fe fb70 	bl	100155a4 <__sprint_r>
10016ec4:	2800      	cmp	r0, #0
10016ec6:	f47f ac15 	bne.w	100166f4 <_vfiprintf_r+0x264>
10016eca:	e9dd 2110 	ldrd	r2, r1, [sp, #64]	@ 0x40
10016ece:	9b06      	ldr	r3, [sp, #24]
10016ed0:	46ca      	mov	sl, r9
10016ed2:	e459      	b.n	10016788 <_vfiprintf_r+0x2f8>
10016ed4:	2b06      	cmp	r3, #6
10016ed6:	bf28      	it	cs
10016ed8:	2306      	movcs	r3, #6
10016eda:	4c1b      	ldr	r4, [pc, #108]	@ (10016f48 <_vfiprintf_r+0xab8>)
10016edc:	9507      	str	r5, [sp, #28]
10016ede:	9301      	str	r3, [sp, #4]
10016ee0:	e41b      	b.n	1001671a <_vfiprintf_r+0x28a>
10016ee2:	e9cd 2506 	strd	r2, r5, [sp, #24]
10016ee6:	9203      	str	r2, [sp, #12]
10016ee8:	e41a      	b.n	10016720 <_vfiprintf_r+0x290>
10016eea:	f028 0180 	bic.w	r1, r8, #128	@ 0x80
10016eee:	f041 0802 	orr.w	r8, r1, #2
10016ef2:	e5ce      	b.n	10016a92 <_vfiprintf_r+0x602>
10016ef4:	9902      	ldr	r1, [sp, #8]
10016ef6:	9808      	ldr	r0, [sp, #32]
10016ef8:	aa0f      	add	r2, sp, #60	@ 0x3c
10016efa:	f7fe fb53 	bl	100155a4 <__sprint_r>
10016efe:	f7ff bbf9 	b.w	100166f4 <_vfiprintf_r+0x264>
10016f02:	9b03      	ldr	r3, [sp, #12]
10016f04:	e593      	b.n	10016a2e <_vfiprintf_r+0x59e>
10016f06:	2300      	movs	r3, #0
10016f08:	4683      	mov	fp, r0
10016f0a:	9303      	str	r3, [sp, #12]
10016f0c:	f7ff bb1a 	b.w	10016544 <_vfiprintf_r+0xb4>
10016f10:	f04f 33ff 	mov.w	r3, #4294967295	@ 0xffffffff
10016f14:	9305      	str	r3, [sp, #20]
10016f16:	f7ff bbf2 	b.w	100166fe <_vfiprintf_r+0x26e>
10016f1a:	2330      	movs	r3, #48	@ 0x30
10016f1c:	e484      	b.n	10016828 <_vfiprintf_r+0x398>
10016f1e:	9b07      	ldr	r3, [sp, #28]
10016f20:	f89b 1001 	ldrb.w	r1, [fp, #1]
10016f24:	f853 2b04 	ldr.w	r2, [r3], #4
10016f28:	9307      	str	r3, [sp, #28]
10016f2a:	ea42 72e2 	orr.w	r2, r2, r2, asr #31
10016f2e:	4683      	mov	fp, r0
10016f30:	9203      	str	r2, [sp, #12]
10016f32:	f7ff bb05 	b.w	10016540 <_vfiprintf_r+0xb0>
10016f36:	2500      	movs	r5, #0
10016f38:	e46f      	b.n	1001681a <_vfiprintf_r+0x38a>
10016f3a:	bf00      	nop
10016f3c:	100180b0 	.word	0x100180b0
10016f40:	100180c4 	.word	0x100180c4
10016f44:	cccccccd 	.word	0xcccccccd
10016f48:	100180d8 	.word	0x100180d8

10016f4c <vfiprintf>:
10016f4c:	b410      	push	{r4}
10016f4e:	4c04      	ldr	r4, [pc, #16]	@ (10016f60 <vfiprintf+0x14>)
10016f50:	4684      	mov	ip, r0
10016f52:	4613      	mov	r3, r2
10016f54:	6820      	ldr	r0, [r4, #0]
10016f56:	bc10      	pop	{r4}
10016f58:	460a      	mov	r2, r1
10016f5a:	4661      	mov	r1, ip
10016f5c:	f7ff ba98 	b.w	10016490 <_vfiprintf_r>
10016f60:	20000010 	.word	0x20000010

10016f64 <__sbprintf>:
10016f64:	b570      	push	{r4, r5, r6, lr}
10016f66:	460c      	mov	r4, r1
10016f68:	8989      	ldrh	r1, [r1, #12]
10016f6a:	f5ad 6d8d 	sub.w	sp, sp, #1128	@ 0x468
10016f6e:	f021 0102 	bic.w	r1, r1, #2
10016f72:	f8ad 100c 	strh.w	r1, [sp, #12]
10016f76:	a91a      	add	r1, sp, #104	@ 0x68
10016f78:	9100      	str	r1, [sp, #0]
10016f7a:	9104      	str	r1, [sp, #16]
10016f7c:	f44f 6180 	mov.w	r1, #1024	@ 0x400
10016f80:	9102      	str	r1, [sp, #8]
10016f82:	9105      	str	r1, [sp, #20]
10016f84:	6e61      	ldr	r1, [r4, #100]	@ 0x64
10016f86:	9119      	str	r1, [sp, #100]	@ 0x64
10016f88:	89e1      	ldrh	r1, [r4, #14]
10016f8a:	f8ad 100e 	strh.w	r1, [sp, #14]
10016f8e:	69e1      	ldr	r1, [r4, #28]
10016f90:	9107      	str	r1, [sp, #28]
10016f92:	6a61      	ldr	r1, [r4, #36]	@ 0x24
10016f94:	9109      	str	r1, [sp, #36]	@ 0x24
10016f96:	2100      	movs	r1, #0
10016f98:	9106      	str	r1, [sp, #24]
10016f9a:	4669      	mov	r1, sp
10016f9c:	4606      	mov	r6, r0
10016f9e:	f7ff fa77 	bl	10016490 <_vfiprintf_r>
10016fa2:	1e05      	subs	r5, r0, #0
10016fa4:	db07      	blt.n	10016fb6 <__sbprintf+0x52>
10016fa6:	4669      	mov	r1, sp
10016fa8:	4630      	mov	r0, r6
10016faa:	f7fa fafb 	bl	100115a4 <_fflush_r>
10016fae:	2800      	cmp	r0, #0
10016fb0:	bf18      	it	ne
10016fb2:	f04f 35ff 	movne.w	r5, #4294967295	@ 0xffffffff
10016fb6:	f8bd 300c 	ldrh.w	r3, [sp, #12]
10016fba:	065b      	lsls	r3, r3, #25
10016fbc:	d503      	bpl.n	10016fc6 <__sbprintf+0x62>
10016fbe:	89a3      	ldrh	r3, [r4, #12]
10016fc0:	f043 0340 	orr.w	r3, r3, #64	@ 0x40
10016fc4:	81a3      	strh	r3, [r4, #12]
10016fc6:	4628      	mov	r0, r5
10016fc8:	f50d 6d8d 	add.w	sp, sp, #1128	@ 0x468
10016fcc:	bd70      	pop	{r4, r5, r6, pc}
10016fce:	bf00      	nop

10016fd0 <_exit>:
10016fd0:	e7fe      	b.n	10016fd0 <_exit>
10016fd2:	bf00      	nop

10016fd4 <__aeabi_drsub>:
10016fd4:	f081 4100 	eor.w	r1, r1, #2147483648	@ 0x80000000
10016fd8:	e002      	b.n	10016fe0 <__adddf3>
10016fda:	bf00      	nop

10016fdc <__aeabi_dsub>:
10016fdc:	f083 4300 	eor.w	r3, r3, #2147483648	@ 0x80000000

10016fe0 <__adddf3>:
10016fe0:	b530      	push	{r4, r5, lr}
10016fe2:	ea4f 0441 	mov.w	r4, r1, lsl #1
10016fe6:	ea4f 0543 	mov.w	r5, r3, lsl #1
10016fea:	ea94 0f05 	teq	r4, r5
10016fee:	bf08      	it	eq
10016ff0:	ea90 0f02 	teqeq	r0, r2
10016ff4:	bf1f      	itttt	ne
10016ff6:	ea54 0c00 	orrsne.w	ip, r4, r0
10016ffa:	ea55 0c02 	orrsne.w	ip, r5, r2
10016ffe:	ea7f 5c64 	mvnsne.w	ip, r4, asr #21
10017002:	ea7f 5c65 	mvnsne.w	ip, r5, asr #21
10017006:	f000 80e2 	beq.w	100171ce <__adddf3+0x1ee>
1001700a:	ea4f 5454 	mov.w	r4, r4, lsr #21
1001700e:	ebd4 5555 	rsbs	r5, r4, r5, lsr #21
10017012:	bfb8      	it	lt
10017014:	426d      	neglt	r5, r5
10017016:	dd0c      	ble.n	10017032 <__adddf3+0x52>
10017018:	442c      	add	r4, r5
1001701a:	ea80 0202 	eor.w	r2, r0, r2
1001701e:	ea81 0303 	eor.w	r3, r1, r3
10017022:	ea82 0000 	eor.w	r0, r2, r0
10017026:	ea83 0101 	eor.w	r1, r3, r1
1001702a:	ea80 0202 	eor.w	r2, r0, r2
1001702e:	ea81 0303 	eor.w	r3, r1, r3
10017032:	2d36      	cmp	r5, #54	@ 0x36
10017034:	bf88      	it	hi
10017036:	bd30      	pophi	{r4, r5, pc}
10017038:	f011 4f00 	tst.w	r1, #2147483648	@ 0x80000000
1001703c:	ea4f 3101 	mov.w	r1, r1, lsl #12
10017040:	f44f 1c80 	mov.w	ip, #1048576	@ 0x100000
10017044:	ea4c 3111 	orr.w	r1, ip, r1, lsr #12
10017048:	d002      	beq.n	10017050 <__adddf3+0x70>
1001704a:	4240      	negs	r0, r0
1001704c:	eb61 0141 	sbc.w	r1, r1, r1, lsl #1
10017050:	f013 4f00 	tst.w	r3, #2147483648	@ 0x80000000
10017054:	ea4f 3303 	mov.w	r3, r3, lsl #12
10017058:	ea4c 3313 	orr.w	r3, ip, r3, lsr #12
1001705c:	d002      	beq.n	10017064 <__adddf3+0x84>
1001705e:	4252      	negs	r2, r2
10017060:	eb63 0343 	sbc.w	r3, r3, r3, lsl #1
10017064:	ea94 0f05 	teq	r4, r5
10017068:	f000 80a7 	beq.w	100171ba <__adddf3+0x1da>
1001706c:	f1a4 0401 	sub.w	r4, r4, #1
10017070:	f1d5 0e20 	rsbs	lr, r5, #32
10017074:	db0d      	blt.n	10017092 <__adddf3+0xb2>
10017076:	fa02 fc0e 	lsl.w	ip, r2, lr
1001707a:	fa22 f205 	lsr.w	r2, r2, r5
1001707e:	1880      	adds	r0, r0, r2
10017080:	f141 0100 	adc.w	r1, r1, #0
10017084:	fa03 f20e 	lsl.w	r2, r3, lr
10017088:	1880      	adds	r0, r0, r2
1001708a:	fa43 f305 	asr.w	r3, r3, r5
1001708e:	4159      	adcs	r1, r3
10017090:	e00e      	b.n	100170b0 <__adddf3+0xd0>
10017092:	f1a5 0520 	sub.w	r5, r5, #32
10017096:	f10e 0e20 	add.w	lr, lr, #32
1001709a:	2a01      	cmp	r2, #1
1001709c:	fa03 fc0e 	lsl.w	ip, r3, lr
100170a0:	bf28      	it	cs
100170a2:	f04c 0c02 	orrcs.w	ip, ip, #2
100170a6:	fa43 f305 	asr.w	r3, r3, r5
100170aa:	18c0      	adds	r0, r0, r3
100170ac:	eb51 71e3 	adcs.w	r1, r1, r3, asr #31
100170b0:	f001 4500 	and.w	r5, r1, #2147483648	@ 0x80000000
100170b4:	d507      	bpl.n	100170c6 <__adddf3+0xe6>
100170b6:	f04f 0e00 	mov.w	lr, #0
100170ba:	f1dc 0c00 	rsbs	ip, ip, #0
100170be:	eb7e 0000 	sbcs.w	r0, lr, r0
100170c2:	eb6e 0101 	sbc.w	r1, lr, r1
100170c6:	f5b1 1f80 	cmp.w	r1, #1048576	@ 0x100000
100170ca:	d31b      	bcc.n	10017104 <__adddf3+0x124>
100170cc:	f5b1 1f00 	cmp.w	r1, #2097152	@ 0x200000
100170d0:	d30c      	bcc.n	100170ec <__adddf3+0x10c>
100170d2:	0849      	lsrs	r1, r1, #1
100170d4:	ea5f 0030 	movs.w	r0, r0, rrx
100170d8:	ea4f 0c3c 	mov.w	ip, ip, rrx
100170dc:	f104 0401 	add.w	r4, r4, #1
100170e0:	ea4f 5244 	mov.w	r2, r4, lsl #21
100170e4:	f512 0f80 	cmn.w	r2, #4194304	@ 0x400000
100170e8:	f080 809a 	bcs.w	10017220 <__adddf3+0x240>
100170ec:	f1bc 4f00 	cmp.w	ip, #2147483648	@ 0x80000000
100170f0:	bf08      	it	eq
100170f2:	ea5f 0c50 	movseq.w	ip, r0, lsr #1
100170f6:	f150 0000 	adcs.w	r0, r0, #0
100170fa:	eb41 5104 	adc.w	r1, r1, r4, lsl #20
100170fe:	ea41 0105 	orr.w	r1, r1, r5
10017102:	bd30      	pop	{r4, r5, pc}
10017104:	ea5f 0c4c 	movs.w	ip, ip, lsl #1
10017108:	4140      	adcs	r0, r0
1001710a:	eb41 0101 	adc.w	r1, r1, r1
1001710e:	3c01      	subs	r4, #1
10017110:	bf28      	it	cs
10017112:	f5b1 1f80 	cmpcs.w	r1, #1048576	@ 0x100000
10017116:	d2e9      	bcs.n	100170ec <__adddf3+0x10c>
10017118:	f091 0f00 	teq	r1, #0
1001711c:	bf04      	itt	eq
1001711e:	4601      	moveq	r1, r0
10017120:	2000      	moveq	r0, #0
10017122:	fab1 f381 	clz	r3, r1
10017126:	bf08      	it	eq
10017128:	3320      	addeq	r3, #32
1001712a:	f1a3 030b 	sub.w	r3, r3, #11
1001712e:	f1b3 0220 	subs.w	r2, r3, #32
10017132:	da0c      	bge.n	1001714e <__adddf3+0x16e>
10017134:	320c      	adds	r2, #12
10017136:	dd08      	ble.n	1001714a <__adddf3+0x16a>
10017138:	f102 0c14 	add.w	ip, r2, #20
1001713c:	f1c2 020c 	rsb	r2, r2, #12
10017140:	fa01 f00c 	lsl.w	r0, r1, ip
10017144:	fa21 f102 	lsr.w	r1, r1, r2
10017148:	e00c      	b.n	10017164 <__adddf3+0x184>
1001714a:	f102 0214 	add.w	r2, r2, #20
1001714e:	bfd8      	it	le
10017150:	f1c2 0c20 	rsble	ip, r2, #32
10017154:	fa01 f102 	lsl.w	r1, r1, r2
10017158:	fa20 fc0c 	lsr.w	ip, r0, ip
1001715c:	bfdc      	itt	le
1001715e:	ea41 010c 	orrle.w	r1, r1, ip
10017162:	4090      	lslle	r0, r2
10017164:	1ae4      	subs	r4, r4, r3
10017166:	bfa2      	ittt	ge
10017168:	eb01 5104 	addge.w	r1, r1, r4, lsl #20
1001716c:	4329      	orrge	r1, r5
1001716e:	bd30      	popge	{r4, r5, pc}
10017170:	ea6f 0404 	mvn.w	r4, r4
10017174:	3c1f      	subs	r4, #31
10017176:	da1c      	bge.n	100171b2 <__adddf3+0x1d2>
10017178:	340c      	adds	r4, #12
1001717a:	dc0e      	bgt.n	1001719a <__adddf3+0x1ba>
1001717c:	f104 0414 	add.w	r4, r4, #20
10017180:	f1c4 0220 	rsb	r2, r4, #32
10017184:	fa20 f004 	lsr.w	r0, r0, r4
10017188:	fa01 f302 	lsl.w	r3, r1, r2
1001718c:	ea40 0003 	orr.w	r0, r0, r3
10017190:	fa21 f304 	lsr.w	r3, r1, r4
10017194:	ea45 0103 	orr.w	r1, r5, r3
10017198:	bd30      	pop	{r4, r5, pc}
1001719a:	f1c4 040c 	rsb	r4, r4, #12
1001719e:	f1c4 0220 	rsb	r2, r4, #32
100171a2:	fa20 f002 	lsr.w	r0, r0, r2
100171a6:	fa01 f304 	lsl.w	r3, r1, r4
100171aa:	ea40 0003 	orr.w	r0, r0, r3
100171ae:	4629      	mov	r1, r5
100171b0:	bd30      	pop	{r4, r5, pc}
100171b2:	fa21 f004 	lsr.w	r0, r1, r4
100171b6:	4629      	mov	r1, r5
100171b8:	bd30      	pop	{r4, r5, pc}
100171ba:	f094 0f00 	teq	r4, #0
100171be:	f483 1380 	eor.w	r3, r3, #1048576	@ 0x100000
100171c2:	bf06      	itte	eq
100171c4:	f481 1180 	eoreq.w	r1, r1, #1048576	@ 0x100000
100171c8:	3401      	addeq	r4, #1
100171ca:	3d01      	subne	r5, #1
100171cc:	e74e      	b.n	1001706c <__adddf3+0x8c>
100171ce:	ea7f 5c64 	mvns.w	ip, r4, asr #21
100171d2:	bf18      	it	ne
100171d4:	ea7f 5c65 	mvnsne.w	ip, r5, asr #21
100171d8:	d029      	beq.n	1001722e <__adddf3+0x24e>
100171da:	ea94 0f05 	teq	r4, r5
100171de:	bf08      	it	eq
100171e0:	ea90 0f02 	teqeq	r0, r2
100171e4:	d005      	beq.n	100171f2 <__adddf3+0x212>
100171e6:	ea54 0c00 	orrs.w	ip, r4, r0
100171ea:	bf04      	itt	eq
100171ec:	4619      	moveq	r1, r3
100171ee:	4610      	moveq	r0, r2
100171f0:	bd30      	pop	{r4, r5, pc}
100171f2:	ea91 0f03 	teq	r1, r3
100171f6:	bf1e      	ittt	ne
100171f8:	2100      	movne	r1, #0
100171fa:	2000      	movne	r0, #0
100171fc:	bd30      	popne	{r4, r5, pc}
100171fe:	ea5f 5c54 	movs.w	ip, r4, lsr #21
10017202:	d105      	bne.n	10017210 <__adddf3+0x230>
10017204:	0040      	lsls	r0, r0, #1
10017206:	4149      	adcs	r1, r1
10017208:	bf28      	it	cs
1001720a:	f041 4100 	orrcs.w	r1, r1, #2147483648	@ 0x80000000
1001720e:	bd30      	pop	{r4, r5, pc}
10017210:	f514 0480 	adds.w	r4, r4, #4194304	@ 0x400000
10017214:	bf3c      	itt	cc
10017216:	f501 1180 	addcc.w	r1, r1, #1048576	@ 0x100000
1001721a:	bd30      	popcc	{r4, r5, pc}
1001721c:	f001 4500 	and.w	r5, r1, #2147483648	@ 0x80000000
10017220:	f045 41fe 	orr.w	r1, r5, #2130706432	@ 0x7f000000
10017224:	f441 0170 	orr.w	r1, r1, #15728640	@ 0xf00000
10017228:	f04f 0000 	mov.w	r0, #0
1001722c:	bd30      	pop	{r4, r5, pc}
1001722e:	ea7f 5c64 	mvns.w	ip, r4, asr #21
10017232:	bf1a      	itte	ne
10017234:	4619      	movne	r1, r3
10017236:	4610      	movne	r0, r2
10017238:	ea7f 5c65 	mvnseq.w	ip, r5, asr #21
1001723c:	bf1c      	itt	ne
1001723e:	460b      	movne	r3, r1
10017240:	4602      	movne	r2, r0
10017242:	ea50 3401 	orrs.w	r4, r0, r1, lsl #12
10017246:	bf06      	itte	eq
10017248:	ea52 3503 	orrseq.w	r5, r2, r3, lsl #12
1001724c:	ea91 0f03 	teqeq	r1, r3
10017250:	f441 2100 	orrne.w	r1, r1, #524288	@ 0x80000
10017254:	bd30      	pop	{r4, r5, pc}
10017256:	bf00      	nop

10017258 <__aeabi_ui2d>:
10017258:	f090 0f00 	teq	r0, #0
1001725c:	bf04      	itt	eq
1001725e:	2100      	moveq	r1, #0
10017260:	4770      	bxeq	lr
10017262:	b530      	push	{r4, r5, lr}
10017264:	f44f 6480 	mov.w	r4, #1024	@ 0x400
10017268:	f104 0432 	add.w	r4, r4, #50	@ 0x32
1001726c:	f04f 0500 	mov.w	r5, #0
10017270:	f04f 0100 	mov.w	r1, #0
10017274:	e750      	b.n	10017118 <__adddf3+0x138>
10017276:	bf00      	nop

10017278 <__aeabi_i2d>:
10017278:	f090 0f00 	teq	r0, #0
1001727c:	bf04      	itt	eq
1001727e:	2100      	moveq	r1, #0
10017280:	4770      	bxeq	lr
10017282:	b530      	push	{r4, r5, lr}
10017284:	f44f 6480 	mov.w	r4, #1024	@ 0x400
10017288:	f104 0432 	add.w	r4, r4, #50	@ 0x32
1001728c:	f010 4500 	ands.w	r5, r0, #2147483648	@ 0x80000000
10017290:	bf48      	it	mi
10017292:	4240      	negmi	r0, r0
10017294:	f04f 0100 	mov.w	r1, #0
10017298:	e73e      	b.n	10017118 <__adddf3+0x138>
1001729a:	bf00      	nop

1001729c <__aeabi_f2d>:
1001729c:	0042      	lsls	r2, r0, #1
1001729e:	ea4f 01e2 	mov.w	r1, r2, asr #3
100172a2:	ea4f 0131 	mov.w	r1, r1, rrx
100172a6:	ea4f 7002 	mov.w	r0, r2, lsl #28
100172aa:	bf1f      	itttt	ne
100172ac:	f012 437f 	andsne.w	r3, r2, #4278190080	@ 0xff000000
100172b0:	f093 4f7f 	teqne	r3, #4278190080	@ 0xff000000
100172b4:	f081 5160 	eorne.w	r1, r1, #939524096	@ 0x38000000
100172b8:	4770      	bxne	lr
100172ba:	f032 427f 	bics.w	r2, r2, #4278190080	@ 0xff000000
100172be:	bf08      	it	eq
100172c0:	4770      	bxeq	lr
100172c2:	f093 4f7f 	teq	r3, #4278190080	@ 0xff000000
100172c6:	bf04      	itt	eq
100172c8:	f441 2100 	orreq.w	r1, r1, #524288	@ 0x80000
100172cc:	4770      	bxeq	lr
100172ce:	b530      	push	{r4, r5, lr}
100172d0:	f44f 7460 	mov.w	r4, #896	@ 0x380
100172d4:	f001 4500 	and.w	r5, r1, #2147483648	@ 0x80000000
100172d8:	f021 4100 	bic.w	r1, r1, #2147483648	@ 0x80000000
100172dc:	e71c      	b.n	10017118 <__adddf3+0x138>
100172de:	bf00      	nop

100172e0 <__aeabi_ul2d>:
100172e0:	ea50 0201 	orrs.w	r2, r0, r1
100172e4:	bf08      	it	eq
100172e6:	4770      	bxeq	lr
100172e8:	b530      	push	{r4, r5, lr}
100172ea:	f04f 0500 	mov.w	r5, #0
100172ee:	e00a      	b.n	10017306 <__aeabi_l2d+0x16>

100172f0 <__aeabi_l2d>:
100172f0:	ea50 0201 	orrs.w	r2, r0, r1
100172f4:	bf08      	it	eq
100172f6:	4770      	bxeq	lr
100172f8:	b530      	push	{r4, r5, lr}
100172fa:	f011 4500 	ands.w	r5, r1, #2147483648	@ 0x80000000
100172fe:	d502      	bpl.n	10017306 <__aeabi_l2d+0x16>
10017300:	4240      	negs	r0, r0
10017302:	eb61 0141 	sbc.w	r1, r1, r1, lsl #1
10017306:	f44f 6480 	mov.w	r4, #1024	@ 0x400
1001730a:	f104 0432 	add.w	r4, r4, #50	@ 0x32
1001730e:	ea5f 5c91 	movs.w	ip, r1, lsr #22
10017312:	f43f aed8 	beq.w	100170c6 <__adddf3+0xe6>
10017316:	f04f 0203 	mov.w	r2, #3
1001731a:	ea5f 0cdc 	movs.w	ip, ip, lsr #3
1001731e:	bf18      	it	ne
10017320:	3203      	addne	r2, #3
10017322:	ea5f 0cdc 	movs.w	ip, ip, lsr #3
10017326:	bf18      	it	ne
10017328:	3203      	addne	r2, #3
1001732a:	eb02 02dc 	add.w	r2, r2, ip, lsr #3
1001732e:	f1c2 0320 	rsb	r3, r2, #32
10017332:	fa00 fc03 	lsl.w	ip, r0, r3
10017336:	fa20 f002 	lsr.w	r0, r0, r2
1001733a:	fa01 fe03 	lsl.w	lr, r1, r3
1001733e:	ea40 000e 	orr.w	r0, r0, lr
10017342:	fa21 f102 	lsr.w	r1, r1, r2
10017346:	4414      	add	r4, r2
10017348:	e6bd      	b.n	100170c6 <__adddf3+0xe6>
1001734a:	bf00      	nop

1001734c <__aeabi_dmul>:
1001734c:	b570      	push	{r4, r5, r6, lr}
1001734e:	f04f 0cff 	mov.w	ip, #255	@ 0xff
10017352:	f44c 6ce0 	orr.w	ip, ip, #1792	@ 0x700
10017356:	ea1c 5411 	ands.w	r4, ip, r1, lsr #20
1001735a:	bf1d      	ittte	ne
1001735c:	ea1c 5513 	andsne.w	r5, ip, r3, lsr #20
10017360:	ea94 0f0c 	teqne	r4, ip
10017364:	ea95 0f0c 	teqne	r5, ip
10017368:	f000 f8de 	bleq	10017528 <__aeabi_dmul+0x1dc>
1001736c:	442c      	add	r4, r5
1001736e:	ea81 0603 	eor.w	r6, r1, r3
10017372:	ea21 514c 	bic.w	r1, r1, ip, lsl #21
10017376:	ea23 534c 	bic.w	r3, r3, ip, lsl #21
1001737a:	ea50 3501 	orrs.w	r5, r0, r1, lsl #12
1001737e:	bf18      	it	ne
10017380:	ea52 3503 	orrsne.w	r5, r2, r3, lsl #12
10017384:	f441 1180 	orr.w	r1, r1, #1048576	@ 0x100000
10017388:	f443 1380 	orr.w	r3, r3, #1048576	@ 0x100000
1001738c:	d038      	beq.n	10017400 <__aeabi_dmul+0xb4>
1001738e:	fba0 ce02 	umull	ip, lr, r0, r2
10017392:	f04f 0500 	mov.w	r5, #0
10017396:	fbe1 e502 	umlal	lr, r5, r1, r2
1001739a:	f006 4200 	and.w	r2, r6, #2147483648	@ 0x80000000
1001739e:	fbe0 e503 	umlal	lr, r5, r0, r3
100173a2:	f04f 0600 	mov.w	r6, #0
100173a6:	fbe1 5603 	umlal	r5, r6, r1, r3
100173aa:	f09c 0f00 	teq	ip, #0
100173ae:	bf18      	it	ne
100173b0:	f04e 0e01 	orrne.w	lr, lr, #1
100173b4:	f1a4 04ff 	sub.w	r4, r4, #255	@ 0xff
100173b8:	f5b6 7f00 	cmp.w	r6, #512	@ 0x200
100173bc:	f564 7440 	sbc.w	r4, r4, #768	@ 0x300
100173c0:	d204      	bcs.n	100173cc <__aeabi_dmul+0x80>
100173c2:	ea5f 0e4e 	movs.w	lr, lr, lsl #1
100173c6:	416d      	adcs	r5, r5
100173c8:	eb46 0606 	adc.w	r6, r6, r6
100173cc:	ea42 21c6 	orr.w	r1, r2, r6, lsl #11
100173d0:	ea41 5155 	orr.w	r1, r1, r5, lsr #21
100173d4:	ea4f 20c5 	mov.w	r0, r5, lsl #11
100173d8:	ea40 505e 	orr.w	r0, r0, lr, lsr #21
100173dc:	ea4f 2ece 	mov.w	lr, lr, lsl #11
100173e0:	f1b4 0cfd 	subs.w	ip, r4, #253	@ 0xfd
100173e4:	bf88      	it	hi
100173e6:	f5bc 6fe0 	cmphi.w	ip, #1792	@ 0x700
100173ea:	d81e      	bhi.n	1001742a <__aeabi_dmul+0xde>
100173ec:	f1be 4f00 	cmp.w	lr, #2147483648	@ 0x80000000
100173f0:	bf08      	it	eq
100173f2:	ea5f 0e50 	movseq.w	lr, r0, lsr #1
100173f6:	f150 0000 	adcs.w	r0, r0, #0
100173fa:	eb41 5104 	adc.w	r1, r1, r4, lsl #20
100173fe:	bd70      	pop	{r4, r5, r6, pc}
10017400:	f006 4600 	and.w	r6, r6, #2147483648	@ 0x80000000
10017404:	ea46 0101 	orr.w	r1, r6, r1
10017408:	ea40 0002 	orr.w	r0, r0, r2
1001740c:	ea81 0103 	eor.w	r1, r1, r3
10017410:	ebb4 045c 	subs.w	r4, r4, ip, lsr #1
10017414:	bfc2      	ittt	gt
10017416:	ebd4 050c 	rsbsgt	r5, r4, ip
1001741a:	ea41 5104 	orrgt.w	r1, r1, r4, lsl #20
1001741e:	bd70      	popgt	{r4, r5, r6, pc}
10017420:	f441 1180 	orr.w	r1, r1, #1048576	@ 0x100000
10017424:	f04f 0e00 	mov.w	lr, #0
10017428:	3c01      	subs	r4, #1
1001742a:	f300 80ab 	bgt.w	10017584 <__aeabi_dmul+0x238>
1001742e:	f114 0f36 	cmn.w	r4, #54	@ 0x36
10017432:	bfde      	ittt	le
10017434:	2000      	movle	r0, #0
10017436:	f001 4100 	andle.w	r1, r1, #2147483648	@ 0x80000000
1001743a:	bd70      	pople	{r4, r5, r6, pc}
1001743c:	f1c4 0400 	rsb	r4, r4, #0
10017440:	3c20      	subs	r4, #32
10017442:	da35      	bge.n	100174b0 <__aeabi_dmul+0x164>
10017444:	340c      	adds	r4, #12
10017446:	dc1b      	bgt.n	10017480 <__aeabi_dmul+0x134>
10017448:	f104 0414 	add.w	r4, r4, #20
1001744c:	f1c4 0520 	rsb	r5, r4, #32
10017450:	fa00 f305 	lsl.w	r3, r0, r5
10017454:	fa20 f004 	lsr.w	r0, r0, r4
10017458:	fa01 f205 	lsl.w	r2, r1, r5
1001745c:	ea40 0002 	orr.w	r0, r0, r2
10017460:	f001 4200 	and.w	r2, r1, #2147483648	@ 0x80000000
10017464:	f021 4100 	bic.w	r1, r1, #2147483648	@ 0x80000000
10017468:	eb10 70d3 	adds.w	r0, r0, r3, lsr #31
1001746c:	fa21 f604 	lsr.w	r6, r1, r4
10017470:	eb42 0106 	adc.w	r1, r2, r6
10017474:	ea5e 0e43 	orrs.w	lr, lr, r3, lsl #1
10017478:	bf08      	it	eq
1001747a:	ea20 70d3 	biceq.w	r0, r0, r3, lsr #31
1001747e:	bd70      	pop	{r4, r5, r6, pc}
10017480:	f1c4 040c 	rsb	r4, r4, #12
10017484:	f1c4 0520 	rsb	r5, r4, #32
10017488:	fa00 f304 	lsl.w	r3, r0, r4
1001748c:	fa20 f005 	lsr.w	r0, r0, r5
10017490:	fa01 f204 	lsl.w	r2, r1, r4
10017494:	ea40 0002 	orr.w	r0, r0, r2
10017498:	f001 4100 	and.w	r1, r1, #2147483648	@ 0x80000000
1001749c:	eb10 70d3 	adds.w	r0, r0, r3, lsr #31
100174a0:	f141 0100 	adc.w	r1, r1, #0
100174a4:	ea5e 0e43 	orrs.w	lr, lr, r3, lsl #1
100174a8:	bf08      	it	eq
100174aa:	ea20 70d3 	biceq.w	r0, r0, r3, lsr #31
100174ae:	bd70      	pop	{r4, r5, r6, pc}
100174b0:	f1c4 0520 	rsb	r5, r4, #32
100174b4:	fa00 f205 	lsl.w	r2, r0, r5
100174b8:	ea4e 0e02 	orr.w	lr, lr, r2
100174bc:	fa20 f304 	lsr.w	r3, r0, r4
100174c0:	fa01 f205 	lsl.w	r2, r1, r5
100174c4:	ea43 0302 	orr.w	r3, r3, r2
100174c8:	fa21 f004 	lsr.w	r0, r1, r4
100174cc:	f001 4100 	and.w	r1, r1, #2147483648	@ 0x80000000
100174d0:	fa21 f204 	lsr.w	r2, r1, r4
100174d4:	ea20 0002 	bic.w	r0, r0, r2
100174d8:	eb00 70d3 	add.w	r0, r0, r3, lsr #31
100174dc:	ea5e 0e43 	orrs.w	lr, lr, r3, lsl #1
100174e0:	bf08      	it	eq
100174e2:	ea20 70d3 	biceq.w	r0, r0, r3, lsr #31
100174e6:	bd70      	pop	{r4, r5, r6, pc}
100174e8:	f094 0f00 	teq	r4, #0
100174ec:	d10f      	bne.n	1001750e <__aeabi_dmul+0x1c2>
100174ee:	f001 4600 	and.w	r6, r1, #2147483648	@ 0x80000000
100174f2:	0040      	lsls	r0, r0, #1
100174f4:	eb41 0101 	adc.w	r1, r1, r1
100174f8:	f411 1f80 	tst.w	r1, #1048576	@ 0x100000
100174fc:	bf08      	it	eq
100174fe:	3c01      	subeq	r4, #1
10017500:	d0f7      	beq.n	100174f2 <__aeabi_dmul+0x1a6>
10017502:	ea41 0106 	orr.w	r1, r1, r6
10017506:	f095 0f00 	teq	r5, #0
1001750a:	bf18      	it	ne
1001750c:	4770      	bxne	lr
1001750e:	f003 4600 	and.w	r6, r3, #2147483648	@ 0x80000000
10017512:	0052      	lsls	r2, r2, #1
10017514:	eb43 0303 	adc.w	r3, r3, r3
10017518:	f413 1f80 	tst.w	r3, #1048576	@ 0x100000
1001751c:	bf08      	it	eq
1001751e:	3d01      	subeq	r5, #1
10017520:	d0f7      	beq.n	10017512 <__aeabi_dmul+0x1c6>
10017522:	ea43 0306 	orr.w	r3, r3, r6
10017526:	4770      	bx	lr
10017528:	ea94 0f0c 	teq	r4, ip
1001752c:	ea0c 5513 	and.w	r5, ip, r3, lsr #20
10017530:	bf18      	it	ne
10017532:	ea95 0f0c 	teqne	r5, ip
10017536:	d00c      	beq.n	10017552 <__aeabi_dmul+0x206>
10017538:	ea50 0641 	orrs.w	r6, r0, r1, lsl #1
1001753c:	bf18      	it	ne
1001753e:	ea52 0643 	orrsne.w	r6, r2, r3, lsl #1
10017542:	d1d1      	bne.n	100174e8 <__aeabi_dmul+0x19c>
10017544:	ea81 0103 	eor.w	r1, r1, r3
10017548:	f001 4100 	and.w	r1, r1, #2147483648	@ 0x80000000
1001754c:	f04f 0000 	mov.w	r0, #0
10017550:	bd70      	pop	{r4, r5, r6, pc}
10017552:	ea50 0641 	orrs.w	r6, r0, r1, lsl #1
10017556:	bf06      	itte	eq
10017558:	4610      	moveq	r0, r2
1001755a:	4619      	moveq	r1, r3
1001755c:	ea52 0643 	orrsne.w	r6, r2, r3, lsl #1
10017560:	d019      	beq.n	10017596 <__aeabi_dmul+0x24a>
10017562:	ea94 0f0c 	teq	r4, ip
10017566:	d102      	bne.n	1001756e <__aeabi_dmul+0x222>
10017568:	ea50 3601 	orrs.w	r6, r0, r1, lsl #12
1001756c:	d113      	bne.n	10017596 <__aeabi_dmul+0x24a>
1001756e:	ea95 0f0c 	teq	r5, ip
10017572:	d105      	bne.n	10017580 <__aeabi_dmul+0x234>
10017574:	ea52 3603 	orrs.w	r6, r2, r3, lsl #12
10017578:	bf1c      	itt	ne
1001757a:	4610      	movne	r0, r2
1001757c:	4619      	movne	r1, r3
1001757e:	d10a      	bne.n	10017596 <__aeabi_dmul+0x24a>
10017580:	ea81 0103 	eor.w	r1, r1, r3
10017584:	f001 4100 	and.w	r1, r1, #2147483648	@ 0x80000000
10017588:	f041 41fe 	orr.w	r1, r1, #2130706432	@ 0x7f000000
1001758c:	f441 0170 	orr.w	r1, r1, #15728640	@ 0xf00000
10017590:	f04f 0000 	mov.w	r0, #0
10017594:	bd70      	pop	{r4, r5, r6, pc}
10017596:	f041 41fe 	orr.w	r1, r1, #2130706432	@ 0x7f000000
1001759a:	f441 0178 	orr.w	r1, r1, #16252928	@ 0xf80000
1001759e:	bd70      	pop	{r4, r5, r6, pc}

100175a0 <__aeabi_ddiv>:
100175a0:	b570      	push	{r4, r5, r6, lr}
100175a2:	f04f 0cff 	mov.w	ip, #255	@ 0xff
100175a6:	f44c 6ce0 	orr.w	ip, ip, #1792	@ 0x700
100175aa:	ea1c 5411 	ands.w	r4, ip, r1, lsr #20
100175ae:	bf1d      	ittte	ne
100175b0:	ea1c 5513 	andsne.w	r5, ip, r3, lsr #20
100175b4:	ea94 0f0c 	teqne	r4, ip
100175b8:	ea95 0f0c 	teqne	r5, ip
100175bc:	f000 f8a7 	bleq	1001770e <__aeabi_ddiv+0x16e>
100175c0:	eba4 0405 	sub.w	r4, r4, r5
100175c4:	ea81 0e03 	eor.w	lr, r1, r3
100175c8:	ea52 3503 	orrs.w	r5, r2, r3, lsl #12
100175cc:	ea4f 3101 	mov.w	r1, r1, lsl #12
100175d0:	f000 8088 	beq.w	100176e4 <__aeabi_ddiv+0x144>
100175d4:	ea4f 3303 	mov.w	r3, r3, lsl #12
100175d8:	f04f 5580 	mov.w	r5, #268435456	@ 0x10000000
100175dc:	ea45 1313 	orr.w	r3, r5, r3, lsr #4
100175e0:	ea43 6312 	orr.w	r3, r3, r2, lsr #24
100175e4:	ea4f 2202 	mov.w	r2, r2, lsl #8
100175e8:	ea45 1511 	orr.w	r5, r5, r1, lsr #4
100175ec:	ea45 6510 	orr.w	r5, r5, r0, lsr #24
100175f0:	ea4f 2600 	mov.w	r6, r0, lsl #8
100175f4:	f00e 4100 	and.w	r1, lr, #2147483648	@ 0x80000000
100175f8:	429d      	cmp	r5, r3
100175fa:	bf08      	it	eq
100175fc:	4296      	cmpeq	r6, r2
100175fe:	f144 04fd 	adc.w	r4, r4, #253	@ 0xfd
10017602:	f504 7440 	add.w	r4, r4, #768	@ 0x300
10017606:	d202      	bcs.n	1001760e <__aeabi_ddiv+0x6e>
10017608:	085b      	lsrs	r3, r3, #1
1001760a:	ea4f 0232 	mov.w	r2, r2, rrx
1001760e:	1ab6      	subs	r6, r6, r2
10017610:	eb65 0503 	sbc.w	r5, r5, r3
10017614:	085b      	lsrs	r3, r3, #1
10017616:	ea4f 0232 	mov.w	r2, r2, rrx
1001761a:	f44f 1080 	mov.w	r0, #1048576	@ 0x100000
1001761e:	f44f 2c00 	mov.w	ip, #524288	@ 0x80000
10017622:	ebb6 0e02 	subs.w	lr, r6, r2
10017626:	eb75 0e03 	sbcs.w	lr, r5, r3
1001762a:	bf22      	ittt	cs
1001762c:	1ab6      	subcs	r6, r6, r2
1001762e:	4675      	movcs	r5, lr
10017630:	ea40 000c 	orrcs.w	r0, r0, ip
10017634:	085b      	lsrs	r3, r3, #1
10017636:	ea4f 0232 	mov.w	r2, r2, rrx
1001763a:	ebb6 0e02 	subs.w	lr, r6, r2
1001763e:	eb75 0e03 	sbcs.w	lr, r5, r3
10017642:	bf22      	ittt	cs
10017644:	1ab6      	subcs	r6, r6, r2
10017646:	4675      	movcs	r5, lr
10017648:	ea40 005c 	orrcs.w	r0, r0, ip, lsr #1
1001764c:	085b      	lsrs	r3, r3, #1
1001764e:	ea4f 0232 	mov.w	r2, r2, rrx
10017652:	ebb6 0e02 	subs.w	lr, r6, r2
10017656:	eb75 0e03 	sbcs.w	lr, r5, r3
1001765a:	bf22      	ittt	cs
1001765c:	1ab6      	subcs	r6, r6, r2
1001765e:	4675      	movcs	r5, lr
10017660:	ea40 009c 	orrcs.w	r0, r0, ip, lsr #2
10017664:	085b      	lsrs	r3, r3, #1
10017666:	ea4f 0232 	mov.w	r2, r2, rrx
1001766a:	ebb6 0e02 	subs.w	lr, r6, r2
1001766e:	eb75 0e03 	sbcs.w	lr, r5, r3
10017672:	bf22      	ittt	cs
10017674:	1ab6      	subcs	r6, r6, r2
10017676:	4675      	movcs	r5, lr
10017678:	ea40 00dc 	orrcs.w	r0, r0, ip, lsr #3
1001767c:	ea55 0e06 	orrs.w	lr, r5, r6
10017680:	d018      	beq.n	100176b4 <__aeabi_ddiv+0x114>
10017682:	ea4f 1505 	mov.w	r5, r5, lsl #4
10017686:	ea45 7516 	orr.w	r5, r5, r6, lsr #28
1001768a:	ea4f 1606 	mov.w	r6, r6, lsl #4
1001768e:	ea4f 03c3 	mov.w	r3, r3, lsl #3
10017692:	ea43 7352 	orr.w	r3, r3, r2, lsr #29
10017696:	ea4f 02c2 	mov.w	r2, r2, lsl #3
1001769a:	ea5f 1c1c 	movs.w	ip, ip, lsr #4
1001769e:	d1c0      	bne.n	10017622 <__aeabi_ddiv+0x82>
100176a0:	f411 1f80 	tst.w	r1, #1048576	@ 0x100000
100176a4:	d10b      	bne.n	100176be <__aeabi_ddiv+0x11e>
100176a6:	ea41 0100 	orr.w	r1, r1, r0
100176aa:	f04f 0000 	mov.w	r0, #0
100176ae:	f04f 4c00 	mov.w	ip, #2147483648	@ 0x80000000
100176b2:	e7b6      	b.n	10017622 <__aeabi_ddiv+0x82>
100176b4:	f411 1f80 	tst.w	r1, #1048576	@ 0x100000
100176b8:	bf04      	itt	eq
100176ba:	4301      	orreq	r1, r0
100176bc:	2000      	moveq	r0, #0
100176be:	f1b4 0cfd 	subs.w	ip, r4, #253	@ 0xfd
100176c2:	bf88      	it	hi
100176c4:	f5bc 6fe0 	cmphi.w	ip, #1792	@ 0x700
100176c8:	f63f aeaf 	bhi.w	1001742a <__aeabi_dmul+0xde>
100176cc:	ebb5 0c03 	subs.w	ip, r5, r3
100176d0:	bf04      	itt	eq
100176d2:	ebb6 0c02 	subseq.w	ip, r6, r2
100176d6:	ea5f 0c50 	movseq.w	ip, r0, lsr #1
100176da:	f150 0000 	adcs.w	r0, r0, #0
100176de:	eb41 5104 	adc.w	r1, r1, r4, lsl #20
100176e2:	bd70      	pop	{r4, r5, r6, pc}
100176e4:	f00e 4e00 	and.w	lr, lr, #2147483648	@ 0x80000000
100176e8:	ea4e 3111 	orr.w	r1, lr, r1, lsr #12
100176ec:	eb14 045c 	adds.w	r4, r4, ip, lsr #1
100176f0:	bfc2      	ittt	gt
100176f2:	ebd4 050c 	rsbsgt	r5, r4, ip
100176f6:	ea41 5104 	orrgt.w	r1, r1, r4, lsl #20
100176fa:	bd70      	popgt	{r4, r5, r6, pc}
100176fc:	f441 1180 	orr.w	r1, r1, #1048576	@ 0x100000
10017700:	f04f 0e00 	mov.w	lr, #0
10017704:	3c01      	subs	r4, #1
10017706:	e690      	b.n	1001742a <__aeabi_dmul+0xde>
10017708:	ea45 0e06 	orr.w	lr, r5, r6
1001770c:	e68d      	b.n	1001742a <__aeabi_dmul+0xde>
1001770e:	ea0c 5513 	and.w	r5, ip, r3, lsr #20
10017712:	ea94 0f0c 	teq	r4, ip
10017716:	bf08      	it	eq
10017718:	ea95 0f0c 	teqeq	r5, ip
1001771c:	f43f af3b 	beq.w	10017596 <__aeabi_dmul+0x24a>
10017720:	ea94 0f0c 	teq	r4, ip
10017724:	d10a      	bne.n	1001773c <__aeabi_ddiv+0x19c>
10017726:	ea50 3401 	orrs.w	r4, r0, r1, lsl #12
1001772a:	f47f af34 	bne.w	10017596 <__aeabi_dmul+0x24a>
1001772e:	ea95 0f0c 	teq	r5, ip
10017732:	f47f af25 	bne.w	10017580 <__aeabi_dmul+0x234>
10017736:	4610      	mov	r0, r2
10017738:	4619      	mov	r1, r3
1001773a:	e72c      	b.n	10017596 <__aeabi_dmul+0x24a>
1001773c:	ea95 0f0c 	teq	r5, ip
10017740:	d106      	bne.n	10017750 <__aeabi_ddiv+0x1b0>
10017742:	ea52 3503 	orrs.w	r5, r2, r3, lsl #12
10017746:	f43f aefd 	beq.w	10017544 <__aeabi_dmul+0x1f8>
1001774a:	4610      	mov	r0, r2
1001774c:	4619      	mov	r1, r3
1001774e:	e722      	b.n	10017596 <__aeabi_dmul+0x24a>
10017750:	ea50 0641 	orrs.w	r6, r0, r1, lsl #1
10017754:	bf18      	it	ne
10017756:	ea52 0643 	orrsne.w	r6, r2, r3, lsl #1
1001775a:	f47f aec5 	bne.w	100174e8 <__aeabi_dmul+0x19c>
1001775e:	ea50 0441 	orrs.w	r4, r0, r1, lsl #1
10017762:	f47f af0d 	bne.w	10017580 <__aeabi_dmul+0x234>
10017766:	ea52 0543 	orrs.w	r5, r2, r3, lsl #1
1001776a:	f47f aeeb 	bne.w	10017544 <__aeabi_dmul+0x1f8>
1001776e:	e712      	b.n	10017596 <__aeabi_dmul+0x24a>

10017770 <__gedf2>:
10017770:	f04f 3cff 	mov.w	ip, #4294967295	@ 0xffffffff
10017774:	e006      	b.n	10017784 <__cmpdf2+0x4>
10017776:	bf00      	nop

10017778 <__ledf2>:
10017778:	f04f 0c01 	mov.w	ip, #1
1001777c:	e002      	b.n	10017784 <__cmpdf2+0x4>
1001777e:	bf00      	nop

10017780 <__cmpdf2>:
10017780:	f04f 0c01 	mov.w	ip, #1
10017784:	f84d cd04 	str.w	ip, [sp, #-4]!
10017788:	ea4f 0c41 	mov.w	ip, r1, lsl #1
1001778c:	ea7f 5c6c 	mvns.w	ip, ip, asr #21
10017790:	ea4f 0c43 	mov.w	ip, r3, lsl #1
10017794:	bf18      	it	ne
10017796:	ea7f 5c6c 	mvnsne.w	ip, ip, asr #21
1001779a:	d01b      	beq.n	100177d4 <__cmpdf2+0x54>
1001779c:	b001      	add	sp, #4
1001779e:	ea50 0c41 	orrs.w	ip, r0, r1, lsl #1
100177a2:	bf0c      	ite	eq
100177a4:	ea52 0c43 	orrseq.w	ip, r2, r3, lsl #1
100177a8:	ea91 0f03 	teqne	r1, r3
100177ac:	bf02      	ittt	eq
100177ae:	ea90 0f02 	teqeq	r0, r2
100177b2:	2000      	moveq	r0, #0
100177b4:	4770      	bxeq	lr
100177b6:	f110 0f00 	cmn.w	r0, #0
100177ba:	ea91 0f03 	teq	r1, r3
100177be:	bf58      	it	pl
100177c0:	4299      	cmppl	r1, r3
100177c2:	bf08      	it	eq
100177c4:	4290      	cmpeq	r0, r2
100177c6:	bf2c      	ite	cs
100177c8:	17d8      	asrcs	r0, r3, #31
100177ca:	ea6f 70e3 	mvncc.w	r0, r3, asr #31
100177ce:	f040 0001 	orr.w	r0, r0, #1
100177d2:	4770      	bx	lr
100177d4:	ea4f 0c41 	mov.w	ip, r1, lsl #1
100177d8:	ea7f 5c6c 	mvns.w	ip, ip, asr #21
100177dc:	d102      	bne.n	100177e4 <__cmpdf2+0x64>
100177de:	ea50 3c01 	orrs.w	ip, r0, r1, lsl #12
100177e2:	d107      	bne.n	100177f4 <__cmpdf2+0x74>
100177e4:	ea4f 0c43 	mov.w	ip, r3, lsl #1
100177e8:	ea7f 5c6c 	mvns.w	ip, ip, asr #21
100177ec:	d1d6      	bne.n	1001779c <__cmpdf2+0x1c>
100177ee:	ea52 3c03 	orrs.w	ip, r2, r3, lsl #12
100177f2:	d0d3      	beq.n	1001779c <__cmpdf2+0x1c>
100177f4:	f85d 0b04 	ldr.w	r0, [sp], #4
100177f8:	4770      	bx	lr
100177fa:	bf00      	nop

100177fc <__aeabi_cdrcmple>:
100177fc:	4684      	mov	ip, r0
100177fe:	4610      	mov	r0, r2
10017800:	4662      	mov	r2, ip
10017802:	468c      	mov	ip, r1
10017804:	4619      	mov	r1, r3
10017806:	4663      	mov	r3, ip
10017808:	e000      	b.n	1001780c <__aeabi_cdcmpeq>
1001780a:	bf00      	nop

1001780c <__aeabi_cdcmpeq>:
1001780c:	b501      	push	{r0, lr}
1001780e:	f7ff ffb7 	bl	10017780 <__cmpdf2>
10017812:	2800      	cmp	r0, #0
10017814:	bf48      	it	mi
10017816:	f110 0f00 	cmnmi.w	r0, #0
1001781a:	bd01      	pop	{r0, pc}

1001781c <__aeabi_dcmpeq>:
1001781c:	f84d ed08 	str.w	lr, [sp, #-8]!
10017820:	f7ff fff4 	bl	1001780c <__aeabi_cdcmpeq>
10017824:	bf0c      	ite	eq
10017826:	2001      	moveq	r0, #1
10017828:	2000      	movne	r0, #0
1001782a:	f85d fb08 	ldr.w	pc, [sp], #8
1001782e:	bf00      	nop

10017830 <__aeabi_dcmplt>:
10017830:	f84d ed08 	str.w	lr, [sp, #-8]!
10017834:	f7ff ffea 	bl	1001780c <__aeabi_cdcmpeq>
10017838:	bf34      	ite	cc
1001783a:	2001      	movcc	r0, #1
1001783c:	2000      	movcs	r0, #0
1001783e:	f85d fb08 	ldr.w	pc, [sp], #8
10017842:	bf00      	nop

10017844 <__aeabi_dcmple>:
10017844:	f84d ed08 	str.w	lr, [sp, #-8]!
10017848:	f7ff ffe0 	bl	1001780c <__aeabi_cdcmpeq>
1001784c:	bf94      	ite	ls
1001784e:	2001      	movls	r0, #1
10017850:	2000      	movhi	r0, #0
10017852:	f85d fb08 	ldr.w	pc, [sp], #8
10017856:	bf00      	nop

10017858 <__aeabi_dcmpge>:
10017858:	f84d ed08 	str.w	lr, [sp, #-8]!
1001785c:	f7ff ffce 	bl	100177fc <__aeabi_cdrcmple>
10017860:	bf94      	ite	ls
10017862:	2001      	movls	r0, #1
10017864:	2000      	movhi	r0, #0
10017866:	f85d fb08 	ldr.w	pc, [sp], #8
1001786a:	bf00      	nop

1001786c <__aeabi_dcmpgt>:
1001786c:	f84d ed08 	str.w	lr, [sp, #-8]!
10017870:	f7ff ffc4 	bl	100177fc <__aeabi_cdrcmple>
10017874:	bf34      	ite	cc
10017876:	2001      	movcc	r0, #1
10017878:	2000      	movcs	r0, #0
1001787a:	f85d fb08 	ldr.w	pc, [sp], #8
1001787e:	bf00      	nop

10017880 <__aeabi_dcmpun>:
10017880:	ea4f 0c41 	mov.w	ip, r1, lsl #1
10017884:	ea7f 5c6c 	mvns.w	ip, ip, asr #21
10017888:	d102      	bne.n	10017890 <__aeabi_dcmpun+0x10>
1001788a:	ea50 3c01 	orrs.w	ip, r0, r1, lsl #12
1001788e:	d10a      	bne.n	100178a6 <__aeabi_dcmpun+0x26>
10017890:	ea4f 0c43 	mov.w	ip, r3, lsl #1
10017894:	ea7f 5c6c 	mvns.w	ip, ip, asr #21
10017898:	d102      	bne.n	100178a0 <__aeabi_dcmpun+0x20>
1001789a:	ea52 3c03 	orrs.w	ip, r2, r3, lsl #12
1001789e:	d102      	bne.n	100178a6 <__aeabi_dcmpun+0x26>
100178a0:	f04f 0000 	mov.w	r0, #0
100178a4:	4770      	bx	lr
100178a6:	f04f 0001 	mov.w	r0, #1
100178aa:	4770      	bx	lr

100178ac <__aeabi_d2iz>:
100178ac:	ea4f 0241 	mov.w	r2, r1, lsl #1
100178b0:	f512 1200 	adds.w	r2, r2, #2097152	@ 0x200000
100178b4:	d215      	bcs.n	100178e2 <__aeabi_d2iz+0x36>
100178b6:	d511      	bpl.n	100178dc <__aeabi_d2iz+0x30>
100178b8:	f46f 7378 	mvn.w	r3, #992	@ 0x3e0
100178bc:	ebb3 5262 	subs.w	r2, r3, r2, asr #21
100178c0:	d912      	bls.n	100178e8 <__aeabi_d2iz+0x3c>
100178c2:	ea4f 23c1 	mov.w	r3, r1, lsl #11
100178c6:	f043 4300 	orr.w	r3, r3, #2147483648	@ 0x80000000
100178ca:	ea43 5350 	orr.w	r3, r3, r0, lsr #21
100178ce:	f011 4f00 	tst.w	r1, #2147483648	@ 0x80000000
100178d2:	fa23 f002 	lsr.w	r0, r3, r2
100178d6:	bf18      	it	ne
100178d8:	4240      	negne	r0, r0
100178da:	4770      	bx	lr
100178dc:	f04f 0000 	mov.w	r0, #0
100178e0:	4770      	bx	lr
100178e2:	ea50 3001 	orrs.w	r0, r0, r1, lsl #12
100178e6:	d105      	bne.n	100178f4 <__aeabi_d2iz+0x48>
100178e8:	f011 4000 	ands.w	r0, r1, #2147483648	@ 0x80000000
100178ec:	bf08      	it	eq
100178ee:	f06f 4000 	mvneq.w	r0, #2147483648	@ 0x80000000
100178f2:	4770      	bx	lr
100178f4:	f04f 0000 	mov.w	r0, #0
100178f8:	4770      	bx	lr
100178fa:	bf00      	nop

100178fc <__aeabi_uldivmod>:
100178fc:	b953      	cbnz	r3, 10017914 <__aeabi_uldivmod+0x18>
100178fe:	b94a      	cbnz	r2, 10017914 <__aeabi_uldivmod+0x18>
10017900:	2900      	cmp	r1, #0
10017902:	bf08      	it	eq
10017904:	2800      	cmpeq	r0, #0
10017906:	bf1c      	itt	ne
10017908:	f04f 31ff 	movne.w	r1, #4294967295	@ 0xffffffff
1001790c:	f04f 30ff 	movne.w	r0, #4294967295	@ 0xffffffff
10017910:	f000 b96a 	b.w	10017be8 <__aeabi_idiv0>
10017914:	f1ad 0c08 	sub.w	ip, sp, #8
10017918:	e96d ce04 	strd	ip, lr, [sp, #-16]!
1001791c:	f000 f806 	bl	1001792c <__udivmoddi4>
10017920:	f8dd e004 	ldr.w	lr, [sp, #4]
10017924:	e9dd 2302 	ldrd	r2, r3, [sp, #8]
10017928:	b004      	add	sp, #16
1001792a:	4770      	bx	lr

1001792c <__udivmoddi4>:
1001792c:	e92d 47f0 	stmdb	sp!, {r4, r5, r6, r7, r8, r9, sl, lr}
10017930:	9d08      	ldr	r5, [sp, #32]
10017932:	460e      	mov	r6, r1
10017934:	4604      	mov	r4, r0
10017936:	460f      	mov	r7, r1
10017938:	2b00      	cmp	r3, #0
1001793a:	d14a      	bne.n	100179d2 <__udivmoddi4+0xa6>
1001793c:	4694      	mov	ip, r2
1001793e:	458c      	cmp	ip, r1
10017940:	fab2 f282 	clz	r2, r2
10017944:	d960      	bls.n	10017a08 <__udivmoddi4+0xdc>
10017946:	b142      	cbz	r2, 1001795a <__udivmoddi4+0x2e>
10017948:	f1c2 0320 	rsb	r3, r2, #32
1001794c:	4097      	lsls	r7, r2
1001794e:	fa20 f303 	lsr.w	r3, r0, r3
10017952:	fa0c fc02 	lsl.w	ip, ip, r2
10017956:	431f      	orrs	r7, r3
10017958:	4094      	lsls	r4, r2
1001795a:	ea4f 4e1c 	mov.w	lr, ip, lsr #16
1001795e:	fa1f f68c 	uxth.w	r6, ip
10017962:	fbb7 f1fe 	udiv	r1, r7, lr
10017966:	0c23      	lsrs	r3, r4, #16
10017968:	fb0e 7711 	mls	r7, lr, r1, r7
1001796c:	ea43 4307 	orr.w	r3, r3, r7, lsl #16
10017970:	fb01 f006 	mul.w	r0, r1, r6
10017974:	4298      	cmp	r0, r3
10017976:	d90a      	bls.n	1001798e <__udivmoddi4+0x62>
10017978:	eb1c 0303 	adds.w	r3, ip, r3
1001797c:	f101 37ff 	add.w	r7, r1, #4294967295	@ 0xffffffff
10017980:	f080 8115 	bcs.w	10017bae <__udivmoddi4+0x282>
10017984:	4298      	cmp	r0, r3
10017986:	f240 8112 	bls.w	10017bae <__udivmoddi4+0x282>
1001798a:	3902      	subs	r1, #2
1001798c:	4463      	add	r3, ip
1001798e:	1a1b      	subs	r3, r3, r0
10017990:	b2a4      	uxth	r4, r4
10017992:	fbb3 f0fe 	udiv	r0, r3, lr
10017996:	fb0e 3310 	mls	r3, lr, r0, r3
1001799a:	ea44 4403 	orr.w	r4, r4, r3, lsl #16
1001799e:	fb00 f606 	mul.w	r6, r0, r6
100179a2:	42a6      	cmp	r6, r4
100179a4:	d90a      	bls.n	100179bc <__udivmoddi4+0x90>
100179a6:	eb1c 0404 	adds.w	r4, ip, r4
100179aa:	f100 33ff 	add.w	r3, r0, #4294967295	@ 0xffffffff
100179ae:	f080 8100 	bcs.w	10017bb2 <__udivmoddi4+0x286>
100179b2:	42a6      	cmp	r6, r4
100179b4:	f240 80fd 	bls.w	10017bb2 <__udivmoddi4+0x286>
100179b8:	4464      	add	r4, ip
100179ba:	3802      	subs	r0, #2
100179bc:	ea40 4001 	orr.w	r0, r0, r1, lsl #16
100179c0:	1ba4      	subs	r4, r4, r6
100179c2:	2100      	movs	r1, #0
100179c4:	b11d      	cbz	r5, 100179ce <__udivmoddi4+0xa2>
100179c6:	40d4      	lsrs	r4, r2
100179c8:	2300      	movs	r3, #0
100179ca:	e9c5 4300 	strd	r4, r3, [r5]
100179ce:	e8bd 87f0 	ldmia.w	sp!, {r4, r5, r6, r7, r8, r9, sl, pc}
100179d2:	428b      	cmp	r3, r1
100179d4:	d905      	bls.n	100179e2 <__udivmoddi4+0xb6>
100179d6:	b10d      	cbz	r5, 100179dc <__udivmoddi4+0xb0>
100179d8:	e9c5 0100 	strd	r0, r1, [r5]
100179dc:	2100      	movs	r1, #0
100179de:	4608      	mov	r0, r1
100179e0:	e7f5      	b.n	100179ce <__udivmoddi4+0xa2>
100179e2:	fab3 f183 	clz	r1, r3
100179e6:	2900      	cmp	r1, #0
100179e8:	d146      	bne.n	10017a78 <__udivmoddi4+0x14c>
100179ea:	42b3      	cmp	r3, r6
100179ec:	d302      	bcc.n	100179f4 <__udivmoddi4+0xc8>
100179ee:	4282      	cmp	r2, r0
100179f0:	f200 80f5 	bhi.w	10017bde <__udivmoddi4+0x2b2>
100179f4:	1a84      	subs	r4, r0, r2
100179f6:	eb66 0203 	sbc.w	r2, r6, r3
100179fa:	2001      	movs	r0, #1
100179fc:	4617      	mov	r7, r2
100179fe:	2d00      	cmp	r5, #0
10017a00:	d0e5      	beq.n	100179ce <__udivmoddi4+0xa2>
10017a02:	e9c5 4700 	strd	r4, r7, [r5]
10017a06:	e7e2      	b.n	100179ce <__udivmoddi4+0xa2>
10017a08:	2a00      	cmp	r2, #0
10017a0a:	f040 8093 	bne.w	10017b34 <__udivmoddi4+0x208>
10017a0e:	eba1 030c 	sub.w	r3, r1, ip
10017a12:	ea4f 471c 	mov.w	r7, ip, lsr #16
10017a16:	fa1f fe8c 	uxth.w	lr, ip
10017a1a:	2101      	movs	r1, #1
10017a1c:	fbb3 f6f7 	udiv	r6, r3, r7
10017a20:	fb07 3016 	mls	r0, r7, r6, r3
10017a24:	0c23      	lsrs	r3, r4, #16
10017a26:	ea43 4300 	orr.w	r3, r3, r0, lsl #16
10017a2a:	fb0e f006 	mul.w	r0, lr, r6
10017a2e:	4298      	cmp	r0, r3
10017a30:	d908      	bls.n	10017a44 <__udivmoddi4+0x118>
10017a32:	eb1c 0303 	adds.w	r3, ip, r3
10017a36:	f106 38ff 	add.w	r8, r6, #4294967295	@ 0xffffffff
10017a3a:	d202      	bcs.n	10017a42 <__udivmoddi4+0x116>
10017a3c:	4298      	cmp	r0, r3
10017a3e:	f200 80d0 	bhi.w	10017be2 <__udivmoddi4+0x2b6>
10017a42:	4646      	mov	r6, r8
10017a44:	1a1b      	subs	r3, r3, r0
10017a46:	b2a4      	uxth	r4, r4
10017a48:	fbb3 f0f7 	udiv	r0, r3, r7
10017a4c:	fb07 3310 	mls	r3, r7, r0, r3
10017a50:	ea44 4403 	orr.w	r4, r4, r3, lsl #16
10017a54:	fb0e fe00 	mul.w	lr, lr, r0
10017a58:	45a6      	cmp	lr, r4
10017a5a:	d908      	bls.n	10017a6e <__udivmoddi4+0x142>
10017a5c:	eb1c 0404 	adds.w	r4, ip, r4
10017a60:	f100 33ff 	add.w	r3, r0, #4294967295	@ 0xffffffff
10017a64:	d202      	bcs.n	10017a6c <__udivmoddi4+0x140>
10017a66:	45a6      	cmp	lr, r4
10017a68:	f200 80b6 	bhi.w	10017bd8 <__udivmoddi4+0x2ac>
10017a6c:	4618      	mov	r0, r3
10017a6e:	eba4 040e 	sub.w	r4, r4, lr
10017a72:	ea40 4006 	orr.w	r0, r0, r6, lsl #16
10017a76:	e7a5      	b.n	100179c4 <__udivmoddi4+0x98>
10017a78:	f1c1 0720 	rsb	r7, r1, #32
10017a7c:	408b      	lsls	r3, r1
10017a7e:	fa22 fc07 	lsr.w	ip, r2, r7
10017a82:	ea4c 0c03 	orr.w	ip, ip, r3
10017a86:	fa06 fe01 	lsl.w	lr, r6, r1
10017a8a:	fa20 f407 	lsr.w	r4, r0, r7
10017a8e:	fa26 f307 	lsr.w	r3, r6, r7
10017a92:	ea44 040e 	orr.w	r4, r4, lr
10017a96:	fa00 f801 	lsl.w	r8, r0, r1
10017a9a:	ea4f 401c 	mov.w	r0, ip, lsr #16
10017a9e:	ea4f 4914 	mov.w	r9, r4, lsr #16
10017aa2:	fbb3 fef0 	udiv	lr, r3, r0
10017aa6:	fa1f f68c 	uxth.w	r6, ip
10017aaa:	fb00 331e 	mls	r3, r0, lr, r3
10017aae:	ea49 4303 	orr.w	r3, r9, r3, lsl #16
10017ab2:	fb0e f906 	mul.w	r9, lr, r6
10017ab6:	4599      	cmp	r9, r3
10017ab8:	fa02 f201 	lsl.w	r2, r2, r1
10017abc:	d90b      	bls.n	10017ad6 <__udivmoddi4+0x1aa>
10017abe:	eb1c 0303 	adds.w	r3, ip, r3
10017ac2:	f10e 3aff 	add.w	sl, lr, #4294967295	@ 0xffffffff
10017ac6:	f080 8085 	bcs.w	10017bd4 <__udivmoddi4+0x2a8>
10017aca:	4599      	cmp	r9, r3
10017acc:	f240 8082 	bls.w	10017bd4 <__udivmoddi4+0x2a8>
10017ad0:	f1ae 0e02 	sub.w	lr, lr, #2
10017ad4:	4463      	add	r3, ip
10017ad6:	eba3 0909 	sub.w	r9, r3, r9
10017ada:	b2a4      	uxth	r4, r4
10017adc:	fbb9 f3f0 	udiv	r3, r9, r0
10017ae0:	fb00 9913 	mls	r9, r0, r3, r9
10017ae4:	ea44 4409 	orr.w	r4, r4, r9, lsl #16
10017ae8:	fb03 f606 	mul.w	r6, r3, r6
10017aec:	42a6      	cmp	r6, r4
10017aee:	d908      	bls.n	10017b02 <__udivmoddi4+0x1d6>
10017af0:	eb1c 0404 	adds.w	r4, ip, r4
10017af4:	f103 30ff 	add.w	r0, r3, #4294967295	@ 0xffffffff
10017af8:	d268      	bcs.n	10017bcc <__udivmoddi4+0x2a0>
10017afa:	42a6      	cmp	r6, r4
10017afc:	d966      	bls.n	10017bcc <__udivmoddi4+0x2a0>
10017afe:	3b02      	subs	r3, #2
10017b00:	4464      	add	r4, ip
10017b02:	ea43 400e 	orr.w	r0, r3, lr, lsl #16
10017b06:	1ba4      	subs	r4, r4, r6
10017b08:	fba0 e602 	umull	lr, r6, r0, r2
10017b0c:	42b4      	cmp	r4, r6
10017b0e:	4673      	mov	r3, lr
10017b10:	46b1      	mov	r9, r6
10017b12:	d352      	bcc.n	10017bba <__udivmoddi4+0x28e>
10017b14:	d04f      	beq.n	10017bb6 <__udivmoddi4+0x28a>
10017b16:	b15d      	cbz	r5, 10017b30 <__udivmoddi4+0x204>
10017b18:	ebb8 0203 	subs.w	r2, r8, r3
10017b1c:	eb64 0409 	sbc.w	r4, r4, r9
10017b20:	fa04 f707 	lsl.w	r7, r4, r7
10017b24:	fa22 f301 	lsr.w	r3, r2, r1
10017b28:	431f      	orrs	r7, r3
10017b2a:	40cc      	lsrs	r4, r1
10017b2c:	e9c5 7400 	strd	r7, r4, [r5]
10017b30:	2100      	movs	r1, #0
10017b32:	e74c      	b.n	100179ce <__udivmoddi4+0xa2>
10017b34:	f1c2 0120 	rsb	r1, r2, #32
10017b38:	fa20 f301 	lsr.w	r3, r0, r1
10017b3c:	fa0c fc02 	lsl.w	ip, ip, r2
10017b40:	fa26 f101 	lsr.w	r1, r6, r1
10017b44:	4096      	lsls	r6, r2
10017b46:	4333      	orrs	r3, r6
10017b48:	ea4f 471c 	mov.w	r7, ip, lsr #16
10017b4c:	fa1f fe8c 	uxth.w	lr, ip
10017b50:	fbb1 f0f7 	udiv	r0, r1, r7
10017b54:	fb07 1610 	mls	r6, r7, r0, r1
10017b58:	0c19      	lsrs	r1, r3, #16
10017b5a:	ea41 4106 	orr.w	r1, r1, r6, lsl #16
10017b5e:	fb00 f60e 	mul.w	r6, r0, lr
10017b62:	428e      	cmp	r6, r1
10017b64:	fa04 f402 	lsl.w	r4, r4, r2
10017b68:	d908      	bls.n	10017b7c <__udivmoddi4+0x250>
10017b6a:	eb1c 0101 	adds.w	r1, ip, r1
10017b6e:	f100 38ff 	add.w	r8, r0, #4294967295	@ 0xffffffff
10017b72:	d22d      	bcs.n	10017bd0 <__udivmoddi4+0x2a4>
10017b74:	428e      	cmp	r6, r1
10017b76:	d92b      	bls.n	10017bd0 <__udivmoddi4+0x2a4>
10017b78:	3802      	subs	r0, #2
10017b7a:	4461      	add	r1, ip
10017b7c:	1b89      	subs	r1, r1, r6
10017b7e:	b29b      	uxth	r3, r3
10017b80:	fbb1 f6f7 	udiv	r6, r1, r7
10017b84:	fb07 1116 	mls	r1, r7, r6, r1
10017b88:	ea43 4301 	orr.w	r3, r3, r1, lsl #16
10017b8c:	fb06 f10e 	mul.w	r1, r6, lr
10017b90:	4299      	cmp	r1, r3
10017b92:	d908      	bls.n	10017ba6 <__udivmoddi4+0x27a>
10017b94:	eb1c 0303 	adds.w	r3, ip, r3
10017b98:	f106 38ff 	add.w	r8, r6, #4294967295	@ 0xffffffff
10017b9c:	d214      	bcs.n	10017bc8 <__udivmoddi4+0x29c>
10017b9e:	4299      	cmp	r1, r3
10017ba0:	d912      	bls.n	10017bc8 <__udivmoddi4+0x29c>
10017ba2:	3e02      	subs	r6, #2
10017ba4:	4463      	add	r3, ip
10017ba6:	1a5b      	subs	r3, r3, r1
10017ba8:	ea46 4100 	orr.w	r1, r6, r0, lsl #16
10017bac:	e736      	b.n	10017a1c <__udivmoddi4+0xf0>
10017bae:	4639      	mov	r1, r7
10017bb0:	e6ed      	b.n	1001798e <__udivmoddi4+0x62>
10017bb2:	4618      	mov	r0, r3
10017bb4:	e702      	b.n	100179bc <__udivmoddi4+0x90>
10017bb6:	45f0      	cmp	r8, lr
10017bb8:	d2ad      	bcs.n	10017b16 <__udivmoddi4+0x1ea>
10017bba:	ebbe 0302 	subs.w	r3, lr, r2
10017bbe:	eb66 060c 	sbc.w	r6, r6, ip
10017bc2:	3801      	subs	r0, #1
10017bc4:	46b1      	mov	r9, r6
10017bc6:	e7a6      	b.n	10017b16 <__udivmoddi4+0x1ea>
10017bc8:	4646      	mov	r6, r8
10017bca:	e7ec      	b.n	10017ba6 <__udivmoddi4+0x27a>
10017bcc:	4603      	mov	r3, r0
10017bce:	e798      	b.n	10017b02 <__udivmoddi4+0x1d6>
10017bd0:	4640      	mov	r0, r8
10017bd2:	e7d3      	b.n	10017b7c <__udivmoddi4+0x250>
10017bd4:	46d6      	mov	lr, sl
10017bd6:	e77e      	b.n	10017ad6 <__udivmoddi4+0x1aa>
10017bd8:	4464      	add	r4, ip
10017bda:	3802      	subs	r0, #2
10017bdc:	e747      	b.n	10017a6e <__udivmoddi4+0x142>
10017bde:	4608      	mov	r0, r1
10017be0:	e70d      	b.n	100179fe <__udivmoddi4+0xd2>
10017be2:	3e02      	subs	r6, #2
10017be4:	4463      	add	r3, ip
10017be6:	e72d      	b.n	10017a44 <__udivmoddi4+0x118>

10017be8 <__aeabi_idiv0>:
10017be8:	4770      	bx	lr
10017bea:	bf00      	nop
10017bec:	6365645b 	.word	0x6365645b
10017bf0:	7265646f 	.word	0x7265646f
10017bf4:	9ff0205d 	.word	0x9ff0205d
10017bf8:	4920a993 	.word	0x4920a993
10017bfc:	6963696e 	.word	0x6963696e
10017c00:	6f646e61 	.word	0x6f646e61
10017c04:	6f727020 	.word	0x6f727020
10017c08:	61736563 	.word	0x61736563
10017c0c:	6e65696d 	.word	0x6e65696d
10017c10:	64206f74 	.word	0x64206f74
10017c14:	61702065 	.word	0x61702065
10017c18:	74657571 	.word	0x74657571
10017c1c:	25282065 	.word	0x25282065
10017c20:	6220757a 	.word	0x6220757a
10017c24:	73657479 	.word	0x73657479
10017c28:	00000a29 	.word	0x00000a29
10017c2c:	6365645b 	.word	0x6365645b
10017c30:	7265646f 	.word	0x7265646f
10017c34:	9de2205d 	.word	0x9de2205d
10017c38:	5245208c 	.word	0x5245208c
10017c3c:	3a524f52 	.word	0x3a524f52
10017c40:	71615020 	.word	0x71615020
10017c44:	65746575 	.word	0x65746575
10017c48:	6d656420 	.word	0x6d656420
10017c4c:	61697361 	.word	0x61697361
10017c50:	63206f64 	.word	0x63206f64
10017c54:	6f74726f 	.word	0x6f74726f
10017c58:	0000000a 	.word	0x0000000a
10017c5c:	6365645b 	.word	0x6365645b
10017c60:	7265646f 	.word	0x7265646f
10017c64:	9ff0205d 	.word	0x9ff0205d
10017c68:	4820a193 	.word	0x4820a193
10017c6c:	65646165 	.word	0x65646165
10017c70:	3e3d2072 	.word	0x3e3d2072
10017c74:	71657320 	.word	0x71657320
10017c78:	2c75253d 	.word	0x2c75253d
10017c7c:	61686320 	.word	0x61686320
10017c80:	6c656e6e 	.word	0x6c656e6e
10017c84:	2c75253d 	.word	0x2c75253d
10017c88:	636e6520 	.word	0x636e6520
10017c8c:	3d64695f 	.word	0x3d64695f
10017c90:	202c7525 	.word	0x202c7525
10017c94:	655f7374 	.word	0x655f7374
10017c98:	253d7478 	.word	0x253d7478
10017c9c:	0a756c6c 	.word	0x0a756c6c
10017ca0:	00000000 	.word	0x00000000
10017ca4:	6365645b 	.word	0x6365645b
10017ca8:	7265646f 	.word	0x7265646f
10017cac:	9de2205d 	.word	0x9de2205d
10017cb0:	5245208c 	.word	0x5245208c
10017cb4:	3a524f52 	.word	0x3a524f52
10017cb8:	414d4320 	.word	0x414d4320
10017cbc:	65642043 	.word	0x65642043
10017cc0:	73757320 	.word	0x73757320
10017cc4:	70697263 	.word	0x70697263
10017cc8:	b3c36963 	.word	0xb3c36963
10017ccc:	6166206e 	.word	0x6166206e
10017cd0:	b3c36c6c 	.word	0xb3c36c6c
10017cd4:	0000000a 	.word	0x0000000a
10017cd8:	6365645b 	.word	0x6365645b
10017cdc:	7265646f 	.word	0x7265646f
10017ce0:	9de2205d 	.word	0x9de2205d
10017ce4:	5245208c 	.word	0x5245208c
10017ce8:	3a524f52 	.word	0x3a524f52
10017cec:	414d4320 	.word	0x414d4320
10017cf0:	6e692043 	.word	0x6e692043
10017cf4:	6ca1c376 	.word	0x6ca1c376
10017cf8:	2c6f6469 	.word	0x2c6f6469
10017cfc:	736f7020 	.word	0x736f7020
10017d00:	656c6269 	.word	0x656c6269
10017d04:	6e616d20 	.word	0x6e616d20
10017d08:	6c757069 	.word	0x6c757069
10017d0c:	c3696361 	.word	0xc3696361
10017d10:	000a6eb3 	.word	0x000a6eb3
10017d14:	6365645b 	.word	0x6365645b
10017d18:	7265646f 	.word	0x7265646f
10017d1c:	9ce2205d 	.word	0x9ce2205d
10017d20:	4d432085 	.word	0x4d432085
10017d24:	64204341 	.word	0x64204341
10017d28:	75732065 	.word	0x75732065
10017d2c:	69726373 	.word	0x69726373
10017d30:	c3696370 	.word	0xc3696370
10017d34:	76206eb3 	.word	0x76206eb3
10017d38:	696ca1c3 	.word	0x696ca1c3
10017d3c:	00006f64 	.word	0x00006f64
10017d40:	6365645b 	.word	0x6365645b
10017d44:	7265646f 	.word	0x7265646f
10017d48:	9de2205d 	.word	0x9de2205d
10017d4c:	5245208c 	.word	0x5245208c
10017d50:	3a524f52 	.word	0x3a524f52
10017d54:	206f4e20 	.word	0x206f4e20
10017d58:	70206573 	.word	0x70206573
10017d5c:	206f6475 	.word	0x206f6475
10017d60:	69726564 	.word	0x69726564
10017d64:	20726176 	.word	0x20726176
10017d68:	616e7964 	.word	0x616e7964
10017d6c:	5f63696d 	.word	0x5f63696d
10017d70:	0a79656b 	.word	0x0a79656b
10017d74:	00000000 	.word	0x00000000
10017d78:	6365645b 	.word	0x6365645b
10017d7c:	7265646f 	.word	0x7265646f
10017d80:	9ff0205d 	.word	0x9ff0205d
10017d84:	43209194 	.word	0x43209194
10017d88:	6576616c 	.word	0x6576616c
10017d8c:	72656420 	.word	0x72656420
10017d90:	64617669 	.word	0x64617669
10017d94:	6f632061 	.word	0x6f632061
10017d98:	63657272 	.word	0x63657272
10017d9c:	656d6174 	.word	0x656d6174
10017da0:	0065746e 	.word	0x0065746e
10017da4:	6365645b 	.word	0x6365645b
10017da8:	7265646f 	.word	0x7265646f
10017dac:	9ce2205d 	.word	0x9ce2205d
10017db0:	65442085 	.word	0x65442085
10017db4:	66696373 	.word	0x66696373
10017db8:	6f646172 	.word	0x6f646172
10017dbc:	69786520 	.word	0x69786520
10017dc0:	6f736f74 	.word	0x6f736f74
10017dc4:	00000000 	.word	0x00000000
10017dc8:	6f636544 	.word	0x6f636544
10017dcc:	69666964 	.word	0x69666964
10017dd0:	69636163 	.word	0x69636163
10017dd4:	206eb3c3 	.word	0x206eb3c3
10017dd8:	6c6c6166 	.word	0x6c6c6166
10017ddc:	000ab3c3 	.word	0x000ab3c3
10017de0:	746f6f42 	.word	0x746f6f42
10017de4:	66655220 	.word	0x66655220
10017de8:	6e657265 	.word	0x6e657265
10017dec:	46206563 	.word	0x46206563
10017df0:	3a67616c 	.word	0x3a67616c
10017df4:	544f4e20 	.word	0x544f4e20
10017df8:	4145525f 	.word	0x4145525f
10017dfc:	4c465f4c 	.word	0x4c465f4c
10017e00:	000a4741 	.word	0x000a4741
10017e04:	6e6e6143 	.word	0x6e6e6143
10017e08:	7320746f 	.word	0x7320746f
10017e0c:	63736275 	.word	0x63736275
10017e10:	65626972 	.word	0x65626972
10017e14:	206f7420 	.word	0x206f7420
10017e18:	72656d65 	.word	0x72656d65
10017e1c:	636e6567 	.word	0x636e6567
10017e20:	68632079 	.word	0x68632079
10017e24:	656e6e61 	.word	0x656e6e61
10017e28:	00000a6c 	.word	0x00000a6c
10017e2c:	2078614d 	.word	0x2078614d
10017e30:	73627573 	.word	0x73627573
10017e34:	70697263 	.word	0x70697263
10017e38:	6e6f6974 	.word	0x6e6f6974
10017e3c:	65722073 	.word	0x65722073
10017e40:	65686361 	.word	0x65686361
10017e44:	00000a64 	.word	0x00000a64
10017e48:	73726946 	.word	0x73726946
10017e4c:	6f622074 	.word	0x6f622074
10017e50:	202e746f 	.word	0x202e746f
10017e54:	74746553 	.word	0x74746553
10017e58:	20676e69 	.word	0x20676e69
10017e5c:	73616c66 	.word	0x73616c66
10017e60:	2e2e2e68 	.word	0x2e2e2e68
10017e64:	0000000a 	.word	0x0000000a
10017e68:	6f636544 	.word	0x6f636544
10017e6c:	20726564 	.word	0x20726564
10017e70:	746f6f42 	.word	0x746f6f42
10017e74:	0a216465 	.word	0x0a216465
10017e78:	00000000 	.word	0x00000000
10017e7c:	64616552 	.word	0x64616552
10017e80:	00000a79 	.word	0x00000a79
10017e84:	6c696146 	.word	0x6c696146
10017e88:	74206465 	.word	0x74206465
10017e8c:	6572206f 	.word	0x6572206f
10017e90:	76696563 	.word	0x76696563
10017e94:	6d632065 	.word	0x6d632065
10017e98:	72662064 	.word	0x72662064
10017e9c:	68206d6f 	.word	0x68206d6f
10017ea0:	0a74736f 	.word	0x0a74736f
10017ea4:	00000000 	.word	0x00000000
10017ea8:	61766e49 	.word	0x61766e49
10017eac:	2064696c 	.word	0x2064696c
10017eb0:	6d6d6f43 	.word	0x6d6d6f43
10017eb4:	0a646e61 	.word	0x0a646e61
10017eb8:	00000000 	.word	0x00000000
10017ebc:	203e2d20 	.word	0x203e2d20
10017ec0:	65746e49 	.word	0x65746e49
10017ec4:	70757272 	.word	0x70757272
10017ec8:	28202174 	.word	0x28202174
10017ecc:	73616c46 	.word	0x73616c46
10017ed0:	63612068 	.word	0x63612068
10017ed4:	73736563 	.word	0x73736563
10017ed8:	69616620 	.word	0x69616620
10017edc:	6572756c 	.word	0x6572756c
10017ee0:	00000a29 	.word	0x00000a29
10017ee4:	6f727245 	.word	0x6f727245
10017ee8:	6e692072 	.word	0x6e692072
10017eec:	61697469 	.word	0x61697469
10017ef0:	697a696c 	.word	0x697a696c
10017ef4:	5520676e 	.word	0x5520676e
10017ef8:	3a545241 	.word	0x3a545241
10017efc:	0a642520 	.word	0x0a642520
10017f00:	00000000 	.word	0x00000000
10017f04:	5f43584d 	.word	0x5f43584d
10017f08:	45535341 	.word	0x45535341
10017f0c:	25205452 	.word	0x25205452
10017f10:	25232073 	.word	0x25232073
10017f14:	28203a64 	.word	0x28203a64
10017f18:	0a297325 	.word	0x0a297325
10017f1c:	00000000 	.word	0x00000000
10017f20:	6f6f722f 	.word	0x6f6f722f
10017f24:	736d2f74 	.word	0x736d2f74
10017f28:	322d6b64 	.word	0x322d6b64
10017f2c:	5f343230 	.word	0x5f343230
10017f30:	4c2f3230 	.word	0x4c2f3230
10017f34:	61726269 	.word	0x61726269
10017f38:	73656972 	.word	0x73656972
10017f3c:	616f422f 	.word	0x616f422f
10017f40:	2f736472 	.word	0x2f736472
10017f44:	3758414d 	.word	0x3758414d
10017f48:	30303038 	.word	0x30303038
10017f4c:	4854462f 	.word	0x4854462f
10017f50:	65525f52 	.word	0x65525f52
10017f54:	532f4176 	.word	0x532f4176
10017f58:	6372756f 	.word	0x6372756f
10017f5c:	6f622f65 	.word	0x6f622f65
10017f60:	2e647261 	.word	0x2e647261
10017f64:	00000063 	.word	0x00000063
10017f68:	4c494146 	.word	0x4c494146
10017f6c:	00000000 	.word	0x00000000
10017f70:	6f6f722f 	.word	0x6f6f722f
10017f74:	736d2f74 	.word	0x736d2f74
10017f78:	322d6b64 	.word	0x322d6b64
10017f7c:	5f343230 	.word	0x5f343230
10017f80:	4c2f3230 	.word	0x4c2f3230
10017f84:	61726269 	.word	0x61726269
10017f88:	73656972 	.word	0x73656972
10017f8c:	73694d2f 	.word	0x73694d2f
10017f90:	69724463 	.word	0x69724463
10017f94:	73726576 	.word	0x73726576
10017f98:	44454c2f 	.word	0x44454c2f
10017f9c:	64656c2f 	.word	0x64656c2f
10017fa0:	0000632e 	.word	0x0000632e
10017fa4:	20786469 	.word	0x20786469
10017fa8:	756e203c 	.word	0x756e203c
10017fac:	656c5f6d 	.word	0x656c5f6d
10017fb0:	00007364 	.word	0x00007364
10017fb4:	6f6f722f 	.word	0x6f6f722f
10017fb8:	736d2f74 	.word	0x736d2f74
10017fbc:	322d6b64 	.word	0x322d6b64
10017fc0:	5f343230 	.word	0x5f343230
10017fc4:	4c2f3230 	.word	0x4c2f3230
10017fc8:	61726269 	.word	0x61726269
10017fcc:	73656972 	.word	0x73656972
10017fd0:	534d432f 	.word	0x534d432f
10017fd4:	2e2f5349 	.word	0x2e2f5349
10017fd8:	65502f2e 	.word	0x65502f2e
10017fdc:	68706972 	.word	0x68706972
10017fe0:	76697244 	.word	0x76697244
10017fe4:	2f737265 	.word	0x2f737265
10017fe8:	72756f53 	.word	0x72756f53
10017fec:	552f6563 	.word	0x552f6563
10017ff0:	2f545241 	.word	0x2f545241
10017ff4:	74726175 	.word	0x74726175
10017ff8:	7665725f 	.word	0x7665725f
10017ffc:	00632e62 	.word	0x00632e62
10018000:	5f43584d 	.word	0x5f43584d
10018004:	54524155 	.word	0x54524155
10018008:	5445475f 	.word	0x5445475f
1001800c:	5844495f 	.word	0x5844495f
10018010:	786d2828 	.word	0x786d2828
10018014:	61755f63 	.word	0x61755f63
10018018:	725f7472 	.word	0x725f7472
1001801c:	5f736765 	.word	0x5f736765
10018020:	292a2074 	.word	0x292a2074
10018024:	74726175 	.word	0x74726175
10018028:	3d3e2029 	.word	0x3d3e2029
1001802c:	00003020 	.word	0x00003020
10018030:	6f6f722f 	.word	0x6f6f722f
10018034:	736d2f74 	.word	0x736d2f74
10018038:	322d6b64 	.word	0x322d6b64
1001803c:	5f343230 	.word	0x5f343230
10018040:	4c2f3230 	.word	0x4c2f3230
10018044:	61726269 	.word	0x61726269
10018048:	73656972 	.word	0x73656972
1001804c:	534d432f 	.word	0x534d432f
10018050:	2e2f5349 	.word	0x2e2f5349
10018054:	65502f2e 	.word	0x65502f2e
10018058:	68706972 	.word	0x68706972
1001805c:	76697244 	.word	0x76697244
10018060:	2f737265 	.word	0x2f737265
10018064:	72756f53 	.word	0x72756f53
10018068:	472f6563 	.word	0x472f6563
1001806c:	2f4f4950 	.word	0x2f4f4950
10018070:	6f697067 	.word	0x6f697067
10018074:	6d6f635f 	.word	0x6d6f635f
10018078:	2e6e6f6d 	.word	0x2e6e6f6d
1001807c:	00000063 	.word	0x00000063
10018080:	74726f70 	.word	0x74726f70
10018084:	4d203c20 	.word	0x4d203c20
10018088:	435f4358 	.word	0x435f4358
1001808c:	475f4746 	.word	0x475f4746
10018090:	5f4f4950 	.word	0x5f4f4950
10018094:	54534e49 	.word	0x54534e49
10018098:	45434e41 	.word	0x45434e41
1001809c:	00000053 	.word	0x00000053
100180a0:	00464e49 	.word	0x00464e49
100180a4:	00666e69 	.word	0x00666e69
100180a8:	004e414e 	.word	0x004e414e
100180ac:	006e616e 	.word	0x006e616e
100180b0:	33323130 	.word	0x33323130
100180b4:	37363534 	.word	0x37363534
100180b8:	42413938 	.word	0x42413938
100180bc:	46454443 	.word	0x46454443
100180c0:	00000000 	.word	0x00000000
100180c4:	33323130 	.word	0x33323130
100180c8:	37363534 	.word	0x37363534
100180cc:	62613938 	.word	0x62613938
100180d0:	66656463 	.word	0x66656463
100180d4:	00000000 	.word	0x00000000
100180d8:	6c756e28 	.word	0x6c756e28
100180dc:	0000296c 	.word	0x0000296c
100180e0:	00000030 	.word	0x00000030
100180e4:	69666e49 	.word	0x69666e49
100180e8:	7974696e 	.word	0x7974696e
100180ec:	00000000 	.word	0x00000000
100180f0:	004e614e 	.word	0x004e614e
100180f4:	6c6c6142 	.word	0x6c6c6142
100180f8:	7320636f 	.word	0x7320636f
100180fc:	65636375 	.word	0x65636375
10018100:	64656465 	.word	0x64656465
10018104:	00000000 	.word	0x00000000
10018108:	2e2f2e2e 	.word	0x2e2f2e2e
1001810c:	2e2e2f2e 	.word	0x2e2e2f2e
10018110:	2f2e2e2f 	.word	0x2f2e2e2f
10018114:	2e2f2e2e 	.word	0x2e2f2e2e
10018118:	656e2f2e 	.word	0x656e2f2e
1001811c:	62696c77 	.word	0x62696c77
10018120:	62696c2f 	.word	0x62696c2f
10018124:	74732f63 	.word	0x74732f63
10018128:	62696c64 	.word	0x62696c64
1001812c:	6f74642f 	.word	0x6f74642f
10018130:	00632e61 	.word	0x00632e61
10018134:	7566202c 	.word	0x7566202c
10018138:	6974636e 	.word	0x6974636e
1001813c:	203a6e6f 	.word	0x203a6e6f
10018140:	00000000 	.word	0x00000000
10018144:	65737361 	.word	0x65737361
10018148:	6f697472 	.word	0x6f697472
1001814c:	2522206e 	.word	0x2522206e
10018150:	66202273 	.word	0x66202273
10018154:	656c6961 	.word	0x656c6961
10018158:	66203a64 	.word	0x66203a64
1001815c:	20656c69 	.word	0x20656c69
10018160:	22732522 	.word	0x22732522
10018164:	696c202c 	.word	0x696c202c
10018168:	2520656e 	.word	0x2520656e
1001816c:	25732564 	.word	0x25732564
10018170:	00000a73 	.word	0x00000a73
10018174:	2e2f2e2e 	.word	0x2e2f2e2e
10018178:	2e2e2f2e 	.word	0x2e2e2f2e
1001817c:	2f2e2e2f 	.word	0x2f2e2e2f
10018180:	2e2f2e2e 	.word	0x2e2f2e2e
10018184:	656e2f2e 	.word	0x656e2f2e
10018188:	62696c77 	.word	0x62696c77
1001818c:	62696c2f 	.word	0x62696c2f
10018190:	74732f63 	.word	0x74732f63
10018194:	62696c64 	.word	0x62696c64
10018198:	72706d2f 	.word	0x72706d2f
1001819c:	632e6365 	.word	0x632e6365
100181a0:	00000000 	.word	0x00000000
100181a4:	00000043 	.word	0x00000043
100181a8:	49534f50 	.word	0x49534f50
100181ac:	00000058 	.word	0x00000058
100181b0:	0000002e 	.word	0x0000002e

100181b4 <Td>:
100181b4:	51f4a750 7e416553 1a17a4c3 3a275e96     P..QSeA~.....^':
100181c4:	3bab6bcb 1f9d45f1 acfa58ab 4be30393     .k.;.E...X.....K
100181d4:	2030fa55 ad766df6 88cc7691 f5024c25     U.0 .mv..v..%L..
100181e4:	4fe5d7fc c52acbd7 26354480 b562a38f     ...O..*..D5&..b.
100181f4:	deb15a49 25ba1b67 45ea0e98 5dfec0e1     IZ..g..%...E...]
10018204:	c32f7502 814cf012 8d4697a3 6bd3f9c6     .u/...L...F....k
10018214:	038f5fe7 15929c95 bf6d7aeb 955259da     ._.......zm..YR.
10018224:	d4be832d 587421d3 49e06929 8ec9c844     -....!tX)i.ID...
10018234:	75c2896a f48e7978 99583e6b 27b971dd     j..uxy..k>X..q.'
10018244:	bee14fb6 f088ad17 c920ac66 7dce3ab4     .O......f. ..:.}
10018254:	63df4a18 e51a3182 97513360 62537f45     .J.c.1..`3Q.E.Sb
10018264:	b16477e0 bb6bae84 fe81a01c f9082b94     .wd...k......+..
10018274:	70486858 8f45fd19 94de6c87 527bf8b7     XhHp..E..l....{R
10018284:	ab73d323 724b02e2 e31f8f57 6655ab2a     #.s...KrW...*.Uf
10018294:	b2eb2807 2fb5c203 86c57b9a d33708a5     .(...../.{....7.
100182a4:	302887f2 23bfa5b2 02036aba ed16825c     ..(0...#.j..\...
100182b4:	8acf1c2b a779b492 f307f2f0 4e69e2a1     +.....y.......iN
100182c4:	65daf4cd 0605bed5 d134621f c4a6fe8a     ...e.....b4.....
100182d4:	342e539d a2f355a0 058ae132 a4f6eb75     .S.4.U..2...u...
100182e4:	0b83ec39 4060efaa 5e719f06 bd6e1051     9.....`@..q^Q.n.
100182f4:	3e218af9 96dd063d dd3e05ae 4de6bd46     ..!>=.....>.F..M
10018304:	91548db5 71c45d05 0406d46f 605015ff     ..T..].qo.....P`
10018314:	1998fb24 d6bde997 894043cc 67d99e77     $........C@.w..g
10018324:	b0e842bd 07898b88 e7195b38 79c8eedb     .B......8[.....y
10018334:	a17c0a47 7c420fe9 f8841ec9 00000000     G.|...B|........
10018344:	09808683 322bed48 1e1170ac 6c5a724e     ....H.+2.p..NrZl
10018354:	fd0efffb 0f853856 3daed51e 362d3927     ....V8.....='9-6
10018364:	0a0fd964 685ca621 9b5b54d1 24362e3a     d...!.\h.T[.:.6$
10018374:	0c0a67b1 9357e70f b4ee96d2 1b9b919e     .g....W.........
10018384:	80c0c54f 61dc20a2 5a774b69 1c121a16     O.... .aiKwZ....
10018394:	e293ba0a c0a02ae5 3c22e043 121b171d     .....*..C."<....
100183a4:	0e090d0b f28bc7ad 2db6a8b9 141ea9c8     ...........-....
100183b4:	57f11985 af75074c ee99ddbb a37f60fd     ...WL.u......`..
100183c4:	f701269f 5c72f5bc 44663bc5 5bfb7e34     .&....r\.;fD4~.[
100183d4:	8b432976 cb23c6dc b6edfc68 b8e4f163     v)C...#.h...c...
100183e4:	d731dcca 42638510 13972240 84c61120     ..1...cB@".. ...
100183f4:	854a247d d2bb3df8 aef93211 c729a16d     }$J..=...2..m.).
10018404:	1d9e2f4b dcb230f3 0d8652ec 77c1e3d0     K/...0...R.....w
10018414:	2bb3166c a970b999 119448fa 47e96422     l..+..p..H.."d.G
10018424:	a8fc8cc4 a0f03f1a 567d2cd8 223390ef     .....?...,}V..3"
10018434:	87494ec7 d938d1c1 8ccaa2fe 98d40b36     .NI...8.....6...
10018444:	a6f581cf a57ade28 dab78e26 3fadbfa4     ....(.z.&......?
10018454:	2c3a9de4 5078920d 6a5fcc9b 547e4662     ..:,..xP.._jbF~T
10018464:	f68d13c2 90d8b8e8 2e39f75e 82c3aff5     ........^.9.....
10018474:	9f5d80be 69d0937c 6fd52da9 cf2512b3     ..].|..i.-.o..%.
10018484:	c8ac993b 10187da7 e89c636e db3bbb7b     ;....}..nc..{.;.
10018494:	cd267809 6e5918f4 ec9ab701 834f9aa8     .x&...Yn......O.
100184a4:	e6956e65 aaffe67e 21bccf08 ef15e8e6     en..~......!....
100184b4:	bae79bd9 4a6f36ce ea9f09d4 29b07cd6     .....6oJ.....|.)
100184c4:	31a4b2af 2a3f2331 c6a59430 35a266c0     ...11#?*0....f.5
100184d4:	744ebc37 fc82caa6 e090d0b0 33a7d815     7.Nt...........3
100184e4:	f104984a 41ecdaf7 7fcd500e 1791f62f     J......A.P../...
100184f4:	764dd68d 43efb04d ccaa4d54 e49604df     ..MvM..CTM......
10018504:	9ed1b5e3 4c6a881b c12c1fb8 4665517f     ......jL..,..QeF
10018514:	9d5eea04 018c355d fa877473 fb0b412e     ..^.]5..st...A..
10018524:	b3671d5a 92dbd252 e9105633 6dd64713     Z.g.R...3V...G.m
10018534:	9ad7618c 37a10c7a 59f8148e eb133c89     .a..z..7...Y.<..
10018544:	cea927ee b761c935 e11ce5ed 7a47b13c     .'..5.a.....<.Gz
10018554:	9cd2df59 55f2733f 1814ce79 73c737bf     Y...?s.Uy....7.s
10018564:	53f7cdea 5ffdaa5b df3d6f14 7844db86     ...S[.._.o=...Dx
10018574:	caaff381 b968c43e 3824342c c2a3405f     ....>.h.,4$8_@..
10018584:	161dc372 bce2250c 283c498b ff0d9541     r....%...I<(A...
10018594:	39a80171 080cb3de d8b4e49c 6456c190     q..9..........Vd
100185a4:	7bcb8461 d532b670 486c5c74 d0b85742     a..{p.2.t\lHBW..
100185b4:	5051f4a7 537e4165 c31a17a4 963a275e     ..QPeA~S....^':.
100185c4:	cb3bab6b f11f9d45 abacfa58 934be303     k.;.E...X.....K.
100185d4:	552030fa f6ad766d 9188cc76 25f5024c     .0 Umv..v...L..%
100185e4:	fc4fe5d7 d7c52acb 80263544 8fb562a3     ..O..*..D5&..b..
100185f4:	49deb15a 6725ba1b 9845ea0e e15dfec0     Z..I..%g..E...].
10018604:	02c32f75 12814cf0 a38d4697 c66bd3f9     u/...L...F....k.
10018614:	e7038f5f 9515929c ebbf6d7a da955259     _.......zm..YR..
10018624:	2dd4be83 d3587421 2949e069 448ec9c8     ...-!tX.i.I)...D
10018634:	6a75c289 78f48e79 6b99583e dd27b971     ..ujy..x>X.kq.'.
10018644:	b6bee14f 17f088ad 66c920ac b47dce3a     O........ .f:.}.
10018654:	1863df4a 82e51a31 60975133 4562537f     J.c.1...3Q.`.SbE
10018664:	e0b16477 84bb6bae 1cfe81a0 94f9082b     wd...k......+...
10018674:	58704868 198f45fd 8794de6c b7527bf8     hHpX.E..l....{R.
10018684:	23ab73d3 e2724b02 57e31f8f 2a6655ab     .s.#.Kr....W.Uf*
10018694:	07b2eb28 032fb5c2 9a86c57b a5d33708     (...../.{....7..
100186a4:	f2302887 b223bfa5 ba02036a 5ced1682     .(0...#.j......\
100186b4:	2b8acf1c 92a779b4 f0f307f2 a14e69e2     ...+.y.......iN.
100186c4:	cd65daf4 d50605be 1fd13462 8ac4a6fe     ..e.....b4......
100186d4:	9d342e53 a0a2f355 32058ae1 75a4f6eb     S.4.U......2...u
100186e4:	390b83ec aa4060ef 065e719f 51bd6e10     ...9.`@..q^..n.Q
100186f4:	f93e218a 3d96dd06 aedd3e05 464de6bd     .!>....=.>....MF
10018704:	b591548d 0571c45d 6f0406d4 ff605015     .T..].q....o.P`.
10018714:	241998fb 97d6bde9 cc894043 7767d99e     ...$....C@....gw
10018724:	bdb0e842 8807898b 38e7195b db79c8ee     B.......[..8..y.
10018734:	47a17c0a e97c420f c9f8841e 00000000     .|.G.B|.........
10018744:	83098086 48322bed ac1e1170 4e6c5a72     .....+2Hp...rZlN
10018754:	fbfd0eff 560f8538 1e3daed5 27362d39     ....8..V..=.9-6'
10018764:	640a0fd9 21685ca6 d19b5b54 3a24362e     ...d.\h!T[...6$:
10018774:	b10c0a67 0f9357e7 d2b4ee96 9e1b9b91     g....W..........
10018784:	4f80c0c5 a261dc20 695a774b 161c121a     ...O .a.KwZi....
10018794:	0ae293ba e5c0a02a 433c22e0 1d121b17     ....*...."<C....
100187a4:	0b0e090d adf28bc7 b92db6a8 c8141ea9     ..........-.....
100187b4:	8557f119 4caf7507 bbee99dd fda37f60     ..W..u.L....`...
100187c4:	9ff70126 bc5c72f5 c544663b 345bfb7e     &....r\.;fD.~.[4
100187d4:	768b4329 dccb23c6 68b6edfc 63b8e4f1     )C.v.#.....h...c
100187e4:	cad731dc 10426385 40139722 2084c611     .1...cB."..@... 
100187f4:	7d854a24 f8d2bb3d 11aef932 6dc729a1     $J.}=...2....).m
10018804:	4b1d9e2f f3dcb230 ec0d8652 d077c1e3     /..K0...R.....w.
10018814:	6c2bb316 99a970b9 fa119448 2247e964     ..+l.p..H...d.G"
10018824:	c4a8fc8c 1aa0f03f d8567d2c ef223390     ....?...,}V..3".
10018834:	c787494e c1d938d1 fe8ccaa2 3698d40b     NI...8.........6
10018844:	cfa6f581 28a57ade 26dab78e a43fadbf     .....z.(...&..?.
10018854:	e42c3a9d 0d507892 9b6a5fcc 62547e46     .:,..xP.._j.F~Tb
10018864:	c2f68d13 e890d8b8 5e2e39f7 f582c3af     .........9.^....
10018874:	be9f5d80 7c69d093 a96fd52d b3cf2512     .]....i|-.o..%..
10018884:	3bc8ac99 a710187d 6ee89c63 7bdb3bbb     ...;}...c..n.;.{
10018894:	09cd2678 f46e5918 01ec9ab7 a8834f9a     x&...Yn......O..
100188a4:	65e6956e 7eaaffe6 0821bccf e6ef15e8     n..e...~..!.....
100188b4:	d9bae79b ce4a6f36 d4ea9f09 d629b07c     ....6oJ.....|.).
100188c4:	af31a4b2 312a3f23 30c6a594 c035a266     ..1.#?*1...0f.5.
100188d4:	37744ebc a6fc82ca b0e090d0 1533a7d8     .Nt7..........3.
100188e4:	4af10498 f741ecda 0e7fcd50 2f1791f6     ...J..A.P....../
100188f4:	8d764dd6 4d43efb0 54ccaa4d dfe49604     .Mv...CMM..T....
10018904:	e39ed1b5 1b4c6a88 b8c12c1f 7f466551     .....jL..,..QeF.
10018914:	049d5eea 5d018c35 73fa8774 2efb0b41     .^..5..]t..sA...
10018924:	5ab3671d 5292dbd2 33e91056 136dd647     .g.Z...RV..3G.m.
10018934:	8c9ad761 7a37a10c 8e59f814 89eb133c     a.....7z..Y.<...
10018944:	eecea927 35b761c9 ede11ce5 3c7a47b1     '....a.5.....Gz<
10018954:	599cd2df 3f55f273 791814ce bf73c737     ...Ys.U?...y7.s.
10018964:	ea53f7cd 5b5ffdaa 14df3d6f 867844db     ..S..._[o=...Dx.
10018974:	81caaff3 3eb968c4 2c382434 5fc2a340     .....h.>4$8,@.._
10018984:	72161dc3 0cbce225 8b283c49 41ff0d95     ...r%...I<(....A
10018994:	7139a801 de080cb3 9cd8b4e4 906456c1     ..9q.........Vd.
100189a4:	617bcb84 70d532b6 74486c5c 42d0b857     ..{a.2.p\lHtW..B
100189b4:	a75051f4 65537e41 a4c31a17 5e963a27     .QP.A~Se....':.^
100189c4:	6bcb3bab 45f11f9d 58abacfa 03934be3     .;.k...E...X.K..
100189d4:	fa552030 6df6ad76 769188cc 4c25f502     0 U.v..m...v..%L
100189e4:	d7fc4fe5 cbd7c52a 44802635 a38fb562     .O..*...5&.Db...
100189f4:	5a49deb1 1b6725ba 0e9845ea c0e15dfe     ..IZ.%g..E...]..
10018a04:	7502c32f f012814c 97a38d46 f9c66bd3     /..uL...F....k..
10018a14:	5fe7038f 9c951592 7aebbf6d 59da9552     ..._....m..zR..Y
10018a24:	832dd4be 21d35874 692949e0 c8448ec9     ..-.tX.!.I)i..D.
10018a34:	896a75c2 7978f48e 3e6b9958 71dd27b9     .uj...xyX.k>.'.q
10018a44:	4fb6bee1 ad17f088 ac66c920 3ab47dce     ...O.... .f..}.:
10018a54:	4a1863df 3182e51a 33609751 7f456253     .c.J...1Q.`3SbE.
10018a64:	77e0b164 ae84bb6b a01cfe81 2b94f908     d..wk..........+
10018a74:	68587048 fd198f45 6c8794de f8b7527b     HpXhE......l{R..
10018a84:	d323ab73 02e2724b 8f57e31f ab2a6655     s.#.Kr....W.Uf*.
10018a94:	2807b2eb c2032fb5 7b9a86c5 08a5d337     ...(./.....{7...
10018aa4:	87f23028 a5b223bf 6aba0203 825ced16     (0...#.....j..\.
10018ab4:	1c2b8acf b492a779 f2f0f307 e2a14e69     ..+.y.......iN..
10018ac4:	f4cd65da bed50605 621fd134 fe8ac4a6     .e......4..b....
10018ad4:	539d342e 55a0a2f3 e132058a eb75a4f6     .4.S...U..2...u.
10018ae4:	ec390b83 efaa4060 9f065e71 1051bd6e     ..9.`@..q^..n.Q.
10018af4:	8af93e21 063d96dd 05aedd3e bd464de6     !>....=.>....MF.
10018b04:	8db59154 5d0571c4 d46f0406 15ff6050     T....q.]..o.P`..
10018b14:	fb241998 e997d6bd 43cc8940 9e7767d9     ..$.....@..C.gw.
10018b24:	42bdb0e8 8b880789 5b38e719 eedb79c8     ...B......8[.y..
10018b34:	0a47a17c 0fe97c42 1ec9f884 00000000     |.G.B|..........
10018b44:	86830980 ed48322b 70ac1e11 724e6c5a     ....+2H....pZlNr
10018b54:	fffbfd0e 38560f85 d51e3dae 3927362d     ......V8.=..-6'9
10018b64:	d9640a0f a621685c 54d19b5b 2e3a2436     ..d.\h!.[..T6$:.
10018b74:	67b10c0a e70f9357 96d2b4ee 919e1b9b     ...gW...........
10018b84:	c54f80c0 20a261dc 4b695a77 1a161c12     ..O..a. wZiK....
10018b94:	ba0ae293 2ae5c0a0 e0433c22 171d121b     .......*"<C.....
10018ba4:	0d0b0e09 c7adf28b a8b92db6 a9c8141e     .........-......
10018bb4:	198557f1 074caf75 ddbbee99 60fda37f     .W..u.L........`
10018bc4:	269ff701 f5bc5c72 3bc54466 7e345bfb     ...&r\..fD.;.[4~
10018bd4:	29768b43 c6dccb23 fc68b6ed f163b8e4     C.v)#.....h...c.
10018be4:	dccad731 85104263 22401397 112084c6     1...cB....@".. .
10018bf4:	247d854a 3df8d2bb 3211aef9 a16dc729     J.}$...=...2).m.
10018c04:	2f4b1d9e 30f3dcb2 52ec0d86 e3d077c1     ..K/...0...R.w..
10018c14:	166c2bb3 b999a970 48fa1194 642247e9     .+l.p......H.G"d
10018c24:	8cc4a8fc 3f1aa0f0 2cd8567d 90ef2233     .......?}V.,3"..
10018c34:	4ec78749 d1c1d938 a2fe8cca 0b3698d4     I..N8.........6.
10018c44:	81cfa6f5 de28a57a 8e26dab7 bfa43fad     ....z.(...&..?..
10018c54:	9de42c3a 920d5078 cc9b6a5f 4662547e     :,..xP.._j..~TbF
10018c64:	13c2f68d b8e890d8 f75e2e39 aff582c3     ........9.^.....
10018c74:	80be9f5d 937c69d0 2da96fd5 12b3cf25     ]....i|..o.-%...
10018c84:	993bc8ac 7da71018 636ee89c bb7bdb3b     ..;....}..nc;.{.
10018c94:	7809cd26 18f46e59 b701ec9a 9aa8834f     &..xYn......O...
10018ca4:	6e65e695 e67eaaff cf0821bc e8e6ef15     ..en..~..!......
10018cb4:	9bd9bae7 36ce4a6f 09d4ea9f 7cd629b0     ....oJ.6.....).|
10018cc4:	b2af31a4 23312a3f 9430c6a5 66c035a2     .1..?*1#..0..5.f
10018cd4:	bc37744e caa6fc82 d0b0e090 d81533a7     Nt7..........3..
10018ce4:	984af104 daf741ec 500e7fcd f62f1791     ..J..A.....P../.
10018cf4:	d68d764d b04d43ef 4d54ccaa 04dfe496     Mv...CM...TM....
10018d04:	b5e39ed1 881b4c6a 1fb8c12c 517f4665     ....jL..,...eF.Q
10018d14:	ea049d5e 355d018c 7473fa87 412efb0b     ^.....]5..st...A
10018d24:	1d5ab367 d25292db 5633e910 47136dd6     g.Z...R...3V.m.G
10018d34:	618c9ad7 0c7a37a1 148e59f8 3c89eb13     ...a.7z..Y.....<
10018d44:	27eecea9 c935b761 e5ede11c b13c7a47     ...'a.5.....Gz<.
10018d54:	df599cd2 733f55f2 ce791814 37bf73c7     ..Y..U?s..y..s.7
10018d64:	cdea53f7 aa5b5ffd 6f14df3d db867844     .S..._[.=..oDx..
10018d74:	f381caaf c43eb968 342c3824 405fc2a3     ....h.>.$8,4.._@
10018d84:	c372161d 250cbce2 498b283c 9541ff0d     ..r....%<(.I..A.
10018d94:	017139a8 b3de080c e49cd8b4 c1906456     .9q.........Vd..
10018da4:	84617bcb b670d532 5c74486c 5742d0b8     .{a.2.p.lHt\..BW
10018db4:	f4a75051 4165537e 17a4c31a 275e963a     QP..~SeA....:.^'
10018dc4:	ab6bcb3b 9d45f11f fa58abac e303934b     ;.k...E...X.K...
10018dd4:	30fa5520 766df6ad cc769188 024c25f5      U.0..mv..v..%L.
10018de4:	e5d7fc4f 2acbd7c5 35448026 62a38fb5     O......*&.D5...b
10018df4:	b15a49de ba1b6725 ea0e9845 fec0e15d     .IZ.%g..E...]...
10018e04:	2f7502c3 4cf01281 4697a38d d3f9c66b     ..u/...L...Fk...
10018e14:	8f5fe703 929c9515 6d7aebbf 5259da95     .._.......zm..YR
10018e24:	be832dd4 7421d358 e0692949 c9c8448e     .-..X.!tI)i..D..
10018e34:	c2896a75 8e7978f4 583e6b99 b971dd27     uj...xy..k>X'.q.
10018e44:	e14fb6be 88ad17f0 20ac66c9 ce3ab47d     ..O......f. }.:.
10018e54:	df4a1863 1a3182e5 51336097 537f4562     c.J...1..`3QbE.S
10018e64:	6477e0b1 6bae84bb 81a01cfe 082b94f9     ..wd...k......+.
10018e74:	48685870 45fd198f de6c8794 7bf8b752     pXhH...E..l.R..{
10018e84:	73d323ab 4b02e272 1f8f57e3 55ab2a66     .#.sr..K.W..f*.U
10018e94:	eb2807b2 b5c2032f c57b9a86 3708a5d3     ..(./.....{....7
10018ea4:	2887f230 bfa5b223 036aba02 16825ced     0..(#.....j..\..
10018eb4:	cf1c2b8a 79b492a7 07f2f0f3 69e2a14e     .+.....y....N..i
10018ec4:	daf4cd65 05bed506 34621fd1 a6fe8ac4     e.........b4....
10018ed4:	2e539d34 f355a0a2 8ae13205 f6eb75a4     4.S...U..2...u..
10018ee4:	83ec390b 60efaa40 719f065e 6e1051bd     .9..@..`^..q.Q.n
10018ef4:	218af93e dd063d96 3e05aedd e6bd464d     >..!.=.....>MF..
10018f04:	548db591 c45d0571 06d46f04 5015ff60     ...Tq.]..o..`..P
10018f14:	98fb2419 bde997d6 4043cc89 d99e7767     .$........C@gw..
10018f24:	e842bdb0 898b8807 195b38e7 c8eedb79     ..B......8[.y...
10018f34:	7c0a47a1 420fe97c 841ec9f8 00000000     .G.||..B........
10018f44:	80868309 2bed4832 1170ac1e 5a724e6c     ....2H.+..p.lNrZ
10018f54:	0efffbfd 8538560f aed51e3d 2d392736     .....V8.=...6'9-
10018f64:	0fd9640a 5ca62168 5b54d19b 362e3a24     .d..h!.\..T[$:.6
10018f74:	0a67b10c 57e70f93 ee96d2b4 9b919e1b     ..g....W........
10018f84:	c0c54f80 dc20a261 774b695a 121a161c     .O..a. .ZiKw....
10018f94:	93ba0ae2 a02ae5c0 22e0433c 1b171d12     ......*.<C."....
10018fa4:	090d0b0e 8bc7adf2 b6a8b92d 1ea9c814     ........-.......
10018fb4:	f1198557 75074caf 99ddbbee 7f60fda3     W....L.u......`.
10018fc4:	01269ff7 72f5bc5c 663bc544 fb7e345b     ..&.\..rD.;f[4~.
10018fd4:	4329768b 23c6dccb edfc68b6 e4f163b8     .v)C...#.h...c..
10018fe4:	31dccad7 63851042 97224013 c6112084     ...1B..c.@".. ..
10018ff4:	4a247d85 bb3df8d2 f93211ae 29a16dc7     .}$J..=...2..m.)
10019004:	9e2f4b1d b230f3dc 8652ec0d c1e3d077     .K/...0...R.w...
10019014:	b3166c2b 70b999a9 9448fa11 e9642247     +l.....p..H.G"d.
10019024:	fc8cc4a8 f03f1aa0 7d2cd856 3390ef22     ......?.V.,}"..3
10019034:	494ec787 38d1c1d9 caa2fe8c d40b3698     ..NI...8.....6..
10019044:	f581cfa6 7ade28a5 b78e26da adbfa43f     .....(.z.&..?...
10019054:	3a9de42c 78920d50 5fcc9b6a 7e466254     ,..:P..xj.._TbF~
10019064:	8d13c2f6 d8b8e890 39f75e2e c3aff582     .........^.9....
10019074:	5d80be9f d0937c69 d52da96f 2512b3cf     ...]i|..o.-....%
10019084:	ac993bc8 187da710 9c636ee8 3bbb7bdb     .;....}..nc..{.;
10019094:	267809cd 5918f46e 9ab701ec 4f9aa883     ..x&n..Y.......O
100190a4:	956e65e6 ffe67eaa bccf0821 15e8e6ef     .en..~..!.......
100190b4:	e79bd9ba 6f36ce4a 9f09d4ea b07cd629     ....J.6o....).|.
100190c4:	a4b2af31 3f23312a a59430c6 a266c035     1...*1#?.0..5.f.
100190d4:	4ebc3774 82caa6fc 90d0b0e0 a7d81533     t7.N........3...
100190e4:	04984af1 ecdaf741 cd500e7f 91f62f17     .J..A.....P../..
100190f4:	4dd68d76 efb04d43 aa4d54cc 9604dfe4     v..MCM...TM.....
10019104:	d1b5e39e 6a881b4c 2c1fb8c1 65517f46     ....L..j...,F.Qe
10019114:	5eea049d 8c355d01 877473fa 0b412efb     ...^.]5..st...A.
10019124:	671d5ab3 dbd25292 105633e9 d647136d     .Z.g.R...3V.m.G.
10019134:	d7618c9a a10c7a37 f8148e59 133c89eb     ..a.7z..Y.....<.
10019144:	a927eece 61c935b7 1ce5ede1 47b13c7a     ..'..5.a....z<.G
10019154:	d2df599c f2733f55 14ce7918 c737bf73     .Y..U?s..y..s.7.
10019164:	f7cdea53 fdaa5b5f 3d6f14df 44db8678     S..._[....o=x..D
10019174:	aff381ca 68c43eb9 24342c38 a3405fc2     .....>.h8,4$._@.
10019184:	1dc37216 e2250cbc 3c498b28 0d9541ff     .r....%.(.I<.A..
10019194:	a8017139 0cb3de08 b4e49cd8 56c19064     9q..........d..V
100191a4:	cb84617b 32b670d5 6c5c7448 b85742d0     {a...p.2Ht\l.BW.

100191b4 <Te>:
100191b4:	c66363a5 f87c7c84 ee777799 f67b7b8d     .cc..||..ww..{{.
100191c4:	fff2f20d d66b6bbd de6f6fb1 91c5c554     .....kk..oo.T...
100191d4:	60303050 02010103 ce6767a9 562b2b7d     P00`.....gg.}++V
100191e4:	e7fefe19 b5d7d762 4dababe6 ec76769a     ....b......M.vv.
100191f4:	8fcaca45 1f82829d 89c9c940 fa7d7d87     E.......@....}}.
10019204:	effafa15 b25959eb 8e4747c9 fbf0f00b     .....YY..GG.....
10019214:	41adadec b3d4d467 5fa2a2fd 45afafea     ...Ag......_...E
10019224:	239c9cbf 53a4a4f7 e4727296 9bc0c05b     ...#...S.rr.[...
10019234:	75b7b7c2 e1fdfd1c 3d9393ae 4c26266a     ...u.......=j&&L
10019244:	6c36365a 7e3f3f41 f5f7f702 83cccc4f     Z66lA??~....O...
10019254:	6834345c 51a5a5f4 d1e5e534 f9f1f108     \44h...Q4.......
10019264:	e2717193 abd8d873 62313153 2a15153f     .qq.s...S11b?..*
10019274:	0804040c 95c7c752 46232365 9dc3c35e     ....R...e##F^...
10019284:	30181828 379696a1 0a05050f 2f9a9ab5     (..0...7......./
10019294:	0e070709 24121236 1b80809b dfe2e23d     ....6..$....=...
100192a4:	cdebeb26 4e272769 7fb2b2cd ea75759f     &...i''N.....uu.
100192b4:	1209091b 1d83839e 582c2c74 341a1a2e     ........t,,X...4
100192c4:	361b1b2d dc6e6eb2 b45a5aee 5ba0a0fb     -..6.nn..ZZ....[
100192d4:	a45252f6 763b3b4d b7d6d661 7db3b3ce     .RR.M;;va......}
100192e4:	5229297b dde3e33e 5e2f2f71 13848497     {))R>...q//^....
100192f4:	a65353f5 b9d1d168 00000000 c1eded2c     .SS.h.......,...
10019304:	40202060 e3fcfc1f 79b1b1c8 b65b5bed     `  @.......y.[[.
10019314:	d46a6abe 8dcbcb46 67bebed9 7239394b     .jj.F......gK99r
10019324:	944a4ade 984c4cd4 b05858e8 85cfcf4a     .JJ..LL..XX.J...
10019334:	bbd0d06b c5efef2a 4faaaae5 edfbfb16     k...*......O....
10019344:	864343c5 9a4d4dd7 66333355 11858594     .CC..MM.U33f....
10019354:	8a4545cf e9f9f910 04020206 fe7f7f81     .EE.............
10019364:	a05050f0 783c3c44 259f9fba 4ba8a8e3     .PP.D<<x...%...K
10019374:	a25151f3 5da3a3fe 804040c0 058f8f8a     .QQ....].@@.....
10019384:	3f9292ad 219d9dbc 70383848 f1f5f504     ...?...!H88p....
10019394:	63bcbcdf 77b6b6c1 afdada75 42212163     ...c...wu...c!!B
100193a4:	20101030 e5ffff1a fdf3f30e bfd2d26d     0.. ........m...
100193b4:	81cdcd4c 180c0c14 26131335 c3ecec2f     L.......5..&/...
100193c4:	be5f5fe1 359797a2 884444cc 2e171739     .__....5.DD.9...
100193d4:	93c4c457 55a7a7f2 fc7e7e82 7a3d3d47     W......U.~~.G==z
100193e4:	c86464ac ba5d5de7 3219192b e6737395     .dd..]].+..2.ss.
100193f4:	c06060a0 19818198 9e4f4fd1 a3dcdc7f     .``......OO.....
10019404:	44222266 542a2a7e 3b9090ab 0b888883     f""D~**T...;....
10019414:	8c4646ca c7eeee29 6bb8b8d3 2814143c     .FF.)......k<..(
10019424:	a7dede79 bc5e5ee2 160b0b1d addbdb76     y....^^.....v...
10019434:	dbe0e03b 64323256 743a3a4e 140a0a1e     ;...V22dN::t....
10019444:	924949db 0c06060a 4824246c b85c5ce4     .II.....l$$H.\\.
10019454:	9fc2c25d bdd3d36e 43acacef c46262a6     ]...n......C.bb.
10019464:	399191a8 319595a4 d3e4e437 f279798b     ...9...17....yy.
10019474:	d5e7e732 8bc8c843 6e373759 da6d6db7     2...C...Y77n.mm.
10019484:	018d8d8c b1d5d564 9c4e4ed2 49a9a9e0     ....d....NN....I
10019494:	d86c6cb4 ac5656fa f3f4f407 cfeaea25     .ll..VV.....%...
100194a4:	ca6565af f47a7a8e 47aeaee9 10080818     .ee..zz....G....
100194b4:	6fbabad5 f0787888 4a25256f 5c2e2e72     ...o.xx.o%%Jr..\
100194c4:	381c1c24 57a6a6f1 73b4b4c7 97c6c651     $..8...W...sQ...
100194d4:	cbe8e823 a1dddd7c e874749c 3e1f1f21     #...|....tt.!..>
100194e4:	964b4bdd 61bdbddc 0d8b8b86 0f8a8a85     .KK....a........
100194f4:	e0707090 7c3e3e42 71b5b5c4 cc6666aa     .pp.B>>|...q.ff.
10019504:	904848d8 06030305 f7f6f601 1c0e0e12     .HH.............
10019514:	c26161a3 6a35355f ae5757f9 69b9b9d0     .aa._55j.WW....i
10019524:	17868691 99c1c158 3a1d1d27 279e9eb9     ....X...'..:...'
10019534:	d9e1e138 ebf8f813 2b9898b3 22111133     8..........+3.."
10019544:	d26969bb a9d9d970 078e8e89 339494a7     .ii.p..........3
10019554:	2d9b9bb6 3c1e1e22 15878792 c9e9e920     ...-"..<.... ...
10019564:	87cece49 aa5555ff 50282878 a5dfdf7a     I....UU.x((Pz...
10019574:	038c8c8f 59a1a1f8 09898980 1a0d0d17     .......Y........
10019584:	65bfbfda d7e6e631 844242c6 d06868b8     ...e1....BB..hh.
10019594:	824141c3 299999b0 5a2d2d77 1e0f0f11     .AA....)w--Z....
100195a4:	7bb0b0cb a85454fc 6dbbbbd6 2c16163a     ...{.TT....m:..,
100195b4:	a5c66363 84f87c7c 99ee7777 8df67b7b     cc..||..ww..{{..
100195c4:	0dfff2f2 bdd66b6b b1de6f6f 5491c5c5     ....kk..oo.....T
100195d4:	50603030 03020101 a9ce6767 7d562b2b     00`P....gg..++V}
100195e4:	19e7fefe 62b5d7d7 e64dabab 9aec7676     .......b..M.vv..
100195f4:	458fcaca 9d1f8282 4089c9c9 87fa7d7d     ...E.......@}}..
10019604:	15effafa ebb25959 c98e4747 0bfbf0f0     ....YY..GG......
10019614:	ec41adad 67b3d4d4 fd5fa2a2 ea45afaf     ..A....g.._...E.
10019624:	bf239c9c f753a4a4 96e47272 5b9bc0c0     ..#...S.rr.....[
10019634:	c275b7b7 1ce1fdfd ae3d9393 6a4c2626     ..u.......=.&&Lj
10019644:	5a6c3636 417e3f3f 02f5f7f7 4f83cccc     66lZ??~A.......O
10019654:	5c683434 f451a5a5 34d1e5e5 08f9f1f1     44h\..Q....4....
10019664:	93e27171 73abd8d8 53623131 3f2a1515     qq.....s11bS..*?
10019674:	0c080404 5295c7c7 65462323 5e9dc3c3     .......R##Fe...^
10019684:	28301818 a1379696 0f0a0505 b52f9a9a     ..0(..7......./.
10019694:	090e0707 36241212 9b1b8080 3ddfe2e2     ......$6.......=
100196a4:	26cdebeb 694e2727 cd7fb2b2 9fea7575     ...&''Ni....uu..
100196b4:	1b120909 9e1d8383 74582c2c 2e341a1a     ........,,Xt..4.
100196c4:	2d361b1b b2dc6e6e eeb45a5a fb5ba0a0     ..6-nn..ZZ....[.
100196d4:	f6a45252 4d763b3b 61b7d6d6 ce7db3b3     RR..;;vM...a..}.
100196e4:	7b522929 3edde3e3 715e2f2f 97138484     ))R{...>//^q....
100196f4:	f5a65353 68b9d1d1 00000000 2cc1eded     SS.....h.......,
10019704:	60402020 1fe3fcfc c879b1b1 edb65b5b       @`......y.[[..
10019714:	bed46a6a 468dcbcb d967bebe 4b723939     jj.....F..g.99rK
10019724:	de944a4a d4984c4c e8b05858 4a85cfcf     JJ..LL..XX.....J
10019734:	6bbbd0d0 2ac5efef e54faaaa 16edfbfb     ...k...*..O.....
10019744:	c5864343 d79a4d4d 55663333 94118585     CC..MM..33fU....
10019754:	cf8a4545 10e9f9f9 06040202 81fe7f7f     EE..............
10019764:	f0a05050 44783c3c ba259f9f e34ba8a8     PP..<<xD..%...K.
10019774:	f3a25151 fe5da3a3 c0804040 8a058f8f     QQ....].@@......
10019784:	ad3f9292 bc219d9d 48703838 04f1f5f5     ..?...!.88pH....
10019794:	df63bcbc c177b6b6 75afdada 63422121     ..c...w....u!!Bc
100197a4:	30201010 1ae5ffff 0efdf3f3 6dbfd2d2     .. 0...........m
100197b4:	4c81cdcd 14180c0c 35261313 2fc3ecec     ...L......&5.../
100197c4:	e1be5f5f a2359797 cc884444 392e1717     __....5.DD.....9
100197d4:	5793c4c4 f255a7a7 82fc7e7e 477a3d3d     ...W..U.~~..==zG
100197e4:	acc86464 e7ba5d5d 2b321919 95e67373     dd..]]....2+ss..
100197f4:	a0c06060 98198181 d19e4f4f 7fa3dcdc     ``......OO......
10019804:	66442222 7e542a2a ab3b9090 830b8888     ""Df**T~..;.....
10019814:	ca8c4646 29c7eeee d36bb8b8 3c281414     FF.....)..k...(<
10019824:	79a7dede e2bc5e5e 1d160b0b 76addbdb     ...y^^.........v
10019834:	3bdbe0e0 56643232 4e743a3a 1e140a0a     ...;22dV::tN....
10019844:	db924949 0a0c0606 6c482424 e4b85c5c     II......$$Hl\\..
10019854:	5d9fc2c2 6ebdd3d3 ef43acac a6c46262     ...]...n..C.bb..
10019864:	a8399191 a4319595 37d3e4e4 8bf27979     ..9...1....7yy..
10019874:	32d5e7e7 438bc8c8 596e3737 b7da6d6d     ...2...C77nYmm..
10019884:	8c018d8d 64b1d5d5 d29c4e4e e049a9a9     .......dNN....I.
10019894:	b4d86c6c faac5656 07f3f4f4 25cfeaea     ll..VV.........%
100198a4:	afca6565 8ef47a7a e947aeae 18100808     ee..zz....G.....
100198b4:	d56fbaba 88f07878 6f4a2525 725c2e2e     ..o.xx..%%Jo..\r
100198c4:	24381c1c f157a6a6 c773b4b4 5197c6c6     ..8$..W...s....Q
100198d4:	23cbe8e8 7ca1dddd 9ce87474 213e1f1f     ...#...|tt....>!
100198e4:	dd964b4b dc61bdbd 860d8b8b 850f8a8a     KK....a.........
100198f4:	90e07070 427c3e3e c471b5b5 aacc6666     pp..>>|B..q.ff..
10019904:	d8904848 05060303 01f7f6f6 121c0e0e     HH..............
10019914:	a3c26161 5f6a3535 f9ae5757 d069b9b9     aa..55j_WW....i.
10019924:	91178686 5899c1c1 273a1d1d b9279e9e     .......X..:'..'.
10019934:	38d9e1e1 13ebf8f8 b32b9898 33221111     ...8......+..."3
10019944:	bbd26969 70a9d9d9 89078e8e a7339494     ii.....p......3.
10019954:	b62d9b9b 223c1e1e 92158787 20c9e9e9     ..-...<"....... 
10019964:	4987cece ffaa5555 78502828 7aa5dfdf     ...IUU..((Px...z
10019974:	8f038c8c f859a1a1 80098989 171a0d0d     ......Y.........
10019984:	da65bfbf 31d7e6e6 c6844242 b8d06868     ..e....1BB..hh..
10019994:	c3824141 b0299999 775a2d2d 111e0f0f     AA....).--Zw....
100199a4:	cb7bb0b0 fca85454 d66dbbbb 3a2c1616     ..{.TT....m...,:
100199b4:	63a5c663 7c84f87c 7799ee77 7b8df67b     c..c|..|w..w{..{
100199c4:	f20dfff2 6bbdd66b 6fb1de6f c55491c5     ....k..ko..o..T.
100199d4:	30506030 01030201 67a9ce67 2b7d562b     0`P0....g..g+V}+
100199e4:	fe19e7fe d762b5d7 abe64dab 769aec76     ......b..M..v..v
100199f4:	ca458fca 829d1f82 c94089c9 7d87fa7d     ..E.......@.}..}
10019a04:	fa15effa 59ebb259 47c98e47 f00bfbf0     ....Y..YG..G....
10019a14:	adec41ad d467b3d4 a2fd5fa2 afea45af     .A....g.._...E..
10019a24:	9cbf239c a4f753a4 7296e472 c05b9bc0     .#...S..r..r..[.
10019a34:	b7c275b7 fd1ce1fd 93ae3d93 266a4c26     .u.......=..&Lj&
10019a44:	365a6c36 3f417e3f f702f5f7 cc4f83cc     6lZ6?~A?......O.
10019a54:	345c6834 a5f451a5 e534d1e5 f108f9f1     4h\4.Q....4.....
10019a64:	7193e271 d873abd8 31536231 153f2a15     q..q..s.1bS1.*?.
10019a74:	040c0804 c75295c7 23654623 c35e9dc3     ......R.#Fe#..^.
10019a84:	18283018 96a13796 050f0a05 9ab52f9a     .0(..7......./..
10019a94:	07090e07 12362412 809b1b80 e23ddfe2     .....$6.......=.
10019aa4:	eb26cdeb 27694e27 b2cd7fb2 759fea75     ..&.'Ni'....u..u
10019ab4:	091b1209 839e1d83 2c74582c 1a2e341a     ........,Xt,.4..
10019ac4:	1b2d361b 6eb2dc6e 5aeeb45a a0fb5ba0     .6-.n..nZ..Z.[..
10019ad4:	52f6a452 3b4d763b d661b7d6 b3ce7db3     R..R;vM;..a..}..
10019ae4:	297b5229 e33edde3 2f715e2f 84971384     )R{)..>./^q/....
10019af4:	53f5a653 d168b9d1 00000000 ed2cc1ed     S..S..h.......,.
10019b04:	20604020 fc1fe3fc b1c879b1 5bedb65b      @` .....y..[..[
10019b14:	6abed46a cb468dcb bed967be 394b7239     j..j..F..g..9rK9
10019b24:	4ade944a 4cd4984c 58e8b058 cf4a85cf     J..JL..LX..X..J.
10019b34:	d06bbbd0 ef2ac5ef aae54faa fb16edfb     ..k...*..O......
10019b44:	43c58643 4dd79a4d 33556633 85941185     C..CM..M3fU3....
10019b54:	45cf8a45 f910e9f9 02060402 7f81fe7f     E..E............
10019b64:	50f0a050 3c44783c 9fba259f a8e34ba8     P..P<xD<.%...K..
10019b74:	51f3a251 a3fe5da3 40c08040 8f8a058f     Q..Q.]..@..@....
10019b84:	92ad3f92 9dbc219d 38487038 f504f1f5     .?...!..8pH8....
10019b94:	bcdf63bc b6c177b6 da75afda 21634221     .c...w....u.!Bc!
10019ba4:	10302010 ff1ae5ff f30efdf3 d26dbfd2     . 0...........m.
10019bb4:	cd4c81cd 0c14180c 13352613 ec2fc3ec     ..L......&5.../.
10019bc4:	5fe1be5f 97a23597 44cc8844 17392e17     _.._.5..D..D..9.
10019bd4:	c45793c4 a7f255a7 7e82fc7e 3d477a3d     ..W..U..~..~=zG=
10019be4:	64acc864 5de7ba5d 192b3219 7395e673     d..d]..].2+.s..s
10019bf4:	60a0c060 81981981 4fd19e4f dc7fa3dc     `..`....O..O....
10019c04:	22664422 2a7e542a 90ab3b90 88830b88     "Df"*T~*.;......
10019c14:	46ca8c46 ee29c7ee b8d36bb8 143c2814     F..F..)..k...(<.
10019c24:	de79a7de 5ee2bc5e 0b1d160b db76addb     ..y.^..^......v.
10019c34:	e03bdbe0 32566432 3a4e743a 0a1e140a     ..;.2dV2:tN:....
10019c44:	49db9249 060a0c06 246c4824 5ce4b85c     I..I....$Hl$\..\
10019c54:	c25d9fc2 d36ebdd3 acef43ac 62a6c462     ..]...n..C..b..b
10019c64:	91a83991 95a43195 e437d3e4 798bf279     .9...1....7.y..y
10019c74:	e732d5e7 c8438bc8 37596e37 6db7da6d     ..2...C.7nY7m..m
10019c84:	8d8c018d d564b1d5 4ed29c4e a9e049a9     ......d.N..N.I..
10019c94:	6cb4d86c 56faac56 f407f3f4 ea25cfea     l..lV..V......%.
10019ca4:	65afca65 7a8ef47a aee947ae 08181008     e..ez..z.G......
10019cb4:	bad56fba 7888f078 256f4a25 2e725c2e     .o..x..x%Jo%.\r.
10019cc4:	1c24381c a6f157a6 b4c773b4 c65197c6     .8$..W...s....Q.
10019cd4:	e823cbe8 dd7ca1dd 749ce874 1f213e1f     ..#...|.t..t.>!.
10019ce4:	4bdd964b bddc61bd 8b860d8b 8a850f8a     K..K.a..........
10019cf4:	7090e070 3e427c3e b5c471b5 66aacc66     p..p>|B>.q..f..f
10019d04:	48d89048 03050603 f601f7f6 0e121c0e     H..H............
10019d14:	61a3c261 355f6a35 57f9ae57 b9d069b9     a..a5j_5W..W.i..
10019d24:	86911786 c15899c1 1d273a1d 9eb9279e     ......X..:'..'..
10019d34:	e138d9e1 f813ebf8 98b32b98 11332211     ..8......+..."3.
10019d44:	69bbd269 d970a9d9 8e89078e 94a73394     i..i..p......3..
10019d54:	9bb62d9b 1e223c1e 87921587 e920c9e9     .-...<"....... .
10019d64:	ce4987ce 55ffaa55 28785028 df7aa5df     ..I.U..U(Px(..z.
10019d74:	8c8f038c a1f859a1 89800989 0d171a0d     .....Y..........
10019d84:	bfda65bf e631d7e6 42c68442 68b8d068     .e....1.B..Bh..h
10019d94:	41c38241 99b02999 2d775a2d 0f111e0f     A..A.)..-Zw-....
10019da4:	b0cb7bb0 54fca854 bbd66dbb 163a2c16     .{..T..T.m...,:.
10019db4:	6363a5c6 7c7c84f8 777799ee 7b7b8df6     ..cc..||..ww..{{
10019dc4:	f2f20dff 6b6bbdd6 6f6fb1de c5c55491     ......kk..oo.T..
10019dd4:	30305060 01010302 6767a9ce 2b2b7d56     `P00......ggV}++
10019de4:	fefe19e7 d7d762b5 ababe64d 76769aec     .....b..M.....vv
10019df4:	caca458f 82829d1f c9c94089 7d7d87fa     .E.......@....}}
10019e04:	fafa15ef 5959ebb2 4747c98e f0f00bfb     ......YY..GG....
10019e14:	adadec41 d4d467b3 a2a2fd5f afafea45     A....g.._...E...
10019e24:	9c9cbf23 a4a4f753 727296e4 c0c05b9b     #...S.....rr.[..
10019e34:	b7b7c275 fdfd1ce1 9393ae3d 26266a4c     u.......=...Lj&&
10019e44:	36365a6c 3f3f417e f7f702f5 cccc4f83     lZ66~A??.....O..
10019e54:	34345c68 a5a5f451 e5e534d1 f1f108f9     h\44Q....4......
10019e64:	717193e2 d8d873ab 31315362 15153f2a     ..qq.s..bS11*?..
10019e74:	04040c08 c7c75295 23236546 c3c35e9d     .....R..Fe##.^..
10019e84:	18182830 9696a137 05050f0a 9a9ab52f     0(..7......./...
10019e94:	0707090e 12123624 80809b1b e2e23ddf     ....$6.......=..
10019ea4:	ebeb26cd 2727694e b2b2cd7f 75759fea     .&..Ni''......uu
10019eb4:	09091b12 83839e1d 2c2c7458 1a1a2e34     ........Xt,,4...
10019ec4:	1b1b2d36 6e6eb2dc 5a5aeeb4 a0a0fb5b     6-....nn..ZZ[...
10019ed4:	5252f6a4 3b3b4d76 d6d661b7 b3b3ce7d     ..RRvM;;.a..}...
10019ee4:	29297b52 e3e33edd 2f2f715e 84849713     R{)).>..^q//....
10019ef4:	5353f5a6 d1d168b9 00000000 eded2cc1     ..SS.h.......,..
10019f04:	20206040 fcfc1fe3 b1b1c879 5b5bedb6     @`  ....y.....[[
10019f14:	6a6abed4 cbcb468d bebed967 39394b72     ..jj.F..g...rK99
10019f24:	4a4ade94 4c4cd498 5858e8b0 cfcf4a85     ..JJ..LL..XX.J..
10019f34:	d0d06bbb efef2ac5 aaaae54f fbfb16ed     .k...*..O.......
10019f44:	4343c586 4d4dd79a 33335566 85859411     ..CC..MMfU33....
10019f54:	4545cf8a f9f910e9 02020604 7f7f81fe     ..EE............
10019f64:	5050f0a0 3c3c4478 9f9fba25 a8a8e34b     ..PPxD<<%...K...
10019f74:	5151f3a2 a3a3fe5d 4040c080 8f8f8a05     ..QQ].....@@....
10019f84:	9292ad3f 9d9dbc21 38384870 f5f504f1     ?...!...pH88....
10019f94:	bcbcdf63 b6b6c177 dada75af 21216342     c...w....u..Bc!!
10019fa4:	10103020 ffff1ae5 f3f30efd d2d26dbf      0...........m..
10019fb4:	cdcd4c81 0c0c1418 13133526 ecec2fc3     .L......&5.../..
10019fc4:	5f5fe1be 9797a235 4444cc88 1717392e     ..__5.....DD.9..
10019fd4:	c4c45793 a7a7f255 7e7e82fc 3d3d477a     .W..U.....~~zG==
10019fe4:	6464acc8 5d5de7ba 19192b32 737395e6     ..dd..]]2+....ss
10019ff4:	6060a0c0 81819819 4f4fd19e dcdc7fa3     ..``......OO....
1001a004:	22226644 2a2a7e54 9090ab3b 8888830b     Df""T~**;.......
1001a014:	4646ca8c eeee29c7 b8b8d36b 14143c28     ..FF.)..k...(<..
1001a024:	dede79a7 5e5ee2bc 0b0b1d16 dbdb76ad     .y....^^.....v..
1001a034:	e0e03bdb 32325664 3a3a4e74 0a0a1e14     .;..dV22tN::....
1001a044:	4949db92 06060a0c 24246c48 5c5ce4b8     ..II....Hl$$..\\
1001a054:	c2c25d9f d3d36ebd acacef43 6262a6c4     .]...n..C.....bb
1001a064:	9191a839 9595a431 e4e437d3 79798bf2     9...1....7....yy
1001a074:	e7e732d5 c8c8438b 3737596e 6d6db7da     .2...C..nY77..mm
1001a084:	8d8d8c01 d5d564b1 4e4ed29c a9a9e049     .....d....NNI...
1001a094:	6c6cb4d8 5656faac f4f407f3 eaea25cf     ..ll..VV.....%..
1001a0a4:	6565afca 7a7a8ef4 aeaee947 08081810     ..ee..zzG.......
1001a0b4:	babad56f 787888f0 25256f4a 2e2e725c     o.....xxJo%%\r..
1001a0c4:	1c1c2438 a6a6f157 b4b4c773 c6c65197     8$..W...s....Q..
1001a0d4:	e8e823cb dddd7ca1 74749ce8 1f1f213e     .#...|....tt>!..
1001a0e4:	4b4bdd96 bdbddc61 8b8b860d 8a8a850f     ..KKa...........
1001a0f4:	707090e0 3e3e427c b5b5c471 6666aacc     ..pp|B>>q.....ff
1001a104:	4848d890 03030506 f6f601f7 0e0e121c     ..HH............
1001a114:	6161a3c2 35355f6a 5757f9ae b9b9d069     ..aaj_55..WWi...
1001a124:	86869117 c1c15899 1d1d273a 9e9eb927     .....X..:'..'...
1001a134:	e1e138d9 f8f813eb 9898b32b 11113322     .8......+..."3..
1001a144:	6969bbd2 d9d970a9 8e8e8907 9494a733     ..ii.p......3...
1001a154:	9b9bb62d 1e1e223c 87879215 e9e920c9     -...<"....... ..
1001a164:	cece4987 5555ffaa 28287850 dfdf7aa5     .I....UUPx((.z..
1001a174:	8c8c8f03 a1a1f859 89898009 0d0d171a     ....Y...........
1001a184:	bfbfda65 e6e631d7 4242c684 6868b8d0     e....1....BB..hh
1001a194:	4141c382 9999b029 2d2d775a 0f0f111e     ..AA)...Zw--....
1001a1a4:	b0b0cb7b 5454fca8 bbbbd66d 16163a2c     {.....TTm...,:..

1001a1b4 <rcon>:
1001a1b4:	01000000 02000000 04000000 08000000     ................
1001a1c4:	10000000 20000000 40000000 80000000     ....... ...@....
1001a1d4:	1b000000 36000000                       .......6

1001a1dc <num_leds>:
1001a1dc:	00000003                                ....

1001a1e0 <led_pin>:
1001a1e0:	40080400 00000001 00010001 40080400     ...@...........@
1001a1f0:	00000002 00010001 40080400 00000004     ...........@....
1001a200:	00010001                                ....

1001a204 <num_pbs>:
1001a204:	00000002                                ....

1001a208 <pb_pin>:
1001a208:	40008000 00000004 00010100 40009000     ...@...........@
1001a218:	00000080 00010100                       ........

1001a220 <gpio_cfg_uart3>:
1001a220:	40080400 000000c0 00000003              ...@........

1001a22c <gpio_cfg_uart2>:
1001a22c:	40009000 00000003 00000002              ...@........

1001a238 <gpio_cfg_uart1>:
1001a238:	40008000 00003000 00000002              ...@.0......

1001a244 <gpio_cfg_uart0>:
1001a244:	40008000 00000003 00000002              ...@........

1001a250 <gpio_cfg_extclk>:
1001a250:	40008000 00000008 00000002              ...@........

1001a25c <CSWTCH.16>:
1001a25c:	40008000 40009000 40080400 40080600     ...@...@...@...@

1001a26c <_ctype_>:
1001a26c:	20202000 20202020 28282020 20282828     .         ((((( 
1001a27c:	20202020 20202020 20202020 20202020                     
1001a28c:	10108820 10101010 10101010 10101010      ...............
1001a29c:	04040410 04040404 10040404 10101010     ................
1001a2ac:	41411010 41414141 01010101 01010101     ..AAAAAA........
1001a2bc:	01010101 01010101 01010101 10101010     ................
1001a2cc:	42421010 42424242 02020202 02020202     ..BBBBBB........
1001a2dc:	02020202 02020202 02020202 10101010     ................
1001a2ec:	00000020 00000000 00000000 00000000      ...............
	...

1001a370 <blanks.1>:
1001a370:	20202020 20202020 20202020 20202020                     

1001a380 <zeroes.0>:
1001a380:	30303030 30303030 30303030 30303030     0000000000000000

1001a390 <p05.0>:
1001a390:	00000005 00000019 0000007d 00000000     ........}.......

1001a3a0 <__mprec_tens>:
1001a3a0:	00000000 3ff00000 00000000 40240000     .......?......$@
1001a3b0:	00000000 40590000 00000000 408f4000     ......Y@.....@.@
1001a3c0:	00000000 40c38800 00000000 40f86a00     .......@.....j.@
1001a3d0:	00000000 412e8480 00000000 416312d0     .......A......cA
1001a3e0:	00000000 4197d784 00000000 41cdcd65     .......A....e..A
1001a3f0:	20000000 4202a05f e8000000 42374876     ... _..B....vH7B
1001a400:	a2000000 426d1a94 e5400000 42a2309c     ......mB..@..0.B
1001a410:	1e900000 42d6bcc4 26340000 430c6bf5     .......B..4&.k.C
1001a420:	37e08000 4341c379 85d8a000 43763457     ...7y.AC....W4vC
1001a430:	674ec800 43abc16d 60913d00 43e158e4     ..Ngm..C.=.`.X.C
1001a440:	78b58c40 4415af1d d6e2ef50 444b1ae4     @..x...DP.....KD
1001a450:	064dd592 4480f0cf c7e14af6 44b52d02     ..M....D.J...-.D
1001a460:	79d99db4 44ea7843                       ...yCx.D

1001a468 <__mprec_tinytens>:
1001a468:	97d889bc 3c9cd2b2 d5a8a733 3949f623     .......<3...#.I9
1001a478:	44f4a73d 32a50ffd cf8c979d 255bba08     =..D...2......[%
1001a488:	64ac6f43 0ac80628                       Co.d(...

1001a490 <__mprec_bigtens>:
1001a490:	37e08000 4341c379 b5056e17 4693b8b5     ...7y.AC.n.....F
1001a4a0:	e93ff9f5 4d384f03 f9301d32 5a827748     ..?..O8M2.0.Hw.Z
1001a4b0:	7f73bf3c 75154fdd                       <.s..O.u

1001a4b8 <blanks.1>:
1001a4b8:	20202020 20202020 20202020 20202020                     

1001a4c8 <zeroes.0>:
1001a4c8:	30303030 30303030 30303030 30303030     0000000000000000

1001a4d8 <_init>:
1001a4d8:	b5f8      	push	{r3, r4, r5, r6, r7, lr}
1001a4da:	bf00      	nop
1001a4dc:	bcf8      	pop	{r3, r4, r5, r6, r7}
1001a4de:	bc08      	pop	{r3}
1001a4e0:	469e      	mov	lr, r3
1001a4e2:	4770      	bx	lr

1001a4e4 <_fini>:
1001a4e4:	b5f8      	push	{r3, r4, r5, r6, r7, lr}
1001a4e6:	bf00      	nop
1001a4e8:	bcf8      	pop	{r3, r4, r5, r6, r7}
1001a4ea:	bc08      	pop	{r3}
1001a4ec:	469e      	mov	lr, r3
1001a4ee:	4770      	bx	lr

1001a4f0 <__MXC_FLC_RevA_Write32Using128_veneer>:
1001a4f0:	f85f f000 	ldr.w	pc, [pc]	@ 1001a4f4 <__MXC_FLC_RevA_Write32Using128_veneer+0x4>
1001a4f4:	20000939 	.word	0x20000939

1001a4f8 <__MXC_FLC_PageErase_veneer>:
1001a4f8:	f85f f000 	ldr.w	pc, [pc]	@ 1001a4fc <__MXC_FLC_PageErase_veneer+0x4>
1001a4fc:	200006c9 	.word	0x200006c9

1001a500 <__MXC_FLC_Com_Write_veneer>:
1001a500:	f85f f000 	ldr.w	pc, [pc]	@ 1001a504 <__MXC_FLC_Com_Write_veneer+0x4>
1001a504:	20000ac9 	.word	0x20000ac9

1001a508 <__MXC_FLC_Com_Read_veneer>:
1001a508:	f85f f000 	ldr.w	pc, [pc]	@ 1001a50c <__MXC_FLC_Com_Read_veneer+0x4>
1001a50c:	20000b9d 	.word	0x20000b9d

1001a510 <__EH_FRAME_BEGIN__>:
1001a510:	00000010 00000000 00527a01 010e7c02     .........zR..|..
1001a520:	000d0c1b 0000001c 00000018 ffff6dd4     .............m..
1001a530:	000000d8 080e4100 02840185 4a0a4902     .....A.......I.J
1001a540:	0b41c4c5 00000010 00000000 00527a01     ..A..........zR.
1001a550:	010e7c02 000d0c1b 00000014 00000018     .|..............
1001a560:	ffff7580 00000134 0a710200 00000b43     .u..4.....q.C...
1001a570:	00000010 00000000 00527a01 010e7c02     .........zR..|..
1001a580:	000d0c1b 00000038 00000018 ffff98b4     ....8...........
1001a590:	0000009e 100e5100 03850484 01870286     .....Q..........
1001a5a0:	c5c6c75b 4c000ec4 0a0b420a 100e0b42     [......L.B..B...
1001a5b0:	03850484 01870286 c5c6c751 00000ec4     ........Q.......

1001a5c0 <__FRAME_END__>:
1001a5c0:	00000000                                ....

Disassembly of section .data:

20000000 <ConsoleUart>:
20000000:	40042000                                . .@

20000004 <overflows>:
20000004:	ffffffff                                ....

20000008 <flc_int>:
20000008:	40029000 00000000                       ...@....

20000010 <_impure_ptr>:
20000010:	20000018 00000000                       ... ....

20000018 <_impure_data>:
20000018:	00000000 20001434 2000149c 20001504     ....4.. ... ... 
	...
200000b0:	00000001 00000000 abcd330e e66d1234     .........3..4.m.
200000c0:	0005deec 0000000b 00000000 00000000     ................
	...

20000138 <__sglue>:
20000138:	00000000 00000003 20001434 00000000     ........4.. ....

20000148 <__malloc_av_>:
	...
20000150:	20000148 20000148 20000150 20000150     H.. H.. P.. P.. 
20000160:	20000158 20000158 20000160 20000160     X.. X.. `.. `.. 
20000170:	20000168 20000168 20000170 20000170     h.. h.. p.. p.. 
20000180:	20000178 20000178 20000180 20000180     x.. x.. ... ... 
20000190:	20000188 20000188 20000190 20000190     ... ... ... ... 
200001a0:	20000198 20000198 200001a0 200001a0     ... ... ... ... 
200001b0:	200001a8 200001a8 200001b0 200001b0     ... ... ... ... 
200001c0:	200001b8 200001b8 200001c0 200001c0     ... ... ... ... 
200001d0:	200001c8 200001c8 200001d0 200001d0     ... ... ... ... 
200001e0:	200001d8 200001d8 200001e0 200001e0     ... ... ... ... 
200001f0:	200001e8 200001e8 200001f0 200001f0     ... ... ... ... 
20000200:	200001f8 200001f8 20000200 20000200     ... ... ... ... 
20000210:	20000208 20000208 20000210 20000210     ... ... ... ... 
20000220:	20000218 20000218 20000220 20000220     ... ...  ..  .. 
20000230:	20000228 20000228 20000230 20000230     (.. (.. 0.. 0.. 
20000240:	20000238 20000238 20000240 20000240     8.. 8.. @.. @.. 
20000250:	20000248 20000248 20000250 20000250     H.. H.. P.. P.. 
20000260:	20000258 20000258 20000260 20000260     X.. X.. `.. `.. 
20000270:	20000268 20000268 20000270 20000270     h.. h.. p.. p.. 
20000280:	20000278 20000278 20000280 20000280     x.. x.. ... ... 
20000290:	20000288 20000288 20000290 20000290     ... ... ... ... 
200002a0:	20000298 20000298 200002a0 200002a0     ... ... ... ... 
200002b0:	200002a8 200002a8 200002b0 200002b0     ... ... ... ... 
200002c0:	200002b8 200002b8 200002c0 200002c0     ... ... ... ... 
200002d0:	200002c8 200002c8 200002d0 200002d0     ... ... ... ... 
200002e0:	200002d8 200002d8 200002e0 200002e0     ... ... ... ... 
200002f0:	200002e8 200002e8 200002f0 200002f0     ... ... ... ... 
20000300:	200002f8 200002f8 20000300 20000300     ... ... ... ... 
20000310:	20000308 20000308 20000310 20000310     ... ... ... ... 
20000320:	20000318 20000318 20000320 20000320     ... ...  ..  .. 
20000330:	20000328 20000328 20000330 20000330     (.. (.. 0.. 0.. 
20000340:	20000338 20000338 20000340 20000340     8.. 8.. @.. @.. 
20000350:	20000348 20000348 20000350 20000350     H.. H.. P.. P.. 
20000360:	20000358 20000358 20000360 20000360     X.. X.. `.. `.. 
20000370:	20000368 20000368 20000370 20000370     h.. h.. p.. p.. 
20000380:	20000378 20000378 20000380 20000380     x.. x.. ... ... 
20000390:	20000388 20000388 20000390 20000390     ... ... ... ... 
200003a0:	20000398 20000398 200003a0 200003a0     ... ... ... ... 
200003b0:	200003a8 200003a8 200003b0 200003b0     ... ... ... ... 
200003c0:	200003b8 200003b8 200003c0 200003c0     ... ... ... ... 
200003d0:	200003c8 200003c8 200003d0 200003d0     ... ... ... ... 
200003e0:	200003d8 200003d8 200003e0 200003e0     ... ... ... ... 
200003f0:	200003e8 200003e8 200003f0 200003f0     ... ... ... ... 
20000400:	200003f8 200003f8 20000400 20000400     ... ... ... ... 
20000410:	20000408 20000408 20000410 20000410     ... ... ... ... 
20000420:	20000418 20000418 20000420 20000420     ... ...  ..  .. 
20000430:	20000428 20000428 20000430 20000430     (.. (.. 0.. 0.. 
20000440:	20000438 20000438 20000440 20000440     8.. 8.. @.. @.. 
20000450:	20000448 20000448 20000450 20000450     H.. H.. P.. P.. 
20000460:	20000458 20000458 20000460 20000460     X.. X.. `.. `.. 
20000470:	20000468 20000468 20000470 20000470     h.. h.. p.. p.. 
20000480:	20000478 20000478 20000480 20000480     x.. x.. ... ... 
20000490:	20000488 20000488 20000490 20000490     ... ... ... ... 
200004a0:	20000498 20000498 200004a0 200004a0     ... ... ... ... 
200004b0:	200004a8 200004a8 200004b0 200004b0     ... ... ... ... 
200004c0:	200004b8 200004b8 200004c0 200004c0     ... ... ... ... 
200004d0:	200004c8 200004c8 200004d0 200004d0     ... ... ... ... 
200004e0:	200004d8 200004d8 200004e0 200004e0     ... ... ... ... 
200004f0:	200004e8 200004e8 200004f0 200004f0     ... ... ... ... 
20000500:	200004f8 200004f8 20000500 20000500     ... ... ... ... 
20000510:	20000508 20000508 20000510 20000510     ... ... ... ... 
20000520:	20000518 20000518 20000520 20000520     ... ...  ..  .. 
20000530:	20000528 20000528 20000530 20000530     (.. (.. 0.. 0.. 
20000540:	20000538 20000538 20000540 20000540     8.. 8.. @.. @.. 

20000550 <__malloc_sbrk_base>:
20000550:	ffffffff                                ....

20000554 <__malloc_trim_threshold>:
20000554:	00020000                                ....

20000558 <__global_locale>:
20000558:	00000043 00000000 00000000 00000000     C...............
	...
20000578:	00000043 00000000 00000000 00000000     C...............
	...
20000598:	00000043 00000000 00000000 00000000     C...............
	...
200005b8:	00000043 00000000 00000000 00000000     C...............
	...
200005d8:	00000043 00000000 00000000 00000000     C...............
	...
200005f8:	00000043 00000000 00000000 00000000     C...............
	...
20000618:	00000043 00000000 00000000 00000000     C...............
	...
20000638:	100161c5 100160c5 00000000 1001a26c     .a...`......l...
20000648:	100181b0 10017e78 10017e78 10017e78     ....x~..x~..x~..
20000658:	10017e78 10017e78 10017e78 10017e78     x~..x~..x~..x~..
20000668:	10017e78 10017e78 ffffffff ffffffff     x~..x~..........
20000678:	ffffffff 0000ffff 53410001 00494943     ..........ASCII.
	...
200006a0:	53410000 00494943 00000000 00000000     ..ASCII.........
	...

200006c4 <MXC_FLC_Busy>:
    return MXC_FLC_RevA_Busy();
200006c4:	f000 b864 	b.w	20000790 <MXC_FLC_RevA_Busy>

200006c8 <MXC_FLC_PageErase>:
    if ((addr >= MXC_FLASH_MEM_BASE) && (addr < (MXC_FLASH_MEM_BASE + MXC_FLASH_MEM_SIZE))) {
200006c8:	f100 4370 	add.w	r3, r0, #4026531840	@ 0xf0000000
200006cc:	f5b3 2f00 	cmp.w	r3, #524288	@ 0x80000
200006d0:	d320      	bcc.n	20000714 <MXC_FLC_PageErase+0x4c>
    } else if ((addr >= MXC_INFO_MEM_BASE) && (addr < (MXC_INFO_MEM_BASE + MXC_INFO_MEM_SIZE))) {
200006d2:	f1a0 5384 	sub.w	r3, r0, #276824064	@ 0x10800000
200006d6:	f5b3 4f80 	cmp.w	r3, #16384	@ 0x4000
200006da:	d21e      	bcs.n	2000071a <MXC_FLC_PageErase+0x52>
        *result = (addr & (MXC_INFO_MEM_SIZE - 1)) + MXC_FLASH_MEM_SIZE;
200006dc:	f3c0 000d 	ubfx	r0, r0, #0, #14
200006e0:	f500 2100 	add.w	r1, r0, #524288	@ 0x80000
{
200006e4:	b500      	push	{lr}
    err = MXC_FLC_RevA_PageErase((mxc_flc_reva_regs_t *)flc, addr);
200006e6:	480e      	ldr	r0, [pc, #56]	@ (20000720 <MXC_FLC_PageErase+0x58>)
{
200006e8:	b083      	sub	sp, #12
    err = MXC_FLC_RevA_PageErase((mxc_flc_reva_regs_t *)flc, addr);
200006ea:	f000 f897 	bl	2000081c <MXC_FLC_RevA_PageErase>
    MXC_GCR->sysctrl |= MXC_F_GCR_SYSCTRL_ICC0_FLUSH;
200006ee:	f04f 4280 	mov.w	r2, #1073741824	@ 0x40000000
200006f2:	6813      	ldr	r3, [r2, #0]
200006f4:	f043 0340 	orr.w	r3, r3, #64	@ 0x40
200006f8:	6013      	str	r3, [r2, #0]
    while (MXC_GCR->sysctrl & MXC_F_GCR_SYSCTRL_ICC0_FLUSH) {}
200006fa:	6813      	ldr	r3, [r2, #0]
200006fc:	065b      	lsls	r3, r3, #25
200006fe:	d4fc      	bmi.n	200006fa <MXC_FLC_PageErase+0x32>
    line = *line_addr;
20000700:	f04f 5280 	mov.w	r2, #268435456	@ 0x10000000
    line = *line_addr;
20000704:	4b07      	ldr	r3, [pc, #28]	@ (20000724 <MXC_FLC_PageErase+0x5c>)
    line = *line_addr;
20000706:	6812      	ldr	r2, [r2, #0]
20000708:	9201      	str	r2, [sp, #4]
    line = *line_addr;
2000070a:	681b      	ldr	r3, [r3, #0]
2000070c:	9301      	str	r3, [sp, #4]
}
2000070e:	b003      	add	sp, #12
20000710:	f85d fb04 	ldr.w	pc, [sp], #4
        *result = addr & (MXC_FLASH_MEM_SIZE - 1);
20000714:	f3c0 0112 	ubfx	r1, r0, #0, #19
20000718:	e7e4      	b.n	200006e4 <MXC_FLC_PageErase+0x1c>
        return err;
2000071a:	f06f 0002 	mvn.w	r0, #2
}
2000071e:	4770      	bx	lr
20000720:	40029000 	.word	0x40029000
20000724:	10002000 	.word	0x10002000

20000728 <MXC_FLC_Write128>:
    if (address & 0xF) {
20000728:	0702      	lsls	r2, r0, #28
2000072a:	d129      	bne.n	20000780 <MXC_FLC_Write128+0x58>
    if ((addr >= MXC_FLASH_MEM_BASE) && (addr < (MXC_FLASH_MEM_BASE + MXC_FLASH_MEM_SIZE))) {
2000072c:	f100 4370 	add.w	r3, r0, #4026531840	@ 0xf0000000
20000730:	f5b3 2f00 	cmp.w	r3, #524288	@ 0x80000
20000734:	460a      	mov	r2, r1
20000736:	d320      	bcc.n	2000077a <MXC_FLC_Write128+0x52>
    } else if ((addr >= MXC_INFO_MEM_BASE) && (addr < (MXC_INFO_MEM_BASE + MXC_INFO_MEM_SIZE))) {
20000738:	f1a0 5384 	sub.w	r3, r0, #276824064	@ 0x10800000
2000073c:	f5b3 4f80 	cmp.w	r3, #16384	@ 0x4000
20000740:	d21e      	bcs.n	20000780 <MXC_FLC_Write128+0x58>
        *result = (addr & (MXC_INFO_MEM_SIZE - 1)) + MXC_FLASH_MEM_SIZE;
20000742:	f3c0 000d 	ubfx	r0, r0, #0, #14
20000746:	f500 2100 	add.w	r1, r0, #524288	@ 0x80000
{
2000074a:	b500      	push	{lr}
    err = MXC_FLC_RevA_Write128((mxc_flc_reva_regs_t *)flc, addr, data);
2000074c:	480e      	ldr	r0, [pc, #56]	@ (20000788 <MXC_FLC_Write128+0x60>)
{
2000074e:	b083      	sub	sp, #12
    err = MXC_FLC_RevA_Write128((mxc_flc_reva_regs_t *)flc, addr, data);
20000750:	f000 f958 	bl	20000a04 <MXC_FLC_RevA_Write128>
    MXC_GCR->sysctrl |= MXC_F_GCR_SYSCTRL_ICC0_FLUSH;
20000754:	f04f 4280 	mov.w	r2, #1073741824	@ 0x40000000
20000758:	6813      	ldr	r3, [r2, #0]
2000075a:	f043 0340 	orr.w	r3, r3, #64	@ 0x40
2000075e:	6013      	str	r3, [r2, #0]
    while (MXC_GCR->sysctrl & MXC_F_GCR_SYSCTRL_ICC0_FLUSH) {}
20000760:	6813      	ldr	r3, [r2, #0]
20000762:	065b      	lsls	r3, r3, #25
20000764:	d4fc      	bmi.n	20000760 <MXC_FLC_Write128+0x38>
    line = *line_addr;
20000766:	f04f 5280 	mov.w	r2, #268435456	@ 0x10000000
    line = *line_addr;
2000076a:	4b08      	ldr	r3, [pc, #32]	@ (2000078c <MXC_FLC_Write128+0x64>)
    line = *line_addr;
2000076c:	6812      	ldr	r2, [r2, #0]
2000076e:	9201      	str	r2, [sp, #4]
    line = *line_addr;
20000770:	681b      	ldr	r3, [r3, #0]
20000772:	9301      	str	r3, [sp, #4]
}
20000774:	b003      	add	sp, #12
20000776:	f85d fb04 	ldr.w	pc, [sp], #4
        *result = addr & (MXC_FLASH_MEM_SIZE - 1);
2000077a:	f3c0 0112 	ubfx	r1, r0, #0, #19
2000077e:	e7e4      	b.n	2000074a <MXC_FLC_Write128+0x22>
        return E_BAD_PARAM;
20000780:	f06f 0002 	mvn.w	r0, #2
}
20000784:	4770      	bx	lr
20000786:	bf00      	nop
20000788:	40029000 	.word	0x40029000
2000078c:	10002000 	.word	0x10002000

20000790 <MXC_FLC_RevA_Busy>:
    return (flc->ctrl &
20000790:	4b02      	ldr	r3, [pc, #8]	@ (2000079c <MXC_FLC_RevA_Busy+0xc>)
20000792:	6898      	ldr	r0, [r3, #8]
}
20000794:	f000 0007 	and.w	r0, r0, #7
20000798:	4770      	bx	lr
2000079a:	bf00      	nop
2000079c:	40029000 	.word	0x40029000

200007a0 <MXC_FLC_RevA_MassErase>:
    return (flc->ctrl &
200007a0:	6882      	ldr	r2, [r0, #8]
{
200007a2:	4603      	mov	r3, r0
    if (MXC_busy_flc(flc)) {
200007a4:	0750      	lsls	r0, r2, #29
200007a6:	d12a      	bne.n	200007fe <MXC_FLC_RevA_MassErase+0x5e>
    flc->clkdiv = SystemCoreClock / 1000000;
200007a8:	4a1a      	ldr	r2, [pc, #104]	@ (20000814 <MXC_FLC_RevA_MassErase+0x74>)
200007aa:	491b      	ldr	r1, [pc, #108]	@ (20000818 <MXC_FLC_RevA_MassErase+0x78>)
200007ac:	6812      	ldr	r2, [r2, #0]
200007ae:	fba1 1202 	umull	r1, r2, r1, r2
200007b2:	0c92      	lsrs	r2, r2, #18
200007b4:	605a      	str	r2, [r3, #4]
    if (flc->intr & MXC_F_FLC_REVA_INTR_AF) {
200007b6:	6a5a      	ldr	r2, [r3, #36]	@ 0x24
200007b8:	0791      	lsls	r1, r2, #30
200007ba:	d41b      	bmi.n	200007f4 <MXC_FLC_RevA_MassErase+0x54>
    flc->ctrl = (flc->ctrl & ~MXC_F_FLC_REVA_CTRL_UNLOCK) | MXC_S_FLC_REVA_CTRL_UNLOCK_UNLOCKED;
200007bc:	689a      	ldr	r2, [r3, #8]
200007be:	f022 4270 	bic.w	r2, r2, #4026531840	@ 0xf0000000
200007c2:	f042 5200 	orr.w	r2, r2, #536870912	@ 0x20000000
200007c6:	609a      	str	r2, [r3, #8]
    flc->ctrl = (flc->ctrl & ~MXC_F_FLC_REVA_CTRL_ERASE_CODE) |
200007c8:	689a      	ldr	r2, [r3, #8]
200007ca:	f422 427f 	bic.w	r2, r2, #65280	@ 0xff00
200007ce:	f442 422a 	orr.w	r2, r2, #43520	@ 0xaa00
200007d2:	609a      	str	r2, [r3, #8]
    flc->ctrl |= MXC_F_FLC_REVA_CTRL_ME;
200007d4:	689a      	ldr	r2, [r3, #8]
200007d6:	f042 0202 	orr.w	r2, r2, #2
200007da:	609a      	str	r2, [r3, #8]
    return (flc->ctrl &
200007dc:	689a      	ldr	r2, [r3, #8]
    while (MXC_busy_flc(flc)) {}
200007de:	0752      	lsls	r2, r2, #29
200007e0:	d1fc      	bne.n	200007dc <MXC_FLC_RevA_MassErase+0x3c>
    flc->ctrl &= ~MXC_F_FLC_REVA_CTRL_UNLOCK;
200007e2:	689a      	ldr	r2, [r3, #8]
200007e4:	f022 4270 	bic.w	r2, r2, #4026531840	@ 0xf0000000
200007e8:	609a      	str	r2, [r3, #8]
    if (flc->intr & MXC_F_FLC_REVA_INTR_AF) {
200007ea:	6a58      	ldr	r0, [r3, #36]	@ 0x24
200007ec:	f010 0002 	ands.w	r0, r0, #2
200007f0:	d108      	bne.n	20000804 <MXC_FLC_RevA_MassErase+0x64>
}
200007f2:	4770      	bx	lr
        flc->intr &= ~MXC_F_FLC_REVA_INTR_AF;
200007f4:	6a5a      	ldr	r2, [r3, #36]	@ 0x24
200007f6:	f022 0202 	bic.w	r2, r2, #2
200007fa:	625a      	str	r2, [r3, #36]	@ 0x24
200007fc:	e7de      	b.n	200007bc <MXC_FLC_RevA_MassErase+0x1c>
        return err;
200007fe:	f06f 0005 	mvn.w	r0, #5
20000802:	e7f6      	b.n	200007f2 <MXC_FLC_RevA_MassErase+0x52>
        flc->intr &= ~MXC_F_FLC_REVA_INTR_AF;
20000804:	6a5a      	ldr	r2, [r3, #36]	@ 0x24
20000806:	f022 0202 	bic.w	r2, r2, #2
        return E_BAD_STATE;
2000080a:	f06f 0006 	mvn.w	r0, #6
        flc->intr &= ~MXC_F_FLC_REVA_INTR_AF;
2000080e:	625a      	str	r2, [r3, #36]	@ 0x24
        return E_BAD_STATE;
20000810:	4770      	bx	lr
20000812:	bf00      	nop
20000814:	2000173c 	.word	0x2000173c
20000818:	431bde83 	.word	0x431bde83

2000081c <MXC_FLC_RevA_PageErase>:
    return (flc->ctrl &
2000081c:	6882      	ldr	r2, [r0, #8]
    if (MXC_busy_flc(flc)) {
2000081e:	0752      	lsls	r2, r2, #29
{
20000820:	4603      	mov	r3, r0
    if (MXC_busy_flc(flc)) {
20000822:	d12b      	bne.n	2000087c <MXC_FLC_RevA_PageErase+0x60>
    flc->clkdiv = SystemCoreClock / 1000000;
20000824:	4a1a      	ldr	r2, [pc, #104]	@ (20000890 <MXC_FLC_RevA_PageErase+0x74>)
20000826:	481b      	ldr	r0, [pc, #108]	@ (20000894 <MXC_FLC_RevA_PageErase+0x78>)
20000828:	6812      	ldr	r2, [r2, #0]
2000082a:	fba0 0202 	umull	r0, r2, r0, r2
2000082e:	0c92      	lsrs	r2, r2, #18
20000830:	605a      	str	r2, [r3, #4]
    if (flc->intr & MXC_F_FLC_REVA_INTR_AF) {
20000832:	6a5a      	ldr	r2, [r3, #36]	@ 0x24
20000834:	0790      	lsls	r0, r2, #30
20000836:	d41c      	bmi.n	20000872 <MXC_FLC_RevA_PageErase+0x56>
    flc->ctrl = (flc->ctrl & ~MXC_F_FLC_REVA_CTRL_UNLOCK) | MXC_S_FLC_REVA_CTRL_UNLOCK_UNLOCKED;
20000838:	689a      	ldr	r2, [r3, #8]
2000083a:	f022 4270 	bic.w	r2, r2, #4026531840	@ 0xf0000000
2000083e:	f042 5200 	orr.w	r2, r2, #536870912	@ 0x20000000
20000842:	609a      	str	r2, [r3, #8]
    flc->ctrl = (flc->ctrl & ~MXC_F_FLC_REVA_CTRL_ERASE_CODE) |
20000844:	689a      	ldr	r2, [r3, #8]
20000846:	f422 427f 	bic.w	r2, r2, #65280	@ 0xff00
2000084a:	f442 42aa 	orr.w	r2, r2, #21760	@ 0x5500
2000084e:	609a      	str	r2, [r3, #8]
    flc->addr = addr;
20000850:	6019      	str	r1, [r3, #0]
    flc->ctrl |= MXC_F_FLC_REVA_CTRL_PGE;
20000852:	689a      	ldr	r2, [r3, #8]
20000854:	f042 0204 	orr.w	r2, r2, #4
20000858:	609a      	str	r2, [r3, #8]
    return (flc->ctrl &
2000085a:	689a      	ldr	r2, [r3, #8]
    while (MXC_busy_flc(flc)) {}
2000085c:	0752      	lsls	r2, r2, #29
2000085e:	d1fc      	bne.n	2000085a <MXC_FLC_RevA_PageErase+0x3e>
    flc->ctrl &= ~MXC_F_FLC_REVA_CTRL_UNLOCK;
20000860:	689a      	ldr	r2, [r3, #8]
20000862:	f022 4270 	bic.w	r2, r2, #4026531840	@ 0xf0000000
20000866:	609a      	str	r2, [r3, #8]
    if (flc->intr & MXC_F_FLC_REVA_INTR_AF) {
20000868:	6a58      	ldr	r0, [r3, #36]	@ 0x24
2000086a:	f010 0002 	ands.w	r0, r0, #2
2000086e:	d108      	bne.n	20000882 <MXC_FLC_RevA_PageErase+0x66>
}
20000870:	4770      	bx	lr
        flc->intr &= ~MXC_F_FLC_REVA_INTR_AF;
20000872:	6a5a      	ldr	r2, [r3, #36]	@ 0x24
20000874:	f022 0202 	bic.w	r2, r2, #2
20000878:	625a      	str	r2, [r3, #36]	@ 0x24
2000087a:	e7dd      	b.n	20000838 <MXC_FLC_RevA_PageErase+0x1c>
        return err;
2000087c:	f06f 0005 	mvn.w	r0, #5
20000880:	e7f6      	b.n	20000870 <MXC_FLC_RevA_PageErase+0x54>
        flc->intr &= ~MXC_F_FLC_REVA_INTR_AF;
20000882:	6a5a      	ldr	r2, [r3, #36]	@ 0x24
20000884:	f022 0202 	bic.w	r2, r2, #2
        return E_BAD_STATE;
20000888:	f06f 0006 	mvn.w	r0, #6
        flc->intr &= ~MXC_F_FLC_REVA_INTR_AF;
2000088c:	625a      	str	r2, [r3, #36]	@ 0x24
        return E_BAD_STATE;
2000088e:	4770      	bx	lr
20000890:	2000173c 	.word	0x2000173c
20000894:	431bde83 	.word	0x431bde83

20000898 <MXC_FLC_RevA_Write32>:
    if (logicAddr & 0x3) {
20000898:	078b      	lsls	r3, r1, #30
2000089a:	d139      	bne.n	20000910 <MXC_FLC_RevA_Write32+0x78>
    if ((*(uint32_t *)logicAddr & data) != data) {
2000089c:	4603      	mov	r3, r0
2000089e:	6808      	ldr	r0, [r1, #0]
200008a0:	ea32 0000 	bics.w	r0, r2, r0
200008a4:	d141      	bne.n	2000092a <MXC_FLC_RevA_Write32+0x92>
    return (flc->ctrl &
200008a6:	6898      	ldr	r0, [r3, #8]
    if (MXC_busy_flc(flc)) {
200008a8:	0740      	lsls	r0, r0, #29
    logicAddr = logicAddr & 0xfffffffc;
200008aa:	f021 0103 	bic.w	r1, r1, #3
    if (MXC_busy_flc(flc)) {
200008ae:	d132      	bne.n	20000916 <MXC_FLC_RevA_Write32+0x7e>
    flc->clkdiv = SystemCoreClock / 1000000;
200008b0:	481f      	ldr	r0, [pc, #124]	@ (20000930 <MXC_FLC_RevA_Write32+0x98>)
{
200008b2:	b410      	push	{r4}
    flc->clkdiv = SystemCoreClock / 1000000;
200008b4:	6800      	ldr	r0, [r0, #0]
200008b6:	4c1f      	ldr	r4, [pc, #124]	@ (20000934 <MXC_FLC_RevA_Write32+0x9c>)
200008b8:	fba4 4000 	umull	r4, r0, r4, r0
200008bc:	0c80      	lsrs	r0, r0, #18
200008be:	6058      	str	r0, [r3, #4]
    if (flc->intr & MXC_F_FLC_REVA_INTR_AF) {
200008c0:	6a58      	ldr	r0, [r3, #36]	@ 0x24
200008c2:	0780      	lsls	r0, r0, #30
200008c4:	d41f      	bmi.n	20000906 <MXC_FLC_RevA_Write32+0x6e>
    flc->ctrl = (flc->ctrl & ~MXC_F_FLC_REVA_CTRL_UNLOCK) | MXC_S_FLC_REVA_CTRL_UNLOCK_UNLOCKED;
200008c6:	6898      	ldr	r0, [r3, #8]
200008c8:	f020 4070 	bic.w	r0, r0, #4026531840	@ 0xf0000000
200008cc:	f040 5000 	orr.w	r0, r0, #536870912	@ 0x20000000
200008d0:	6098      	str	r0, [r3, #8]
    flc->ctrl |= MXC_F_FLC_REVA_CTRL_WDTH;
200008d2:	6898      	ldr	r0, [r3, #8]
200008d4:	f040 0010 	orr.w	r0, r0, #16
200008d8:	6098      	str	r0, [r3, #8]
    flc->addr = logicAddr;
200008da:	6019      	str	r1, [r3, #0]
    flc->data[0] = data;
200008dc:	631a      	str	r2, [r3, #48]	@ 0x30
    flc->ctrl |= MXC_F_FLC_REVA_CTRL_WR;
200008de:	689a      	ldr	r2, [r3, #8]
200008e0:	f042 0201 	orr.w	r2, r2, #1
200008e4:	609a      	str	r2, [r3, #8]
    while ((flc->ctrl & MXC_F_FLC_REVA_CTRL_PEND) != 0) {}
200008e6:	689a      	ldr	r2, [r3, #8]
200008e8:	01d1      	lsls	r1, r2, #7
200008ea:	d4fc      	bmi.n	200008e6 <MXC_FLC_RevA_Write32+0x4e>
    return (flc->ctrl &
200008ec:	689a      	ldr	r2, [r3, #8]
    while (MXC_busy_flc(flc)) {}
200008ee:	0752      	lsls	r2, r2, #29
200008f0:	d1fc      	bne.n	200008ec <MXC_FLC_RevA_Write32+0x54>
    flc->ctrl &= ~MXC_F_FLC_REVA_CTRL_UNLOCK;
200008f2:	689a      	ldr	r2, [r3, #8]
200008f4:	f022 4270 	bic.w	r2, r2, #4026531840	@ 0xf0000000
200008f8:	609a      	str	r2, [r3, #8]
    if (flc->intr & MXC_F_FLC_REVA_INTR_AF) {
200008fa:	6a58      	ldr	r0, [r3, #36]	@ 0x24
200008fc:	f010 0002 	ands.w	r0, r0, #2
20000900:	d10c      	bne.n	2000091c <MXC_FLC_RevA_Write32+0x84>
}
20000902:	bc10      	pop	{r4}
20000904:	4770      	bx	lr
        flc->intr &= ~MXC_F_FLC_REVA_INTR_AF;
20000906:	6a58      	ldr	r0, [r3, #36]	@ 0x24
20000908:	f020 0002 	bic.w	r0, r0, #2
2000090c:	6258      	str	r0, [r3, #36]	@ 0x24
2000090e:	e7da      	b.n	200008c6 <MXC_FLC_RevA_Write32+0x2e>
        return E_BAD_PARAM;
20000910:	f06f 0002 	mvn.w	r0, #2
20000914:	4770      	bx	lr
        return err;
20000916:	f06f 0005 	mvn.w	r0, #5
2000091a:	4770      	bx	lr
        flc->intr &= ~MXC_F_FLC_REVA_INTR_AF;
2000091c:	6a5a      	ldr	r2, [r3, #36]	@ 0x24
2000091e:	f022 0202 	bic.w	r2, r2, #2
20000922:	625a      	str	r2, [r3, #36]	@ 0x24
        return E_BAD_STATE;
20000924:	f06f 0006 	mvn.w	r0, #6
20000928:	e7eb      	b.n	20000902 <MXC_FLC_RevA_Write32+0x6a>
2000092a:	f06f 0006 	mvn.w	r0, #6
}
2000092e:	4770      	bx	lr
20000930:	2000173c 	.word	0x2000173c
20000934:	431bde83 	.word	0x431bde83

20000938 <MXC_FLC_RevA_Write32Using128>:
{
20000938:	b570      	push	{r4, r5, r6, lr}
2000093a:	4684      	mov	ip, r0
2000093c:	b084      	sub	sp, #16
    uint32_t current_data[4] = { 0, 0, 0, 0 };
2000093e:	2000      	movs	r0, #0
    if (logicAddr & 0x3) {
20000940:	078e      	lsls	r6, r1, #30
    uint32_t current_data[4] = { 0, 0, 0, 0 };
20000942:	e9cd 0000 	strd	r0, r0, [sp]
20000946:	e9cd 0002 	strd	r0, r0, [sp, #8]
    if (logicAddr & 0x3) {
2000094a:	d150      	bne.n	200009ee <MXC_FLC_RevA_Write32Using128+0xb6>
    if ((*(uint32_t *)logicAddr & data) != data) {
2000094c:	6808      	ldr	r0, [r1, #0]
2000094e:	ea32 0000 	bics.w	r0, r2, r0
20000952:	d149      	bne.n	200009e8 <MXC_FLC_RevA_Write32Using128+0xb0>
    return (flc->ctrl &
20000954:	f8dc 4008 	ldr.w	r4, [ip, #8]
    if (MXC_busy_flc(flc)) {
20000958:	0765      	lsls	r5, r4, #29
    logicAddr = logicAddr & 0xfffffff0;
2000095a:	f021 000f 	bic.w	r0, r1, #15
    if (MXC_busy_flc(flc)) {
2000095e:	d149      	bne.n	200009f4 <MXC_FLC_RevA_Write32Using128+0xbc>
    flc->clkdiv = SystemCoreClock / 1000000;
20000960:	4c26      	ldr	r4, [pc, #152]	@ (200009fc <MXC_FLC_RevA_Write32Using128+0xc4>)
20000962:	4d27      	ldr	r5, [pc, #156]	@ (20000a00 <MXC_FLC_RevA_Write32Using128+0xc8>)
20000964:	6824      	ldr	r4, [r4, #0]
20000966:	fba5 5404 	umull	r5, r4, r5, r4
2000096a:	0ca4      	lsrs	r4, r4, #18
2000096c:	f8cc 4004 	str.w	r4, [ip, #4]
    if (flc->intr & MXC_F_FLC_REVA_INTR_AF) {
20000970:	f8dc 4024 	ldr.w	r4, [ip, #36]	@ 0x24
20000974:	07a4      	lsls	r4, r4, #30
20000976:	d425      	bmi.n	200009c4 <MXC_FLC_RevA_Write32Using128+0x8c>
    flc->ctrl = (flc->ctrl & ~MXC_F_FLC_REVA_CTRL_UNLOCK) | MXC_S_FLC_REVA_CTRL_UNLOCK_UNLOCKED;
20000978:	f8dc 4008 	ldr.w	r4, [ip, #8]
2000097c:	f024 4470 	bic.w	r4, r4, #4026531840	@ 0xf0000000
20000980:	f044 5400 	orr.w	r4, r4, #536870912	@ 0x20000000
20000984:	f8cc 4008 	str.w	r4, [ip, #8]
    for (ptr = (uint32_t *)logicAddr; ptr < (uint32_t *)(logicAddr + 16); ptr++, i++) {
20000988:	f100 0410 	add.w	r4, r0, #16
2000098c:	42a0      	cmp	r0, r4
2000098e:	4686      	mov	lr, r0
20000990:	d20d      	bcs.n	200009ae <MXC_FLC_RevA_Write32Using128+0x76>
20000992:	1d05      	adds	r5, r0, #4
20000994:	42ac      	cmp	r4, r5
20000996:	bf34      	ite	cc
20000998:	2401      	movcc	r4, #1
2000099a:	2404      	movcs	r4, #4
2000099c:	eb00 0484 	add.w	r4, r0, r4, lsl #2
200009a0:	466d      	mov	r5, sp
        current_data[i] = *ptr;
200009a2:	f85e 6b04 	ldr.w	r6, [lr], #4
200009a6:	f845 6b04 	str.w	r6, [r5], #4
    for (ptr = (uint32_t *)logicAddr; ptr < (uint32_t *)(logicAddr + 16); ptr++, i++) {
200009aa:	45a6      	cmp	lr, r4
200009ac:	d1f9      	bne.n	200009a2 <MXC_FLC_RevA_Write32Using128+0x6a>
    if (byte < 4) {
200009ae:	f011 0f0c 	tst.w	r1, #12
    flc->addr = physicalAddr;
200009b2:	f8cc 3000 	str.w	r3, [ip]
    if (byte < 4) {
200009b6:	d10c      	bne.n	200009d2 <MXC_FLC_RevA_Write32Using128+0x9a>
        current_data[0] = data;
200009b8:	9200      	str	r2, [sp, #0]
    return MXC_FLC_Write128(logicAddr, current_data);
200009ba:	4669      	mov	r1, sp
200009bc:	f7ff feb4 	bl	20000728 <MXC_FLC_Write128>
}
200009c0:	b004      	add	sp, #16
200009c2:	bd70      	pop	{r4, r5, r6, pc}
        flc->intr &= ~MXC_F_FLC_REVA_INTR_AF;
200009c4:	f8dc 4024 	ldr.w	r4, [ip, #36]	@ 0x24
200009c8:	f024 0402 	bic.w	r4, r4, #2
200009cc:	f8cc 4024 	str.w	r4, [ip, #36]	@ 0x24
200009d0:	e7d2      	b.n	20000978 <MXC_FLC_RevA_Write32Using128+0x40>
    } else if (byte < 8) {
200009d2:	070b      	lsls	r3, r1, #28
200009d4:	d401      	bmi.n	200009da <MXC_FLC_RevA_Write32Using128+0xa2>
        current_data[1] = data;
200009d6:	9201      	str	r2, [sp, #4]
200009d8:	e7ef      	b.n	200009ba <MXC_FLC_RevA_Write32Using128+0x82>
    byte = (logicAddr & 0xf);
200009da:	f001 010f 	and.w	r1, r1, #15
    } else if (byte < 12) {
200009de:	290b      	cmp	r1, #11
        current_data[2] = data;
200009e0:	bf94      	ite	ls
200009e2:	9202      	strls	r2, [sp, #8]
        current_data[3] = data;
200009e4:	9203      	strhi	r2, [sp, #12]
200009e6:	e7e8      	b.n	200009ba <MXC_FLC_RevA_Write32Using128+0x82>
        return E_BAD_STATE;
200009e8:	f06f 0006 	mvn.w	r0, #6
200009ec:	e7e8      	b.n	200009c0 <MXC_FLC_RevA_Write32Using128+0x88>
        return E_BAD_PARAM;
200009ee:	f06f 0002 	mvn.w	r0, #2
200009f2:	e7e5      	b.n	200009c0 <MXC_FLC_RevA_Write32Using128+0x88>
        return err;
200009f4:	f06f 0005 	mvn.w	r0, #5
200009f8:	e7e2      	b.n	200009c0 <MXC_FLC_RevA_Write32Using128+0x88>
200009fa:	bf00      	nop
200009fc:	2000173c 	.word	0x2000173c
20000a00:	431bde83 	.word	0x431bde83

20000a04 <MXC_FLC_RevA_Write128>:
    if (addr & 0xF) {
20000a04:	070b      	lsls	r3, r1, #28
20000a06:	d13a      	bne.n	20000a7e <MXC_FLC_RevA_Write128+0x7a>
    return (flc->ctrl &
20000a08:	4603      	mov	r3, r0
20000a0a:	6880      	ldr	r0, [r0, #8]
    if (MXC_busy_flc(flc)) {
20000a0c:	0740      	lsls	r0, r0, #29
20000a0e:	d139      	bne.n	20000a84 <MXC_FLC_RevA_Write128+0x80>
    flc->clkdiv = SystemCoreClock / 1000000;
20000a10:	4821      	ldr	r0, [pc, #132]	@ (20000a98 <MXC_FLC_RevA_Write128+0x94>)
{
20000a12:	b410      	push	{r4}
    flc->clkdiv = SystemCoreClock / 1000000;
20000a14:	6800      	ldr	r0, [r0, #0]
20000a16:	4c21      	ldr	r4, [pc, #132]	@ (20000a9c <MXC_FLC_RevA_Write128+0x98>)
20000a18:	fba4 4000 	umull	r4, r0, r4, r0
20000a1c:	0c80      	lsrs	r0, r0, #18
20000a1e:	6058      	str	r0, [r3, #4]
    if (flc->intr & MXC_F_FLC_REVA_INTR_AF) {
20000a20:	6a58      	ldr	r0, [r3, #36]	@ 0x24
20000a22:	0780      	lsls	r0, r0, #30
20000a24:	d426      	bmi.n	20000a74 <MXC_FLC_RevA_Write128+0x70>
    flc->ctrl = (flc->ctrl & ~MXC_F_FLC_REVA_CTRL_UNLOCK) | MXC_S_FLC_REVA_CTRL_UNLOCK_UNLOCKED;
20000a26:	6898      	ldr	r0, [r3, #8]
20000a28:	f020 4070 	bic.w	r0, r0, #4026531840	@ 0xf0000000
20000a2c:	f040 5000 	orr.w	r0, r0, #536870912	@ 0x20000000
20000a30:	6098      	str	r0, [r3, #8]
    flc->ctrl &= ~MXC_F_FLC_REVA_CTRL_WDTH;
20000a32:	6898      	ldr	r0, [r3, #8]
20000a34:	f020 0010 	bic.w	r0, r0, #16
20000a38:	6098      	str	r0, [r3, #8]
    flc->addr = addr;
20000a3a:	6019      	str	r1, [r3, #0]
    flc->data[0] = data[0];
20000a3c:	6811      	ldr	r1, [r2, #0]
20000a3e:	6319      	str	r1, [r3, #48]	@ 0x30
    flc->data[1] = data[1];
20000a40:	6851      	ldr	r1, [r2, #4]
20000a42:	6359      	str	r1, [r3, #52]	@ 0x34
    flc->data[2] = data[2];
20000a44:	6891      	ldr	r1, [r2, #8]
20000a46:	6399      	str	r1, [r3, #56]	@ 0x38
    flc->data[3] = data[3];
20000a48:	68d2      	ldr	r2, [r2, #12]
20000a4a:	63da      	str	r2, [r3, #60]	@ 0x3c
    flc->ctrl |= MXC_F_FLC_REVA_CTRL_WR;
20000a4c:	689a      	ldr	r2, [r3, #8]
20000a4e:	f042 0201 	orr.w	r2, r2, #1
20000a52:	609a      	str	r2, [r3, #8]
    while ((flc->ctrl & MXC_F_FLC_REVA_CTRL_PEND) != 0) {}
20000a54:	689a      	ldr	r2, [r3, #8]
20000a56:	01d1      	lsls	r1, r2, #7
20000a58:	d4fc      	bmi.n	20000a54 <MXC_FLC_RevA_Write128+0x50>
    return (flc->ctrl &
20000a5a:	689a      	ldr	r2, [r3, #8]
    while (MXC_busy_flc(flc)) {}
20000a5c:	0752      	lsls	r2, r2, #29
20000a5e:	d1fc      	bne.n	20000a5a <MXC_FLC_RevA_Write128+0x56>
    flc->ctrl &= ~MXC_F_FLC_REVA_CTRL_UNLOCK;
20000a60:	689a      	ldr	r2, [r3, #8]
20000a62:	f022 4270 	bic.w	r2, r2, #4026531840	@ 0xf0000000
20000a66:	609a      	str	r2, [r3, #8]
    if (flc->intr & MXC_F_FLC_REVA_INTR_AF) {
20000a68:	6a58      	ldr	r0, [r3, #36]	@ 0x24
20000a6a:	f010 0002 	ands.w	r0, r0, #2
20000a6e:	d10c      	bne.n	20000a8a <MXC_FLC_RevA_Write128+0x86>
}
20000a70:	bc10      	pop	{r4}
20000a72:	4770      	bx	lr
        flc->intr &= ~MXC_F_FLC_REVA_INTR_AF;
20000a74:	6a58      	ldr	r0, [r3, #36]	@ 0x24
20000a76:	f020 0002 	bic.w	r0, r0, #2
20000a7a:	6258      	str	r0, [r3, #36]	@ 0x24
20000a7c:	e7d3      	b.n	20000a26 <MXC_FLC_RevA_Write128+0x22>
        return E_BAD_PARAM;
20000a7e:	f06f 0002 	mvn.w	r0, #2
20000a82:	4770      	bx	lr
        return err;
20000a84:	f06f 0005 	mvn.w	r0, #5
}
20000a88:	4770      	bx	lr
        flc->intr &= ~MXC_F_FLC_REVA_INTR_AF;
20000a8a:	6a5a      	ldr	r2, [r3, #36]	@ 0x24
20000a8c:	f022 0202 	bic.w	r2, r2, #2
        return E_BAD_STATE;
20000a90:	f06f 0006 	mvn.w	r0, #6
        flc->intr &= ~MXC_F_FLC_REVA_INTR_AF;
20000a94:	625a      	str	r2, [r3, #36]	@ 0x24
        return E_BAD_STATE;
20000a96:	e7eb      	b.n	20000a70 <MXC_FLC_RevA_Write128+0x6c>
20000a98:	2000173c 	.word	0x2000173c
20000a9c:	431bde83 	.word	0x431bde83

20000aa0 <MXC_FLC_Com_VerifyData>:
// Length is number of 32-bit words
int MXC_FLC_Com_VerifyData(uint32_t address, uint32_t length, uint32_t *data)
{
    volatile uint32_t *ptr;

    for (ptr = (uint32_t *)address; ptr < (((uint32_t *)(address)) + length); ptr++, data++) {
20000aa0:	eb00 0c81 	add.w	ip, r0, r1, lsl #2
20000aa4:	4560      	cmp	r0, ip
20000aa6:	d20d      	bcs.n	20000ac4 <MXC_FLC_Com_VerifyData+0x24>
20000aa8:	3a04      	subs	r2, #4
20000aaa:	e001      	b.n	20000ab0 <MXC_FLC_Com_VerifyData+0x10>
20000aac:	4560      	cmp	r0, ip
20000aae:	d209      	bcs.n	20000ac4 <MXC_FLC_Com_VerifyData+0x24>
        if (*ptr != *data) {
20000ab0:	6801      	ldr	r1, [r0, #0]
20000ab2:	f852 3f04 	ldr.w	r3, [r2, #4]!
20000ab6:	4299      	cmp	r1, r3
    for (ptr = (uint32_t *)address; ptr < (((uint32_t *)(address)) + length); ptr++, data++) {
20000ab8:	f100 0004 	add.w	r0, r0, #4
        if (*ptr != *data) {
20000abc:	d0f6      	beq.n	20000aac <MXC_FLC_Com_VerifyData+0xc>
            return E_BAD_STATE;
20000abe:	f06f 0006 	mvn.w	r0, #6
        }
    }

    return E_NO_ERROR;
}
20000ac2:	4770      	bx	lr
    return E_NO_ERROR;
20000ac4:	2000      	movs	r0, #0
20000ac6:	4770      	bx	lr

20000ac8 <MXC_FLC_Com_Write>:
#else
__attribute__((section(".flashprog")))
#endif
// make sure to disable ICC with ICC_Disable(); before Running this function
int MXC_FLC_Com_Write(uint32_t address, uint32_t length, uint32_t *buffer)
{
20000ac8:	e92d 43f0 	stmdb	sp!, {r4, r5, r6, r7, r8, r9, lr}
    uint32_t current_data_32;
    uint8_t *current_data = (uint8_t *)&current_data_32;
    uint8_t *buffer8 = (uint8_t *)buffer;

    // Align the address to a word boundary and read/write if we have to
    if (address & 0x3) {
20000acc:	f010 0703 	ands.w	r7, r0, #3
{
20000ad0:	b087      	sub	sp, #28
20000ad2:	4604      	mov	r4, r0
20000ad4:	460e      	mov	r6, r1
20000ad6:	4615      	mov	r5, r2
    if (address & 0x3) {
20000ad8:	d00b      	beq.n	20000af2 <MXC_FLC_Com_Write+0x2a>
20000ada:	e012      	b.n	20000b02 <MXC_FLC_Com_Write+0x3a>
        length -= bytes_written;
        buffer8 += bytes_written;
    }

    // Align the address to a 4-word (128bit) boundary
    while ((length >= 4) && ((address & 0xF) != 0)) {
20000adc:	0723      	lsls	r3, r4, #28
20000ade:	d028      	beq.n	20000b32 <MXC_FLC_Com_Write+0x6a>
        memcpy(current_data, buffer8, 4);
20000ae0:	6829      	ldr	r1, [r5, #0]
20000ae2:	9101      	str	r1, [sp, #4]
        if ((err = MXC_FLC_Write32(address, current_data_32)) != E_NO_ERROR) {
20000ae4:	4620      	mov	r0, r4
20000ae6:	f000 f85f 	bl	20000ba8 <__MXC_FLC_Write32_veneer>
            return err;
        }

        address += 4;
        length -= 4;
20000aea:	3e04      	subs	r6, #4
        address += 4;
20000aec:	3404      	adds	r4, #4
        buffer8 += 4;
20000aee:	3504      	adds	r5, #4
        if ((err = MXC_FLC_Write32(address, current_data_32)) != E_NO_ERROR) {
20000af0:	b920      	cbnz	r0, 20000afc <MXC_FLC_Com_Write+0x34>
    while ((length >= 4) && ((address & 0xF) != 0)) {
20000af2:	2e03      	cmp	r6, #3
20000af4:	d8f2      	bhi.n	20000adc <MXC_FLC_Com_Write+0x14>
        address += 4;
        length -= 4;
        buffer8 += 4;
    }

    if (length > 0) {
20000af6:	2e00      	cmp	r6, #0
20000af8:	d141      	bne.n	20000b7e <MXC_FLC_Com_Write+0xb6>
        if ((err = MXC_FLC_Write32(address, current_data_32)) != E_NO_ERROR) {
            return err;
        }
    }

    return E_NO_ERROR;
20000afa:	4630      	mov	r0, r6
}
20000afc:	b007      	add	sp, #28
20000afe:	e8bd 83f0 	ldmia.w	sp!, {r4, r5, r6, r7, r8, r9, pc}
        memcpy(current_data, (void *)(address & (~0x3)), 4);
20000b02:	f020 0903 	bic.w	r9, r0, #3
        memcpy(&current_data[4 - bytes_written], buffer8, bytes_written);
20000b06:	ab01      	add	r3, sp, #4
        bytes_written = 4 - (address & 0x3);
20000b08:	f1c7 0804 	rsb	r8, r7, #4
        memcpy(&current_data[4 - bytes_written], buffer8, bytes_written);
20000b0c:	19d8      	adds	r0, r3, r7
20000b0e:	4629      	mov	r1, r5
        memcpy(current_data, (void *)(address & (~0x3)), 4);
20000b10:	f8d9 3000 	ldr.w	r3, [r9]
20000b14:	9301      	str	r3, [sp, #4]
        memcpy(&current_data[4 - bytes_written], buffer8, bytes_written);
20000b16:	4642      	mov	r2, r8
20000b18:	f000 f84a 	bl	20000bb0 <__memcpy_veneer>
        if ((err = MXC_FLC_Write32(address - (address % 4), current_data_32)) != E_NO_ERROR) {
20000b1c:	9901      	ldr	r1, [sp, #4]
20000b1e:	4648      	mov	r0, r9
20000b20:	f000 f842 	bl	20000ba8 <__MXC_FLC_Write32_veneer>
20000b24:	2800      	cmp	r0, #0
20000b26:	d1e9      	bne.n	20000afc <MXC_FLC_Com_Write+0x34>
        address += bytes_written;
20000b28:	3e04      	subs	r6, #4
20000b2a:	4444      	add	r4, r8
        length -= bytes_written;
20000b2c:	443e      	add	r6, r7
        buffer8 += bytes_written;
20000b2e:	4445      	add	r5, r8
20000b30:	e7df      	b.n	20000af2 <MXC_FLC_Com_Write+0x2a>
    if (length >= 16) {
20000b32:	2e0f      	cmp	r6, #15
20000b34:	d802      	bhi.n	20000b3c <MXC_FLC_Com_Write+0x74>
20000b36:	e015      	b.n	20000b64 <MXC_FLC_Com_Write+0x9c>
        while (length >= 16) {
20000b38:	2e0f      	cmp	r6, #15
20000b3a:	d911      	bls.n	20000b60 <MXC_FLC_Com_Write+0x98>
            memcpy(buff128, buffer8, 16);
20000b3c:	6828      	ldr	r0, [r5, #0]
20000b3e:	6869      	ldr	r1, [r5, #4]
20000b40:	68aa      	ldr	r2, [r5, #8]
20000b42:	68eb      	ldr	r3, [r5, #12]
20000b44:	f10d 0c08 	add.w	ip, sp, #8
20000b48:	e8ac 000f 	stmia.w	ip!, {r0, r1, r2, r3}
            if ((err = MXC_FLC_Write128(address, buff128)) != E_NO_ERROR) {
20000b4c:	4620      	mov	r0, r4
20000b4e:	a902      	add	r1, sp, #8
20000b50:	f7ff fdea 	bl	20000728 <MXC_FLC_Write128>
            length -= 16;
20000b54:	3e10      	subs	r6, #16
            address += 16;
20000b56:	3410      	adds	r4, #16
            buffer8 += 16;
20000b58:	3510      	adds	r5, #16
            if ((err = MXC_FLC_Write128(address, buff128)) != E_NO_ERROR) {
20000b5a:	2800      	cmp	r0, #0
20000b5c:	d0ec      	beq.n	20000b38 <MXC_FLC_Com_Write+0x70>
20000b5e:	e7cd      	b.n	20000afc <MXC_FLC_Com_Write+0x34>
    while (length >= 4) {
20000b60:	2e03      	cmp	r6, #3
20000b62:	d9c8      	bls.n	20000af6 <MXC_FLC_Com_Write+0x2e>
        memcpy(current_data, buffer8, 4);
20000b64:	6829      	ldr	r1, [r5, #0]
20000b66:	9101      	str	r1, [sp, #4]
        if ((err = MXC_FLC_Write32(address, current_data_32)) != E_NO_ERROR) {
20000b68:	4620      	mov	r0, r4
20000b6a:	f000 f81d 	bl	20000ba8 <__MXC_FLC_Write32_veneer>
        length -= 4;
20000b6e:	3e04      	subs	r6, #4
        address += 4;
20000b70:	3404      	adds	r4, #4
        buffer8 += 4;
20000b72:	3504      	adds	r5, #4
        if ((err = MXC_FLC_Write32(address, current_data_32)) != E_NO_ERROR) {
20000b74:	2800      	cmp	r0, #0
20000b76:	d0f3      	beq.n	20000b60 <MXC_FLC_Com_Write+0x98>
}
20000b78:	b007      	add	sp, #28
20000b7a:	e8bd 83f0 	ldmia.w	sp!, {r4, r5, r6, r7, r8, r9, pc}
        memcpy(current_data, (void *)(address), 4);
20000b7e:	6823      	ldr	r3, [r4, #0]
20000b80:	9301      	str	r3, [sp, #4]
        memcpy(current_data, buffer8, length);
20000b82:	4629      	mov	r1, r5
20000b84:	4632      	mov	r2, r6
20000b86:	a801      	add	r0, sp, #4
20000b88:	f000 f812 	bl	20000bb0 <__memcpy_veneer>
        if ((err = MXC_FLC_Write32(address, current_data_32)) != E_NO_ERROR) {
20000b8c:	9901      	ldr	r1, [sp, #4]
20000b8e:	4620      	mov	r0, r4
}
20000b90:	b007      	add	sp, #28
20000b92:	e8bd 43f0 	ldmia.w	sp!, {r4, r5, r6, r7, r8, r9, lr}
        if ((err = MXC_FLC_Write32(address, current_data_32)) != E_NO_ERROR) {
20000b96:	f000 b807 	b.w	20000ba8 <__MXC_FLC_Write32_veneer>
20000b9a:	bf00      	nop

20000b9c <MXC_FLC_Com_Read>:
#pragma section = ".flashprog"
#else
__attribute__((section(".flashprog")))
#endif
void MXC_FLC_Com_Read(int address, void *buffer, int len)
{
20000b9c:	4603      	mov	r3, r0
    memcpy(buffer, (void *)address, len);
20000b9e:	4608      	mov	r0, r1
20000ba0:	4619      	mov	r1, r3
20000ba2:	f000 b805 	b.w	20000bb0 <__memcpy_veneer>
20000ba6:	bf00      	nop

20000ba8 <__MXC_FLC_Write32_veneer>:
20000ba8:	f85f f000 	ldr.w	pc, [pc]	@ 20000bac <__MXC_FLC_Write32_veneer+0x4>
20000bac:	100107d5 	.word	0x100107d5

20000bb0 <__memcpy_veneer>:
20000bb0:	f85f f000 	ldr.w	pc, [pc]	@ 20000bb4 <__memcpy_veneer+0x4>
20000bb4:	10011ae1 	.word	0x10011ae1

20000bb8 <__init_array_start>:
20000bb8:	10015509 	.word	0x10015509

20000bbc <__frame_dummy_init_array_entry>:
20000bbc:	1000e271                                q...

20000bc0 <__do_global_dtors_aux_fini_array_entry>:
20000bc0:	1000e249                                I...
